Archive member included because of file (symbol)

c:/pspsdk/bin/../lib/gcc/psp/4.3.5/../../../../psp/lib\libosl.a(oslib.o)
                              psp/SMS.o (osl_currentFrameRate)
c:/pspsdk/bin/../lib/gcc/psp/4.3.5/../../../../psp/lib\libosl.a(drawing.o)
                              gbcore/lcd.o (oslConvertColor)
c:/pspsdk/bin/../lib/gcc/psp/4.3.5/../../../../psp/lib\libosl.a(image.o)
                              psp/main.o (osl_autoSwizzleImages)
c:/pspsdk/bin/../lib/gcc/psp/4.3.5/../../../../psp/lib\libosl.a(palette.o)
                              c:/pspsdk/bin/../lib/gcc/psp/4.3.5/../../../../psp/lib\libosl.a(drawing.o) (oslGetPaletteColor)
c:/pspsdk/bin/../lib/gcc/psp/4.3.5/../../../../psp/lib\libosl.a(shape.o)
                              psp/VideoGu.o (oslBlendColors)
c:/pspsdk/bin/../lib/gcc/psp/4.3.5/../../../../psp/lib\libosl.a(messagebox.o)
                              psp/SMS.o (oslMessageBox)
c:/pspsdk/bin/../lib/gcc/psp/4.3.5/../../../../psp/lib\libosl.a(keys.o)
                              psp/menuplus.o (oslReadKeys)
c:/pspsdk/bin/../lib/gcc/psp/4.3.5/../../../../psp/lib\libosl.a(vfpu.o)
                              psp/menuplus.o (oslCos)
c:/pspsdk/bin/../lib/gcc/psp/4.3.5/../../../../psp/lib\libosl.a(text.o)
                              psp/VideoGu.o (oslSetTextColor)
c:/pspsdk/bin/../lib/gcc/psp/4.3.5/../../../../psp/lib\libosl.a(vram_mgr.o)
                              c:/pspsdk/bin/../lib/gcc/psp/4.3.5/../../../../psp/lib\libosl.a(drawing.o) (oslVramMgrSetParameters)
c:/pspsdk/bin/../lib/gcc/psp/4.3.5/../../../../psp/lib\libosl.a(stub.o)
                              c:/pspsdk/bin/../lib/gcc/psp/4.3.5/../../../../psp/lib\libosl.a(image.o) (sceDmacMemcpy)
c:/pspsdk/bin/../lib/gcc/psp/4.3.5/../../../../psp/lib\libosl.a(audio.o)
                              c:/pspsdk/bin/../lib/gcc/psp/4.3.5/../../../../psp/lib\libosl.a(oslib.o) (oslAudioVSync)
c:/pspsdk/bin/../lib/gcc/psp/4.3.5/../../../../psp/lib\libosl.a(bgm.o)
                              c:/pspsdk/bin/../lib/gcc/psp/4.3.5/../../../../psp/lib\libosl.a(audio.o) (oslLoadSoundFileBGM)
c:/pspsdk/bin/../lib/gcc/psp/4.3.5/../../../../psp/lib\libosl.a(usb.o)
                              psp/menuplus.o (oslStopUsbStorage)
c:/pspsdk/bin/../lib/gcc/psp/4.3.5/../../../../psp/lib\libosl.a(VirtualFile.o)
                              psp/VirtualGz.o (VirtualFileRegisterSource)
c:/pspsdk/bin/../lib/gcc/psp/4.3.5/../../../../psp/lib\libosl.a(vfsFile.o)
                              c:/pspsdk/bin/../lib/gcc/psp/4.3.5/../../../../psp/lib\libosl.a(VirtualFile.o) (oslInitVfsFile)
c:/pspsdk/bin/../lib/gcc/psp/4.3.5/../../../../psp/lib\libosl.a(oslDrawImage.o)
                              psp/menuplus.o (oslDrawImage)
c:/pspsdk/bin/../lib/gcc/psp/4.3.5/../../../../psp/lib\libosl.a(oslDrawImageSimple.o)
                              psp/menuplus.o (oslDrawImageSimple)
c:/pspsdk/bin/../lib/gcc/psp/4.3.5/../../../../psp/lib\libosl.a(oslLockImage.o)
                              psp/menuplus.o (oslUnlockImage)
c:/pspsdk/bin/../lib/gcc/psp/4.3.5/../../../../psp/lib\libosl.a(oslSwizzleImage.o)
                              psp/menuplus.o (oslSwizzleImage)
c:/pspsdk/bin/../lib/gcc/psp/4.3.5/../../../../psp/lib\libosl.a(oslSetDrawBuffer.o)
                              psp/menuplus.o (oslSetDrawBuffer)
c:/pspsdk/bin/../lib/gcc/psp/4.3.5/../../../../psp/lib\libosl.a(oslWriteImageFilePNG.o)
                              psp/menuplus.o (oslWriteImageFilePNG)
c:/pspsdk/bin/../lib/gcc/psp/4.3.5/../../../../psp/lib\libosl.a(oslLoadImageFile.o)
                              psp/menuplus.o (oslLoadImageFile)
c:/pspsdk/bin/../lib/gcc/psp/4.3.5/../../../../psp/lib\libosl.a(intraFont.o)
                              c:/pspsdk/bin/../lib/gcc/psp/4.3.5/../../../../psp/lib\libosl.a(text.o) (intraFontInit)
c:/pspsdk/bin/../lib/gcc/psp/4.3.5/../../../../psp/lib\libosl.a(libccc.o)
                              c:/pspsdk/bin/../lib/gcc/psp/4.3.5/../../../../psp/lib\libosl.a(intraFont.o) (cccStrlenUCS2)
c:/pspsdk/bin/../lib/gcc/psp/4.3.5/../../../../psp/lib\libosl.a(oslHandleLoadNoFailError.o)
                              c:/pspsdk/bin/../lib/gcc/psp/4.3.5/../../../../psp/lib\libosl.a(text.o) (oslHandleLoadNoFailError)
c:/pspsdk/bin/../lib/gcc/psp/4.3.5/../../../../psp/lib\libosl.a(oslLoadImageFilePNG.o)
                              c:/pspsdk/bin/../lib/gcc/psp/4.3.5/../../../../psp/lib\libosl.a(oslWriteImageFilePNG.o) (oslPngFlushFn)
c:/pspsdk/bin/../lib/gcc/psp/4.3.5/../../../../psp/lib\libosl.a(oslLoadImageFileJPG.o)
                              c:/pspsdk/bin/../lib/gcc/psp/4.3.5/../../../../psp/lib\libosl.a(oslLoadImageFile.o) (oslLoadImageFileJPG)
c:/pspsdk/bin/../lib/gcc/psp/4.3.5/../../../../psp/lib\libosl.a(oslLoadImageFileGIF.o)
                              c:/pspsdk/bin/../lib/gcc/psp/4.3.5/../../../../psp/lib\libosl.a(oslLoadImageFile.o) (oslLoadImageFileGIF)
c:/pspsdk/bin/../lib/gcc/psp/4.3.5/../../../../psp/lib\libosl.a(oslConvertImageTo.o)
                              c:/pspsdk/bin/../lib/gcc/psp/4.3.5/../../../../psp/lib\libosl.a(oslLoadImageFilePNG.o) (oslConvertImageTo)
c:/pspsdk/bin/../lib/gcc/psp/4.3.5/../../../../psp/lib\libosl.a(oslSetImagePixel.o)
                              c:/pspsdk/bin/../lib/gcc/psp/4.3.5/../../../../psp/lib\libosl.a(oslLoadImageFileJPG.o) (oslSetImagePixel)
c:/pspsdk/bin/../lib/gcc/psp/4.3.5/../../../../psp/lib\libosl.a(oslGetImagePixel.o)
                              c:/pspsdk/bin/../lib/gcc/psp/4.3.5/../../../../psp/lib\libosl.a(oslConvertImageTo.o) (oslGetImagePixel)
c:/pspsdk/bin/../lib/gcc/psp/4.3.5/../../../../psp/lib\libosl.a(dgif_lib.o)
                              c:/pspsdk/bin/../lib/gcc/psp/4.3.5/../../../../psp/lib\libosl.a(oslLoadImageFileGIF.o) (DGifGetLine)
c:/pspsdk/bin/../lib/gcc/psp/4.3.5/../../../../psp/lib\libosl.a(gif_err.o)
                              c:/pspsdk/bin/../lib/gcc/psp/4.3.5/../../../../psp/lib\libosl.a(dgif_lib.o) (_GifError)
c:/pspsdk/bin/../lib/gcc/psp/4.3.5/../../../../psp/lib\libosl.a(gifalloc.o)
                              c:/pspsdk/bin/../lib/gcc/psp/4.3.5/../../../../psp/lib\libosl.a(dgif_lib.o) (FreeMapObject)
c:/pspsdk/bin/../lib/gcc/psp/4.3.5/../../../../psp/lib\libpng.a(png.o)
                              c:/pspsdk/bin/../lib/gcc/psp/4.3.5/../../../../psp/lib\libosl.a(oslWriteImageFilePNG.o) (png_get_io_ptr)
c:/pspsdk/bin/../lib/gcc/psp/4.3.5/../../../../psp/lib\libpng.a(pngerror.o)
                              c:/pspsdk/bin/../lib/gcc/psp/4.3.5/../../../../psp/lib\libpng.a(png.o) (png_warning)
c:/pspsdk/bin/../lib/gcc/psp/4.3.5/../../../../psp/lib\libpng.a(pngmem.o)
                              c:/pspsdk/bin/../lib/gcc/psp/4.3.5/../../../../psp/lib\libpng.a(png.o) (png_free)
c:/pspsdk/bin/../lib/gcc/psp/4.3.5/../../../../psp/lib\libpng.a(pngread.o)
                              c:/pspsdk/bin/../lib/gcc/psp/4.3.5/../../../../psp/lib\libosl.a(oslLoadImageFilePNG.o) (png_destroy_read_struct)
c:/pspsdk/bin/../lib/gcc/psp/4.3.5/../../../../psp/lib\libpng.a(pngrio.o)
                              c:/pspsdk/bin/../lib/gcc/psp/4.3.5/../../../../psp/lib\libosl.a(oslLoadImageFilePNG.o) (png_set_read_fn)
c:/pspsdk/bin/../lib/gcc/psp/4.3.5/../../../../psp/lib\libpng.a(pngrtran.o)
                              c:/pspsdk/bin/../lib/gcc/psp/4.3.5/../../../../psp/lib\libpng.a(pngread.o) (png_set_strip_16)
c:/pspsdk/bin/../lib/gcc/psp/4.3.5/../../../../psp/lib\libpng.a(pngrutil.o)
                              c:/pspsdk/bin/../lib/gcc/psp/4.3.5/../../../../psp/lib\libpng.a(pngread.o) (png_get_uint_31)
c:/pspsdk/bin/../lib/gcc/psp/4.3.5/../../../../psp/lib\libpng.a(pngset.o)
                              c:/pspsdk/bin/../lib/gcc/psp/4.3.5/../../../../psp/lib\libpng.a(pngrutil.o) (png_set_oFFs)
c:/pspsdk/bin/../lib/gcc/psp/4.3.5/../../../../psp/lib\libpng.a(pngtrans.o)
                              c:/pspsdk/bin/../lib/gcc/psp/4.3.5/../../../../psp/lib\libpng.a(pngread.o) (png_set_bgr)
c:/pspsdk/bin/../lib/gcc/psp/4.3.5/../../../../psp/lib\libpng.a(pngwio.o)
                              c:/pspsdk/bin/../lib/gcc/psp/4.3.5/../../../../psp/lib\libosl.a(oslWriteImageFilePNG.o) (png_set_write_fn)
c:/pspsdk/bin/../lib/gcc/psp/4.3.5/../../../../psp/lib\libpng.a(pngwrite.o)
                              c:/pspsdk/bin/../lib/gcc/psp/4.3.5/../../../../psp/lib\libosl.a(oslWriteImageFilePNG.o) (png_destroy_write_struct)
c:/pspsdk/bin/../lib/gcc/psp/4.3.5/../../../../psp/lib\libpng.a(pngwtran.o)
                              c:/pspsdk/bin/../lib/gcc/psp/4.3.5/../../../../psp/lib\libpng.a(pngwrite.o) (png_do_write_intrapixel)
c:/pspsdk/bin/../lib/gcc/psp/4.3.5/../../../../psp/lib\libpng.a(pngwutil.o)
                              c:/pspsdk/bin/../lib/gcc/psp/4.3.5/../../../../psp/lib\libpng.a(pngwrite.o) (png_do_write_interlace)
c:/pspsdk/bin/../lib/gcc/psp/4.3.5/../../../../psp/lib\libpng.a(pngget.o)
                              c:/pspsdk/bin/../lib/gcc/psp/4.3.5/../../../../psp/lib\libpng.a(pngread.o) (png_get_valid)
c:/pspsdk/bin/../lib/gcc/psp/4.3.5/../../../../psp/lib\libz.a(adler32.o)
                              psp/deflate.o (adler32)
c:/pspsdk/bin/../lib/gcc/psp/4.3.5/../../../../psp/lib\libz.a(compress.o)
                              psp/deflate.o (compressBound)
c:/pspsdk/bin/../lib/gcc/psp/4.3.5/../../../../psp/lib\libz.a(crc32.o)
                              unzip/unzip.o (get_crc_table)
c:/pspsdk/bin/../lib/gcc/psp/4.3.5/../../../../psp/lib\libz.a(inflate.o)
                              psp/gzio.o (inflateReset)
c:/pspsdk/bin/../lib/gcc/psp/4.3.5/../../../../psp/lib\libz.a(inftrees.o)
                              c:/pspsdk/bin/../lib/gcc/psp/4.3.5/../../../../psp/lib\libz.a(inflate.o) (inflate_table)
c:/pspsdk/bin/../lib/gcc/psp/4.3.5/../../../../psp/lib\libz.a(trees.o)
                              psp/deflate.o (_tr_init)
c:/pspsdk/bin/../lib/gcc/psp/4.3.5/../../../../psp/lib\libz.a(uncompr.o)
                              psp/gym/gym.o (uncompress)
c:/pspsdk/bin/../lib/gcc/psp/4.3.5/../../../../psp/lib\libz.a(zutil.o)
                              psp/deflate.o (z_errmsg)
c:/pspsdk/bin/../lib/gcc/psp/4.3.5/../../../../psp/lib\libz.a(inffast.o)
                              c:/pspsdk/bin/../lib/gcc/psp/4.3.5/../../../../psp/lib\libz.a(inflate.o) (inflate_fast)
c:/pspsdk/bin/../lib/gcc/psp/4.3.5/../../../../psp/lib\libjpeg.a(jdapimin.o)
                              c:/pspsdk/bin/../lib/gcc/psp/4.3.5/../../../../psp/lib\libosl.a(oslLoadImageFileJPG.o) (jpeg_finish_decompress)
c:/pspsdk/bin/../lib/gcc/psp/4.3.5/../../../../psp/lib\libjpeg.a(jdapistd.o)
                              c:/pspsdk/bin/../lib/gcc/psp/4.3.5/../../../../psp/lib\libosl.a(oslLoadImageFileJPG.o) (jpeg_read_scanlines)
c:/pspsdk/bin/../lib/gcc/psp/4.3.5/../../../../psp/lib\libjpeg.a(jdatasrc.o)
                              c:/pspsdk/bin/../lib/gcc/psp/4.3.5/../../../../psp/lib\libosl.a(oslLoadImageFileJPG.o) (jpeg_stdio_src)
c:/pspsdk/bin/../lib/gcc/psp/4.3.5/../../../../psp/lib\libjpeg.a(jdmaster.o)
                              c:/pspsdk/bin/../lib/gcc/psp/4.3.5/../../../../psp/lib\libjpeg.a(jdapistd.o) (jinit_master_decompress)
c:/pspsdk/bin/../lib/gcc/psp/4.3.5/../../../../psp/lib\libjpeg.a(jdinput.o)
                              c:/pspsdk/bin/../lib/gcc/psp/4.3.5/../../../../psp/lib\libjpeg.a(jdapimin.o) (jinit_input_controller)
c:/pspsdk/bin/../lib/gcc/psp/4.3.5/../../../../psp/lib\libjpeg.a(jdmarker.o)
                              c:/pspsdk/bin/../lib/gcc/psp/4.3.5/../../../../psp/lib\libjpeg.a(jdatasrc.o) (jpeg_resync_to_restart)
c:/pspsdk/bin/../lib/gcc/psp/4.3.5/../../../../psp/lib\libjpeg.a(jdhuff.o)
                              c:/pspsdk/bin/../lib/gcc/psp/4.3.5/../../../../psp/lib\libjpeg.a(jdmaster.o) (jinit_huff_decoder)
c:/pspsdk/bin/../lib/gcc/psp/4.3.5/../../../../psp/lib\libjpeg.a(jdmainct.o)
                              c:/pspsdk/bin/../lib/gcc/psp/4.3.5/../../../../psp/lib\libjpeg.a(jdmaster.o) (jinit_d_main_controller)
c:/pspsdk/bin/../lib/gcc/psp/4.3.5/../../../../psp/lib\libjpeg.a(jdcoefct.o)
                              c:/pspsdk/bin/../lib/gcc/psp/4.3.5/../../../../psp/lib\libjpeg.a(jdmaster.o) (jinit_d_coef_controller)
c:/pspsdk/bin/../lib/gcc/psp/4.3.5/../../../../psp/lib\libjpeg.a(jdpostct.o)
                              c:/pspsdk/bin/../lib/gcc/psp/4.3.5/../../../../psp/lib\libjpeg.a(jdmaster.o) (jinit_d_post_controller)
c:/pspsdk/bin/../lib/gcc/psp/4.3.5/../../../../psp/lib\libjpeg.a(jddctmgr.o)
                              c:/pspsdk/bin/../lib/gcc/psp/4.3.5/../../../../psp/lib\libjpeg.a(jdmaster.o) (jinit_inverse_dct)
c:/pspsdk/bin/../lib/gcc/psp/4.3.5/../../../../psp/lib\libjpeg.a(jidctfst.o)
                              c:/pspsdk/bin/../lib/gcc/psp/4.3.5/../../../../psp/lib\libjpeg.a(jddctmgr.o) (jpeg_idct_ifast)
c:/pspsdk/bin/../lib/gcc/psp/4.3.5/../../../../psp/lib\libjpeg.a(jidctflt.o)
                              c:/pspsdk/bin/../lib/gcc/psp/4.3.5/../../../../psp/lib\libjpeg.a(jddctmgr.o) (jpeg_idct_float)
c:/pspsdk/bin/../lib/gcc/psp/4.3.5/../../../../psp/lib\libjpeg.a(jidctint.o)
                              c:/pspsdk/bin/../lib/gcc/psp/4.3.5/../../../../psp/lib\libjpeg.a(jddctmgr.o) (jpeg_idct_islow)
c:/pspsdk/bin/../lib/gcc/psp/4.3.5/../../../../psp/lib\libjpeg.a(jdsample.o)
                              c:/pspsdk/bin/../lib/gcc/psp/4.3.5/../../../../psp/lib\libjpeg.a(jdmaster.o) (jinit_upsampler)
c:/pspsdk/bin/../lib/gcc/psp/4.3.5/../../../../psp/lib\libjpeg.a(jdcolor.o)
                              c:/pspsdk/bin/../lib/gcc/psp/4.3.5/../../../../psp/lib\libjpeg.a(jdmaster.o) (jinit_color_deconverter)
c:/pspsdk/bin/../lib/gcc/psp/4.3.5/../../../../psp/lib\libjpeg.a(jquant1.o)
                              c:/pspsdk/bin/../lib/gcc/psp/4.3.5/../../../../psp/lib\libjpeg.a(jdmaster.o) (jinit_1pass_quantizer)
c:/pspsdk/bin/../lib/gcc/psp/4.3.5/../../../../psp/lib\libjpeg.a(jquant2.o)
                              c:/pspsdk/bin/../lib/gcc/psp/4.3.5/../../../../psp/lib\libjpeg.a(jdmaster.o) (jinit_2pass_quantizer)
c:/pspsdk/bin/../lib/gcc/psp/4.3.5/../../../../psp/lib\libjpeg.a(jdmerge.o)
                              c:/pspsdk/bin/../lib/gcc/psp/4.3.5/../../../../psp/lib\libjpeg.a(jdmaster.o) (jinit_merged_upsampler)
c:/pspsdk/bin/../lib/gcc/psp/4.3.5/../../../../psp/lib\libjpeg.a(jcomapi.o)
                              c:/pspsdk/bin/../lib/gcc/psp/4.3.5/../../../../psp/lib\libjpeg.a(jdapimin.o) (jpeg_abort)
c:/pspsdk/bin/../lib/gcc/psp/4.3.5/../../../../psp/lib\libjpeg.a(jutils.o)
                              c:/pspsdk/bin/../lib/gcc/psp/4.3.5/../../../../psp/lib\libjpeg.a(jdmaster.o) (jdiv_round_up)
c:/pspsdk/bin/../lib/gcc/psp/4.3.5/../../../../psp/lib\libjpeg.a(jerror.o)
                              c:/pspsdk/bin/../lib/gcc/psp/4.3.5/../../../../psp/lib\libosl.a(oslLoadImageFileJPG.o) (jpeg_std_error)
c:/pspsdk/bin/../lib/gcc/psp/4.3.5/../../../../psp/lib\libjpeg.a(jmemmgr.o)
                              c:/pspsdk/bin/../lib/gcc/psp/4.3.5/../../../../psp/lib\libjpeg.a(jdapimin.o) (jinit_memory_mgr)
c:/pspsdk/bin/../lib/gcc/psp/4.3.5/../../../../psp/lib\libjpeg.a(jmemnobs.o)
                              c:/pspsdk/bin/../lib/gcc/psp/4.3.5/../../../../psp/lib\libjpeg.a(jmemmgr.o) (jpeg_mem_available)
c:/pspsdk/bin/../lib/gcc/psp/4.3.5/../../../../psp/lib\libjpeg.a(jdarith.o)
                              c:/pspsdk/bin/../lib/gcc/psp/4.3.5/../../../../psp/lib\libjpeg.a(jdmaster.o) (jinit_arith_decoder)
c:/pspsdk/bin/../lib/gcc/psp/4.3.5/../../../../psp/lib\libjpeg.a(jaricom.o)
                              c:/pspsdk/bin/../lib/gcc/psp/4.3.5/../../../../psp/lib\libjpeg.a(jdarith.o) (jpeg_aritab)
c:/pspsdk/psp/sdk/lib\libpspsdk.a(loadmodule.o)
                              c:/pspsdk/bin/../lib/gcc/psp/4.3.5/../../../../psp/lib\libosl.a(usb.o) (pspSdkLoadStartModule)
c:/pspsdk/psp/sdk/lib\libpsphprm.a(sceHprm_0003.o)
                              c:/pspsdk/bin/../lib/gcc/psp/4.3.5/../../../../psp/lib\libosl.a(keys.o) (sceHprmIsRemoteExist)
c:/pspsdk/psp/sdk/lib\libpsphprm.a(sceHprm_0004.o)
                              psp/sound.o (sceHprmIsHeadphoneExist)
c:/pspsdk/psp/sdk/lib\libpsphprm.a(sceHprm_0006.o)
                              c:/pspsdk/bin/../lib/gcc/psp/4.3.5/../../../../psp/lib\libosl.a(keys.o) (sceHprmPeekCurrentKey)
c:/pspsdk/psp/sdk/lib\libpsphprm.a(sceHprm_0000.o)
                              c:/pspsdk/psp/sdk/lib\libpsphprm.a(sceHprm_0003.o) (__stub_module_sceHprm)
c:/pspsdk/psp/sdk/lib\libpspctrl.a(sceCtrl_0001.o)
                              psp/Controls.o (sceCtrlSetSamplingCycle)
c:/pspsdk/psp/sdk/lib\libpspctrl.a(sceCtrl_0003.o)
                              psp/Controls.o (sceCtrlSetSamplingMode)
c:/pspsdk/psp/sdk/lib\libpspctrl.a(sceCtrl_0005.o)
                              psp/gameboy_render.o (sceCtrlPeekBufferPositive)
c:/pspsdk/psp/sdk/lib\libpspctrl.a(sceCtrl_0000.o)
                              c:/pspsdk/psp/sdk/lib\libpspctrl.a(sceCtrl_0001.o) (__stub_module_sceCtrl)
c:/pspsdk/psp/sdk/lib\libpsppower.a(scePower_0003.o)
                              c:/pspsdk/bin/../lib/gcc/psp/4.3.5/../../../../psp/lib\libosl.a(keys.o) (scePowerTick)
c:/pspsdk/psp/sdk/lib\libpsppower.a(scePower_0010.o)
                              psp/menuplus.o (scePowerIsPowerOnline)
c:/pspsdk/psp/sdk/lib\libpsppower.a(scePower_0011.o)
                              psp/menuplus.o (scePowerIsBatteryExist)
c:/pspsdk/psp/sdk/lib\libpsppower.a(scePower_0012.o)
                              psp/menuplus.o (scePowerIsBatteryCharging)
c:/pspsdk/psp/sdk/lib\libpsppower.a(scePower_0014.o)
                              psp/menuplus.o (scePowerIsLowBattery)
c:/pspsdk/psp/sdk/lib\libpsppower.a(scePower_0018.o)
                              psp/menuplus.o (scePowerGetBatteryLifePercent)
c:/pspsdk/psp/sdk/lib\libpsppower.a(scePower_0019.o)
                              psp/menuplus.o (scePowerGetBatteryLifeTime)
c:/pspsdk/psp/sdk/lib\libpsppower.a(scePower_0020.o)
                              psp/menuplus.o (scePowerGetBatteryTemp)
c:/pspsdk/psp/sdk/lib\libpsppower.a(scePower_0026.o)
                              psp/SMS.o (scePowerLock)
c:/pspsdk/psp/sdk/lib\libpsppower.a(scePower_0027.o)
                              psp/SMS.o (scePowerUnlock)
c:/pspsdk/psp/sdk/lib\libpsppower.a(scePower_0035.o)
                              c:/pspsdk/bin/../lib/gcc/psp/4.3.5/../../../../psp/lib\libosl.a(oslib.o) (scePowerRegisterCallback)
c:/pspsdk/psp/sdk/lib\libpsppower.a(scePower_0046.o)
                              psp/SMS.o (scePowerSetClockFrequency)
c:/pspsdk/psp/sdk/lib\libpsppower.a(scePower_0000.o)
                              c:/pspsdk/psp/sdk/lib\libpsppower.a(scePower_0003.o) (__stub_module_scePower)
c:/pspsdk/psp/sdk/lib\libpspusb.a(sceUsb_0001.o)
                              c:/pspsdk/bin/../lib/gcc/psp/4.3.5/../../../../psp/lib\libosl.a(usb.o) (sceUsbStart)
c:/pspsdk/psp/sdk/lib\libpspusb.a(sceUsb_0002.o)
                              c:/pspsdk/bin/../lib/gcc/psp/4.3.5/../../../../psp/lib\libosl.a(usb.o) (sceUsbStop)
c:/pspsdk/psp/sdk/lib\libpspusb.a(sceUsb_0003.o)
                              psp/menuplus.o (sceUsbGetState)
c:/pspsdk/psp/sdk/lib\libpspusb.a(sceUsb_0006.o)
                              c:/pspsdk/bin/../lib/gcc/psp/4.3.5/../../../../psp/lib\libosl.a(usb.o) (sceUsbActivate)
c:/pspsdk/psp/sdk/lib\libpspusb.a(sceUsb_0007.o)
                              c:/pspsdk/bin/../lib/gcc/psp/4.3.5/../../../../psp/lib\libosl.a(usb.o) (sceUsbDeactivate)
c:/pspsdk/psp/sdk/lib\libpspusb.a(sceUsb_0000.o)
                              c:/pspsdk/psp/sdk/lib\libpspusb.a(sceUsb_0001.o) (__stub_module_sceUsb)
c:/pspsdk/psp/sdk/lib\libpspusbstor.a(sceUsbstorBoot_0001.o)
                              c:/pspsdk/bin/../lib/gcc/psp/4.3.5/../../../../psp/lib\libosl.a(usb.o) (sceUsbstorBootSetCapacity)
c:/pspsdk/psp/sdk/lib\libpspusbstor.a(sceUsbstorBoot_0000.o)
                              c:/pspsdk/psp/sdk/lib\libpspusbstor.a(sceUsbstorBoot_0001.o) (__stub_module_sceUsbstorBoot)
c:/pspsdk/psp/sdk/lib\libpspgu.a(sceGuAlphaFunc.o)
                              c:/pspsdk/bin/../lib/gcc/psp/4.3.5/../../../../psp/lib\libosl.a(drawing.o) (sceGuAlphaFunc)
c:/pspsdk/psp/sdk/lib\libpspgu.a(sceGuAmbientColor.o)
                              c:/pspsdk/bin/../lib/gcc/psp/4.3.5/../../../../psp/lib\libosl.a(drawing.o) (sceGuAmbientColor)
c:/pspsdk/psp/sdk/lib\libpspgu.a(sceGuBlendFunc.o)
                              c:/pspsdk/bin/../lib/gcc/psp/4.3.5/../../../../psp/lib\libosl.a(drawing.o) (sceGuBlendFunc)
c:/pspsdk/psp/sdk/lib\libpspgu.a(sceGuClear.o)
                              c:/pspsdk/bin/../lib/gcc/psp/4.3.5/../../../../psp/lib\libosl.a(drawing.o) (sceGuClear)
c:/pspsdk/psp/sdk/lib\libpspgu.a(sceGuClearColor.o)
                              c:/pspsdk/bin/../lib/gcc/psp/4.3.5/../../../../psp/lib\libosl.a(drawing.o) (sceGuClearColor)
c:/pspsdk/psp/sdk/lib\libpspgu.a(sceGuClutLoad.o)
                              psp/VideoGu.o (sceGuClutLoad)
c:/pspsdk/psp/sdk/lib\libpspgu.a(sceGuClutMode.o)
                              psp/VideoGu.o (sceGuClutMode)
c:/pspsdk/psp/sdk/lib\libpspgu.a(sceGuColorFunc.o)
                              c:/pspsdk/bin/../lib/gcc/psp/4.3.5/../../../../psp/lib\libosl.a(drawing.o) (sceGuColorFunc)
c:/pspsdk/psp/sdk/lib\libpspgu.a(sceGuDepthBuffer.o)
                              c:/pspsdk/bin/../lib/gcc/psp/4.3.5/../../../../psp/lib\libosl.a(drawing.o) (sceGuDepthBuffer)
c:/pspsdk/psp/sdk/lib\libpspgu.a(sceGuDepthFunc.o)
                              c:/pspsdk/bin/../lib/gcc/psp/4.3.5/../../../../psp/lib\libosl.a(drawing.o) (sceGuDepthFunc)
c:/pspsdk/psp/sdk/lib\libpspgu.a(sceGuDepthRange.o)
                              c:/pspsdk/bin/../lib/gcc/psp/4.3.5/../../../../psp/lib\libosl.a(drawing.o) (sceGuDepthRange)
c:/pspsdk/psp/sdk/lib\libpspgu.a(sceGuDisable.o)
                              psp/VideoGu.o (sceGuDisable)
c:/pspsdk/psp/sdk/lib\libpspgu.a(sceGuDispBuffer.o)
                              c:/pspsdk/bin/../lib/gcc/psp/4.3.5/../../../../psp/lib\libosl.a(drawing.o) (sceGuDispBuffer)
c:/pspsdk/psp/sdk/lib\libpspgu.a(sceGuDisplay.o)
                              c:/pspsdk/bin/../lib/gcc/psp/4.3.5/../../../../psp/lib\libosl.a(drawing.o) (sceGuDisplay)
c:/pspsdk/psp/sdk/lib\libpspgu.a(sceGuDrawArray.o)
                              psp/VideoGu.o (sceGuDrawArray)
c:/pspsdk/psp/sdk/lib\libpspgu.a(sceGuDrawBuffer.o)
                              c:/pspsdk/bin/../lib/gcc/psp/4.3.5/../../../../psp/lib\libosl.a(drawing.o) (sceGuDrawBuffer)
c:/pspsdk/psp/sdk/lib\libpspgu.a(sceGuEnable.o)
                              psp/VideoGu.o (sceGuEnable)
c:/pspsdk/psp/sdk/lib\libpspgu.a(sceGuFinish.o)
                              c:/pspsdk/bin/../lib/gcc/psp/4.3.5/../../../../psp/lib\libosl.a(drawing.o) (sceGuFinish)
c:/pspsdk/psp/sdk/lib\libpspgu.a(sceGuFrontFace.o)
                              c:/pspsdk/bin/../lib/gcc/psp/4.3.5/../../../../psp/lib\libosl.a(drawing.o) (sceGuFrontFace)
c:/pspsdk/psp/sdk/lib\libpspgu.a(sceGuGetMemory.o)
                              psp/VideoGu.o (sceGuGetMemory)
c:/pspsdk/psp/sdk/lib\libpspgu.a(sceGuInit.o)
                              c:/pspsdk/bin/../lib/gcc/psp/4.3.5/../../../../psp/lib\libosl.a(drawing.o) (sceGuInit)
c:/pspsdk/psp/sdk/lib\libpspgu.a(sceGuOffset.o)
                              c:/pspsdk/bin/../lib/gcc/psp/4.3.5/../../../../psp/lib\libosl.a(drawing.o) (sceGuOffset)
c:/pspsdk/psp/sdk/lib\libpspgu.a(sceGuScissor.o)
                              c:/pspsdk/bin/../lib/gcc/psp/4.3.5/../../../../psp/lib\libosl.a(drawing.o) (sceGuScissor)
c:/pspsdk/psp/sdk/lib\libpspgu.a(sceGuShadeModel.o)
                              c:/pspsdk/bin/../lib/gcc/psp/4.3.5/../../../../psp/lib\libosl.a(drawing.o) (sceGuShadeModel)
c:/pspsdk/psp/sdk/lib\libpspgu.a(sceGuStart.o)
                              c:/pspsdk/bin/../lib/gcc/psp/4.3.5/../../../../psp/lib\libosl.a(drawing.o) (sceGuStart)
c:/pspsdk/psp/sdk/lib\libpspgu.a(sceGuStencilFunc.o)
                              c:/pspsdk/bin/../lib/gcc/psp/4.3.5/../../../../psp/lib\libosl.a(drawing.o) (sceGuStencilFunc)
c:/pspsdk/psp/sdk/lib\libpspgu.a(sceGuStencilOp.o)
                              c:/pspsdk/bin/../lib/gcc/psp/4.3.5/../../../../psp/lib\libosl.a(drawing.o) (sceGuStencilOp)
c:/pspsdk/psp/sdk/lib\libpspgu.a(sceGuSwapBuffers.o)
                              c:/pspsdk/bin/../lib/gcc/psp/4.3.5/../../../../psp/lib\libosl.a(drawing.o) (sceGuSwapBuffers)
c:/pspsdk/psp/sdk/lib\libpspgu.a(sceGuSync.o)
                              c:/pspsdk/bin/../lib/gcc/psp/4.3.5/../../../../psp/lib\libosl.a(drawing.o) (sceGuSync)
c:/pspsdk/psp/sdk/lib\libpspgu.a(sceGuTerm.o)
                              psp/VideoGu.o (sceGuTerm)
c:/pspsdk/psp/sdk/lib\libpspgu.a(sceGuTexEnvColor.o)
                              c:/pspsdk/bin/../lib/gcc/psp/4.3.5/../../../../psp/lib\libosl.a(intraFont.o) (sceGuTexEnvColor)
c:/pspsdk/psp/sdk/lib\libpspgu.a(sceGuTexFilter.o)
                              c:/pspsdk/bin/../lib/gcc/psp/4.3.5/../../../../psp/lib\libosl.a(drawing.o) (sceGuTexFilter)
c:/pspsdk/psp/sdk/lib\libpspgu.a(sceGuTexFunc.o)
                              c:/pspsdk/bin/../lib/gcc/psp/4.3.5/../../../../psp/lib\libosl.a(drawing.o) (sceGuTexFunc)
c:/pspsdk/psp/sdk/lib\libpspgu.a(sceGuTexImage.o)
                              psp/VideoGu.o (sceGuTexImage)
c:/pspsdk/psp/sdk/lib\libpspgu.a(sceGuTexMode.o)
                              psp/VideoGu.o (sceGuTexMode)
c:/pspsdk/psp/sdk/lib\libpspgu.a(sceGuTexOffset.o)
                              c:/pspsdk/bin/../lib/gcc/psp/4.3.5/../../../../psp/lib\libosl.a(intraFont.o) (sceGuTexOffset)
c:/pspsdk/psp/sdk/lib\libpspgu.a(sceGuTexScale.o)
                              c:/pspsdk/psp/sdk/lib\libpspgu.a(sceGuStart.o) (sceGuTexScale)
c:/pspsdk/psp/sdk/lib\libpspgu.a(sceGuTexWrap.o)
                              c:/pspsdk/bin/../lib/gcc/psp/4.3.5/../../../../psp/lib\libosl.a(drawing.o) (sceGuTexWrap)
c:/pspsdk/psp/sdk/lib\libpspgu.a(sceGuViewport.o)
                              c:/pspsdk/bin/../lib/gcc/psp/4.3.5/../../../../psp/lib\libosl.a(drawing.o) (sceGuViewport)
c:/pspsdk/psp/sdk/lib\libpspgu.a(sendCommand.o)
                              c:/pspsdk/psp/sdk/lib\libpspgu.a(sceGuAlphaFunc.o) (sendCommandi)
c:/pspsdk/psp/sdk/lib\libpspgu.a(callbackFin.o)
                              c:/pspsdk/psp/sdk/lib\libpspgu.a(sceGuInit.o) (callbackFin)
c:/pspsdk/psp/sdk/lib\libpspgu.a(callbackSig.o)
                              c:/pspsdk/psp/sdk/lib\libpspgu.a(sceGuInit.o) (callbackSig)
c:/pspsdk/psp/sdk/lib\libpspgu.a(guInternal.o)
                              c:/pspsdk/psp/sdk/lib\libpspgu.a(sceGuSwapBuffers.o) (gu_current_frame)
c:/pspsdk/psp/sdk/lib\libpspgu.a(resetValues.o)
                              c:/pspsdk/psp/sdk/lib\libpspgu.a(sceGuInit.o) (resetValues)
c:/pspsdk/psp/sdk/lib\libpspgu.a(sceGuColorMaterial.o)
                              c:/pspsdk/psp/sdk/lib\libpspgu.a(sceGuStart.o) (sceGuColorMaterial)
c:/pspsdk/psp/sdk/lib\libpspgu.a(sceGuPatchDivide.o)
                              c:/pspsdk/psp/sdk/lib\libpspgu.a(sceGuStart.o) (sceGuPatchDivide)
c:/pspsdk/psp/sdk/lib\libpspgu.a(sceGuSetDither.o)
                              c:/pspsdk/psp/sdk/lib\libpspgu.a(sceGuStart.o) (sceGuSetDither)
c:/pspsdk/psp/sdk/lib\libpspgu.a(sceGuSpecular.o)
                              c:/pspsdk/psp/sdk/lib\libpspgu.a(sceGuStart.o) (sceGuSpecular)
c:/pspsdk/psp/sdk/lib\libpspgu.a(sceGuTexFlush.o)
                              c:/pspsdk/psp/sdk/lib\libpspgu.a(sceGuTexImage.o) (sceGuTexFlush)
c:/pspsdk/psp/sdk/lib\libpspaudio.a(sceAudio_0002.o)
                              psp/PspSound.o (sceAudioOutputBlocking)
c:/pspsdk/psp/sdk/lib\libpspaudio.a(sceAudio_0004.o)
                              psp/sound.o (sceAudioOutputPannedBlocking)
c:/pspsdk/psp/sdk/lib\libpspaudio.a(sceAudio_0005.o)
                              psp/PspSound.o (sceAudioChReserve)
c:/pspsdk/psp/sdk/lib\libpspaudio.a(sceAudio_0007.o)
                              psp/PspSound.o (sceAudioChRelease)
c:/pspsdk/psp/sdk/lib\libpspaudio.a(sceAudio_0010.o)
                              c:/pspsdk/bin/../lib/gcc/psp/4.3.5/../../../../psp/lib\libosl.a(audio.o) (sceAudioChangeChannelConfig)
c:/pspsdk/psp/sdk/lib\libpspaudio.a(sceAudio_0000.o)
                              c:/pspsdk/psp/sdk/lib\libpspaudio.a(sceAudio_0002.o) (__stub_module_sceAudio)
c:/pspsdk/bin/../lib/gcc/psp/4.3.5/../../../../psp/lib\libstdc++.a(del_op.o)
                              psp/sound.o (operator delete(void*))
c:/pspsdk/bin/../lib/gcc/psp/4.3.5/../../../../psp/lib\libstdc++.a(del_opv.o)
                              psp/gym/gym.o (operator delete[](void*))
c:/pspsdk/bin/../lib/gcc/psp/4.3.5/../../../../psp/lib\libstdc++.a(new_op.o)
                              psp/sound.o (operator new(unsigned int))
c:/pspsdk/bin/../lib/gcc/psp/4.3.5/../../../../psp/lib\libstdc++.a(new_opv.o)
                              psp/sound.o (operator new[](unsigned int))
c:/pspsdk/bin/../lib/gcc/psp/4.3.5/../../../../psp/lib\libstdc++.a(eh_alloc.o)
                              c:/pspsdk/bin/../lib/gcc/psp/4.3.5/../../../../psp/lib\libstdc++.a(new_op.o) (__cxa_allocate_exception)
c:/pspsdk/bin/../lib/gcc/psp/4.3.5/../../../../psp/lib\libstdc++.a(eh_globals.o)
                              c:/pspsdk/bin/../lib/gcc/psp/4.3.5/../../../../psp/lib\libstdc++.a(eh_alloc.o) (__cxa_get_globals)
c:/pspsdk/bin/../lib/gcc/psp/4.3.5/../../../../psp/lib\libstdc++.a(eh_personality.o)
                              c:/pspsdk/bin/../lib/gcc/psp/4.3.5/../../../../psp/lib\libstdc++.a(new_op.o) (__cxa_call_unexpected)
c:/pspsdk/bin/../lib/gcc/psp/4.3.5/../../../../psp/lib\libstdc++.a(eh_terminate.o)
                              c:/pspsdk/bin/../lib/gcc/psp/4.3.5/../../../../psp/lib\libstdc++.a(eh_personality.o) (__cxxabiv1::__terminate(void (*)()))
c:/pspsdk/bin/../lib/gcc/psp/4.3.5/../../../../psp/lib\libstdc++.a(eh_term_handler.o)
                              c:/pspsdk/bin/../lib/gcc/psp/4.3.5/../../../../psp/lib\libstdc++.a(eh_terminate.o) (__cxxabiv1::__terminate_handler)
c:/pspsdk/bin/../lib/gcc/psp/4.3.5/../../../../psp/lib\libstdc++.a(eh_throw.o)
                              c:/pspsdk/bin/../lib/gcc/psp/4.3.5/../../../../psp/lib\libstdc++.a(eh_personality.o) (__cxa_rethrow)
c:/pspsdk/bin/../lib/gcc/psp/4.3.5/../../../../psp/lib\libstdc++.a(eh_unex_handler.o)
                              c:/pspsdk/bin/../lib/gcc/psp/4.3.5/../../../../psp/lib\libstdc++.a(eh_terminate.o) (__cxxabiv1::__unexpected_handler)
c:/pspsdk/bin/../lib/gcc/psp/4.3.5/../../../../psp/lib\libstdc++.a(new_handler.o)
                              c:/pspsdk/bin/../lib/gcc/psp/4.3.5/../../../../psp/lib\libstdc++.a(new_op.o) (__new_handler)
c:/pspsdk/bin/../lib/gcc/psp/4.3.5/../../../../psp/lib\libstdc++.a(si_class_type_info.o)
                              c:/pspsdk/bin/../lib/gcc/psp/4.3.5/../../../../psp/lib\libstdc++.a(new_handler.o) (vtable for __cxxabiv1::__si_class_type_info)
c:/pspsdk/bin/../lib/gcc/psp/4.3.5/../../../../psp/lib\libstdc++.a(tinfo.o)
                              c:/pspsdk/bin/../lib/gcc/psp/4.3.5/../../../../psp/lib\libstdc++.a(si_class_type_info.o) (std::type_info::__is_pointer_p() const)
c:/pspsdk/bin/../lib/gcc/psp/4.3.5/../../../../psp/lib\libstdc++.a(vterminate.o)
                              c:/pspsdk/bin/../lib/gcc/psp/4.3.5/../../../../psp/lib\libstdc++.a(eh_term_handler.o) (__gnu_cxx::__verbose_terminate_handler())
c:/pspsdk/bin/../lib/gcc/psp/4.3.5/../../../../psp/lib\libstdc++.a(class_type_info.o)
                              c:/pspsdk/bin/../lib/gcc/psp/4.3.5/../../../../psp/lib\libstdc++.a(si_class_type_info.o) (__cxxabiv1::__class_type_info::__do_catch(std::type_info const*, void**, unsigned int) const)
c:/pspsdk/bin/../lib/gcc/psp/4.3.5/../../../../psp/lib\libstdc++.a(cp-demangle.o)
                              c:/pspsdk/bin/../lib/gcc/psp/4.3.5/../../../../psp/lib\libstdc++.a(vterminate.o) (__cxa_demangle)
c:/pspsdk/bin/../lib/gcc/psp/4.3.5/../../../../psp/lib\libstdc++.a(eh_call.o)
                              c:/pspsdk/bin/../lib/gcc/psp/4.3.5/../../../../psp/lib\libstdc++.a(eh_personality.o) (__cxa_call_terminate)
c:/pspsdk/bin/../lib/gcc/psp/4.3.5/../../../../psp/lib\libstdc++.a(eh_catch.o)
                              c:/pspsdk/bin/../lib/gcc/psp/4.3.5/../../../../psp/lib\libstdc++.a(eh_personality.o) (__cxa_end_catch)
c:/pspsdk/bin/../lib/gcc/psp/4.3.5/../../../../psp/lib\libstdc++.a(eh_exception.o)
                              c:/pspsdk/bin/../lib/gcc/psp/4.3.5/../../../../psp/lib\libstdc++.a(new_handler.o) (std::exception::~exception())
c:/pspsdk/bin/../lib/gcc/psp/4.3.5/../../../../psp/lib\libstdc++.a(eh_type.o)
                              c:/pspsdk/bin/../lib/gcc/psp/4.3.5/../../../../psp/lib\libstdc++.a(vterminate.o) (__cxa_current_exception_type)
c:/pspsdk/bin/../lib/gcc/psp/4.3.5/../../../../psp/lib\libstdc++.a(pure.o)
                              c:/pspsdk/bin/../lib/gcc/psp/4.3.5/../../../../psp/lib\libstdc++.a(eh_exception.o) (__cxa_pure_virtual)
c:/pspsdk/bin/../lib/gcc/psp/4.3.5/../../../../psp/lib\libm.a(lib_a-s_ceil.o)
                              psp/gym/gym_play.o (ceil)
c:/pspsdk/bin/../lib/gcc/psp/4.3.5/../../../../psp/lib\libm.a(lib_a-s_floor.o)
                              sound/ym2413.o (floor)
c:/pspsdk/bin/../lib/gcc/psp/4.3.5/../../../../psp/lib\libm.a(lib_a-s_log.o)
                              sound/emu2413.o (log)
c:/pspsdk/bin/../lib/gcc/psp/4.3.5/../../../../psp/lib\libm.a(lib_a-s_log10.o)
                              sound/emu2413.o (log10)
c:/pspsdk/bin/../lib/gcc/psp/4.3.5/../../../../psp/lib\libm.a(lib_a-s_logarithm.o)
                              c:/pspsdk/bin/../lib/gcc/psp/4.3.5/../../../../psp/lib\libm.a(lib_a-s_log.o) (logarithm)
c:/pspsdk/bin/../lib/gcc/psp/4.3.5/../../../../psp/lib\libm.a(lib_a-s_mathcnst.o)
                              c:/pspsdk/bin/../lib/gcc/psp/4.3.5/../../../../psp/lib\libm.a(lib_a-s_logarithm.o) (z_infinity)
c:/pspsdk/bin/../lib/gcc/psp/4.3.5/../../../../psp/lib\libm.a(lib_a-s_modf.o)
                              c:/pspsdk/bin/../lib/gcc/psp/4.3.5/../../../../psp/lib\libm.a(lib_a-s_ceil.o) (modf)
c:/pspsdk/bin/../lib/gcc/psp/4.3.5/../../../../psp/lib\libm.a(lib_a-s_pow.o)
                              sound/emu2413.o (pow)
c:/pspsdk/bin/../lib/gcc/psp/4.3.5/../../../../psp/lib\libm.a(lib_a-s_sin.o)
                              sound/emu2413.o (sin)
c:/pspsdk/bin/../lib/gcc/psp/4.3.5/../../../../psp/lib\libm.a(lib_a-s_sine.o)
                              c:/pspsdk/bin/../lib/gcc/psp/4.3.5/../../../../psp/lib\libm.a(lib_a-s_sin.o) (sine)
c:/pspsdk/bin/../lib/gcc/psp/4.3.5/../../../../psp/lib\libm.a(lib_a-s_sqrt.o)
                              psp/vgm/In_vgm.o (sqrt)
c:/pspsdk/bin/../lib/gcc/psp/4.3.5/../../../../psp/lib\libm.a(lib_a-s_exp.o)
                              c:/pspsdk/bin/../lib/gcc/psp/4.3.5/../../../../psp/lib\libm.a(lib_a-s_pow.o) (exp)
c:/pspsdk/bin/../lib/gcc/psp/4.3.5/../../../../psp/lib\libm.a(lib_a-s_fabs.o)
                              c:/pspsdk/bin/../lib/gcc/psp/4.3.5/../../../../psp/lib\libm.a(lib_a-s_pow.o) (fabs)
c:/pspsdk/bin/../lib/gcc/psp/4.3.5/../../../../psp/lib\libm.a(lib_a-s_fpclassify.o)
                              c:/pspsdk/bin/../lib/gcc/psp/4.3.5/../../../../psp/lib\libm.a(lib_a-s_logarithm.o) (__fpclassifyd)
c:/pspsdk/bin/../lib/gcc/psp/4.3.5/../../../../psp/lib\libm.a(lib_a-s_frexp.o)
                              c:/pspsdk/bin/../lib/gcc/psp/4.3.5/../../../../psp/lib\libm.a(lib_a-s_logarithm.o) (frexp)
c:/pspsdk/bin/../lib/gcc/psp/4.3.5/../../../../psp/lib\libm.a(lib_a-s_ispos.o)
                              c:/pspsdk/bin/../lib/gcc/psp/4.3.5/../../../../psp/lib\libm.a(lib_a-s_sqrt.o) (ispos)
c:/pspsdk/bin/../lib/gcc/psp/4.3.5/../../../../psp/lib\libm.a(lib_a-s_ldexp.o)
                              c:/pspsdk/bin/../lib/gcc/psp/4.3.5/../../../../psp/lib\libm.a(lib_a-s_pow.o) (ldexp)
c:/pspsdk/bin/../lib/gcc/psp/4.3.5/../../../../psp/lib\libm.a(lib_a-s_numtest.o)
                              c:/pspsdk/bin/../lib/gcc/psp/4.3.5/../../../../psp/lib\libm.a(lib_a-s_sine.o) (numtest)
c:/pspsdk/psp/sdk/lib\libpspdisplay.a(sceDisplay_0001.o)
                              c:/pspsdk/psp/sdk/lib\libpspgu.a(sceGuDispBuffer.o) (sceDisplaySetMode)
c:/pspsdk/psp/sdk/lib\libpspdisplay.a(sceDisplay_0006.o)
                              c:/pspsdk/psp/sdk/lib\libpspgu.a(sceGuDispBuffer.o) (sceDisplaySetFrameBuf)
c:/pspsdk/psp/sdk/lib\libpspdisplay.a(sceDisplay_0014.o)
                              c:/pspsdk/bin/../lib/gcc/psp/4.3.5/../../../../psp/lib\libosl.a(oslib.o) (sceDisplayWaitVblankStart)
c:/pspsdk/psp/sdk/lib\libpspdisplay.a(sceDisplay_0000.o)
                              c:/pspsdk/psp/sdk/lib\libpspdisplay.a(sceDisplay_0001.o) (__stub_module_sceDisplay)
c:/pspsdk/psp/sdk/lib\libpspge.a(sceGe_user_0002.o)
                              c:/pspsdk/psp/sdk/lib\libpspgu.a(sceGuInit.o) (sceGeEdramGetAddr)
c:/pspsdk/psp/sdk/lib\libpspge.a(sceGe_user_0008.o)
                              c:/pspsdk/psp/sdk/lib\libpspgu.a(sceGuInit.o) (sceGeListEnQueue)
c:/pspsdk/psp/sdk/lib\libpspge.a(sceGe_user_0011.o)
                              c:/pspsdk/psp/sdk/lib\libpspgu.a(sceGuGetMemory.o) (sceGeListUpdateStallAddr)
c:/pspsdk/psp/sdk/lib\libpspge.a(sceGe_user_0012.o)
                              c:/pspsdk/psp/sdk/lib\libpspgu.a(sceGuInit.o) (sceGeListSync)
c:/pspsdk/psp/sdk/lib\libpspge.a(sceGe_user_0013.o)
                              c:/pspsdk/psp/sdk/lib\libpspgu.a(sceGuSync.o) (sceGeDrawSync)
c:/pspsdk/psp/sdk/lib\libpspge.a(sceGe_user_0016.o)
                              c:/pspsdk/psp/sdk/lib\libpspgu.a(sceGuInit.o) (sceGeSetCallback)
c:/pspsdk/psp/sdk/lib\libpspge.a(sceGe_user_0017.o)
                              c:/pspsdk/psp/sdk/lib\libpspgu.a(sceGuTerm.o) (sceGeUnsetCallback)
c:/pspsdk/psp/sdk/lib\libpspge.a(sceGe_user_0000.o)
                              c:/pspsdk/psp/sdk/lib\libpspge.a(sceGe_user_0002.o) (__stub_module_sceGe_user)
c:/pspsdk/bin/../lib/gcc/psp/4.3.5/../../../../psp/lib\libc.a(fprintf.o)
                              psp/gym/bzlib/blocksort.o (fprintf)
c:/pspsdk/bin/../lib/gcc/psp/4.3.5/../../../../psp/lib\libc.a(lib_a-abort.o)
                              c:/pspsdk/bin/../lib/gcc/psp/4.3.5/../../../../psp/lib\libpng.a(pngread.o) (abort)
c:/pspsdk/bin/../lib/gcc/psp/4.3.5/../../../../psp/lib\libc.a(lib_a-atexit.o)
                              c:/pspsdk/bin/../lib/gcc/psp/4.3.5/../../../../psp/lib/crt0.o (atexit)
c:/pspsdk/bin/../lib/gcc/psp/4.3.5/../../../../psp/lib\libc.a(lib_a-atof.o)
                              psp/config.o (atof)
c:/pspsdk/bin/../lib/gcc/psp/4.3.5/../../../../psp/lib\libc.a(lib_a-atoi.o)
                              psp/config.o (atoi)
c:/pspsdk/bin/../lib/gcc/psp/4.3.5/../../../../psp/lib\libc.a(lib_a-calloc.o)
                              sound/emu2413.o (calloc)
c:/pspsdk/bin/../lib/gcc/psp/4.3.5/../../../../psp/lib\libc.a(lib_a-callocr.o)
                              c:/pspsdk/bin/../lib/gcc/psp/4.3.5/../../../../psp/lib\libc.a(lib_a-calloc.o) (_calloc_r)
c:/pspsdk/bin/../lib/gcc/psp/4.3.5/../../../../psp/lib\libc.a(lib_a-ctype_.o)
                              gbcore/cheat.o (__ctype_ptr__)
c:/pspsdk/bin/../lib/gcc/psp/4.3.5/../../../../psp/lib\libc.a(lib_a-errno.o)
                              psp/gzio.o (__errno)
c:/pspsdk/bin/../lib/gcc/psp/4.3.5/../../../../psp/lib\libc.a(lib_a-exit.o)
                              c:/pspsdk/bin/../lib/gcc/psp/4.3.5/../../../../psp/lib/crt0.o (exit)
c:/pspsdk/bin/../lib/gcc/psp/4.3.5/../../../../psp/lib\libc.a(lib_a-fclose.o)
                              psp/sound.o (fclose)
c:/pspsdk/bin/../lib/gcc/psp/4.3.5/../../../../psp/lib\libc.a(lib_a-fdopen.o)
                              psp/gym/bzlib/bzlib.o (fdopen)
c:/pspsdk/bin/../lib/gcc/psp/4.3.5/../../../../psp/lib\libc.a(lib_a-fflush.o)
                              c:/pspsdk/bin/../lib/gcc/psp/4.3.5/../../../../psp/lib\libc.a(lib_a-fclose.o) (_fflush_r)
c:/pspsdk/bin/../lib/gcc/psp/4.3.5/../../../../psp/lib\libc.a(lib_a-fgetc.o)
                              psp/gym/bzlib/bzlib.o (fgetc)
c:/pspsdk/bin/../lib/gcc/psp/4.3.5/../../../../psp/lib\libc.a(lib_a-fgets.o)
                              gbcore/cheat.o (fgets)
c:/pspsdk/bin/../lib/gcc/psp/4.3.5/../../../../psp/lib\libc.a(lib_a-findfp.o)
                              c:/pspsdk/bin/../lib/gcc/psp/4.3.5/../../../../psp/lib\libc.a(lib_a-fclose.o) (__sfp_lock_acquire)
c:/pspsdk/bin/../lib/gcc/psp/4.3.5/../../../../psp/lib\libc.a(lib_a-flags.o)
                              c:/pspsdk/bin/../lib/gcc/psp/4.3.5/../../../../psp/lib\libc.a(lib_a-fdopen.o) (__sflags)
c:/pspsdk/bin/../lib/gcc/psp/4.3.5/../../../../psp/lib\libc.a(lib_a-fmemopen.o)
                              c:/pspsdk/bin/../lib/gcc/psp/4.3.5/../../../../psp/lib\libosl.a(intraFont.o) (fmemopen)
c:/pspsdk/bin/../lib/gcc/psp/4.3.5/../../../../psp/lib\libc.a(lib_a-fopen.o)
                              fileio.o (fopen)
c:/pspsdk/bin/../lib/gcc/psp/4.3.5/../../../../psp/lib\libc.a(lib_a-fputc.o)
                              psp/gym/bzlib/bzlib.o (fputc)
c:/pspsdk/bin/../lib/gcc/psp/4.3.5/../../../../psp/lib\libc.a(lib_a-fputs.o)
                              c:/pspsdk/bin/../lib/gcc/psp/4.3.5/../../../../psp/lib\libstdc++.a(vterminate.o) (fputs)
c:/pspsdk/bin/../lib/gcc/psp/4.3.5/../../../../psp/lib\libc.a(lib_a-fread.o)
                              fileio.o (fread)
c:/pspsdk/bin/../lib/gcc/psp/4.3.5/../../../../psp/lib\libc.a(lib_a-freer.o)
                              c:/pspsdk/bin/../lib/gcc/psp/4.3.5/../../../../psp/lib\libc.a(lib_a-fclose.o) (_free_r)
c:/pspsdk/bin/../lib/gcc/psp/4.3.5/../../../../psp/lib\libc.a(lib_a-fseek.o)
                              c:/pspsdk/bin/../lib/gcc/psp/4.3.5/../../../../psp/lib\libc.a(lib_a-fopen.o) (_fseek_r)
c:/pspsdk/bin/../lib/gcc/psp/4.3.5/../../../../psp/lib\libc.a(lib_a-fstatr.o)
                              c:/pspsdk/bin/../lib/gcc/psp/4.3.5/../../../../psp/lib\libc.a(lib_a-fseek.o) (_fstat_r)
c:/pspsdk/bin/../lib/gcc/psp/4.3.5/../../../../psp/lib\libc.a(lib_a-ftell.o)
                              loadrom.o (ftell)
c:/pspsdk/bin/../lib/gcc/psp/4.3.5/../../../../psp/lib\libc.a(lib_a-fvwrite.o)
                              c:/pspsdk/bin/../lib/gcc/psp/4.3.5/../../../../psp/lib\libc.a(lib_a-fputs.o) (__sfvwrite_r)
c:/pspsdk/bin/../lib/gcc/psp/4.3.5/../../../../psp/lib\libc.a(lib_a-fwalk.o)
                              c:/pspsdk/bin/../lib/gcc/psp/4.3.5/../../../../psp/lib\libc.a(lib_a-fflush.o) (_fwalk_reent)
c:/pspsdk/bin/../lib/gcc/psp/4.3.5/../../../../psp/lib\libc.a(lib_a-fwrite.o)
                              unzip/ioapi.o (fwrite)
c:/pspsdk/bin/../lib/gcc/psp/4.3.5/../../../../psp/lib\libc.a(lib_a-getenv.o)
                              c:/pspsdk/bin/../lib/gcc/psp/4.3.5/../../../../psp/lib\libjpeg.a(jmemmgr.o) (getenv)
c:/pspsdk/bin/../lib/gcc/psp/4.3.5/../../../../psp/lib\libc.a(lib_a-getenv_r.o)
                              c:/pspsdk/bin/../lib/gcc/psp/4.3.5/../../../../psp/lib\libc.a(lib_a-getenv.o) (_findenv_r)
c:/pspsdk/bin/../lib/gcc/psp/4.3.5/../../../../psp/lib\libc.a(lib_a-gmtime.o)
                              c:/pspsdk/bin/../lib/gcc/psp/4.3.5/../../../../psp/lib\libpng.a(pngwrite.o) (gmtime)
c:/pspsdk/bin/../lib/gcc/psp/4.3.5/../../../../psp/lib\libc.a(lib_a-gmtime_r.o)
                              c:/pspsdk/bin/../lib/gcc/psp/4.3.5/../../../../psp/lib\libc.a(lib_a-gmtime.o) (gmtime_r)
c:/pspsdk/bin/../lib/gcc/psp/4.3.5/../../../../psp/lib\libc.a(lib_a-impure.o)
                              psp/gym/bzlib/blocksort.o (_impure_ptr)
c:/pspsdk/bin/../lib/gcc/psp/4.3.5/../../../../psp/lib\libc.a(lib_a-iprintf.o)
                              psp/deflate.o (iprintf)
c:/pspsdk/bin/../lib/gcc/psp/4.3.5/../../../../psp/lib\libc.a(lib_a-lcltime.o)
                              psp/menuplus.o (localtime)
c:/pspsdk/bin/../lib/gcc/psp/4.3.5/../../../../psp/lib\libc.a(lib_a-lcltime_r.o)
                              c:/pspsdk/bin/../lib/gcc/psp/4.3.5/../../../../psp/lib\libc.a(lib_a-lcltime.o) (localtime_r)
c:/pspsdk/bin/../lib/gcc/psp/4.3.5/../../../../psp/lib\libc.a(lib_a-makebuf.o)
                              c:/pspsdk/bin/../lib/gcc/psp/4.3.5/../../../../psp/lib\libc.a(lib_a-fseek.o) (__smakebuf_r)
c:/pspsdk/bin/../lib/gcc/psp/4.3.5/../../../../psp/lib\libc.a(lib_a-malign.o)
                              c:/pspsdk/bin/../lib/gcc/psp/4.3.5/../../../../psp/lib\libosl.a(drawing.o) (memalign)
c:/pspsdk/bin/../lib/gcc/psp/4.3.5/../../../../psp/lib\libc.a(lib_a-malignr.o)
                              c:/pspsdk/bin/../lib/gcc/psp/4.3.5/../../../../psp/lib\libc.a(lib_a-malign.o) (_memalign_r)
c:/pspsdk/bin/../lib/gcc/psp/4.3.5/../../../../psp/lib\libc.a(lib_a-malloc.o)
                              cpu/z80.o (free)
c:/pspsdk/bin/../lib/gcc/psp/4.3.5/../../../../psp/lib\libc.a(lib_a-mallocr.o)
                              c:/pspsdk/bin/../lib/gcc/psp/4.3.5/../../../../psp/lib\libc.a(lib_a-callocr.o) (_malloc_r)
c:/pspsdk/bin/../lib/gcc/psp/4.3.5/../../../../psp/lib\libc.a(lib_a-memchr.o)
                              c:/pspsdk/bin/../lib/gcc/psp/4.3.5/../../../../psp/lib\libc.a(lib_a-fgets.o) (memchr)
c:/pspsdk/bin/../lib/gcc/psp/4.3.5/../../../../psp/lib\libc.a(lib_a-memcmp.o)
                              gbcore/rom.o (memcmp)
c:/pspsdk/bin/../lib/gcc/psp/4.3.5/../../../../psp/lib\libc.a(lib_a-memcpy.o)
                              gbcore/gb.o (memcpy)
c:/pspsdk/bin/../lib/gcc/psp/4.3.5/../../../../psp/lib\libc.a(lib_a-memmove.o)
                              psp/menuplus2.o (memmove)
c:/pspsdk/bin/../lib/gcc/psp/4.3.5/../../../../psp/lib\libc.a(lib_a-memset.o)
                              gbcore/apu.o (memset)
c:/pspsdk/bin/../lib/gcc/psp/4.3.5/../../../../psp/lib\libc.a(lib_a-mktm_r.o)
                              c:/pspsdk/bin/../lib/gcc/psp/4.3.5/../../../../psp/lib\libc.a(lib_a-gmtime_r.o) (_mktm_r)
c:/pspsdk/bin/../lib/gcc/psp/4.3.5/../../../../psp/lib\libc.a(lib_a-mlock.o)
                              c:/pspsdk/bin/../lib/gcc/psp/4.3.5/../../../../psp/lib\libc.a(lib_a-freer.o) (__malloc_lock)
c:/pspsdk/bin/../lib/gcc/psp/4.3.5/../../../../psp/lib\libc.a(lib_a-openr.o)
                              c:/pspsdk/bin/../lib/gcc/psp/4.3.5/../../../../psp/lib\libc.a(lib_a-fopen.o) (_open_r)
c:/pspsdk/bin/../lib/gcc/psp/4.3.5/../../../../psp/lib\libc.a(lib_a-putc.o)
                              c:/pspsdk/bin/../lib/gcc/psp/4.3.5/../../../../psp/lib\libc.a(lib_a-fputc.o) (_putc_r)
c:/pspsdk/bin/../lib/gcc/psp/4.3.5/../../../../psp/lib\libc.a(lib_a-rand.o)
                              psp/sound.o (srand)
c:/pspsdk/bin/../lib/gcc/psp/4.3.5/../../../../psp/lib\libc.a(lib_a-realloc.o)
                              psp/menuplus2.o (realloc)
c:/pspsdk/bin/../lib/gcc/psp/4.3.5/../../../../psp/lib\libc.a(lib_a-reallocr.o)
                              c:/pspsdk/bin/../lib/gcc/psp/4.3.5/../../../../psp/lib\libc.a(lib_a-fvwrite.o) (_realloc_r)
c:/pspsdk/bin/../lib/gcc/psp/4.3.5/../../../../psp/lib\libc.a(lib_a-reent.o)
                              c:/pspsdk/bin/../lib/gcc/psp/4.3.5/../../../../psp/lib\libc.a(lib_a-fstatr.o) (errno)
c:/pspsdk/bin/../lib/gcc/psp/4.3.5/../../../../psp/lib\libc.a(lib_a-refill.o)
                              c:/pspsdk/bin/../lib/gcc/psp/4.3.5/../../../../psp/lib\libc.a(lib_a-fgets.o) (__srefill_r)
c:/pspsdk/bin/../lib/gcc/psp/4.3.5/../../../../psp/lib\libc.a(lib_a-rget.o)
                              c:/pspsdk/bin/../lib/gcc/psp/4.3.5/../../../../psp/lib\libc.a(lib_a-fgetc.o) (__srget_r)
c:/pspsdk/bin/../lib/gcc/psp/4.3.5/../../../../psp/lib\libc.a(lib_a-sbrkr.o)
                              c:/pspsdk/bin/../lib/gcc/psp/4.3.5/../../../../psp/lib\libc.a(lib_a-freer.o) (_sbrk_r)
c:/pspsdk/bin/../lib/gcc/psp/4.3.5/../../../../psp/lib\libc.a(lib_a-setjmp.o)
                              c:/pspsdk/bin/../lib/gcc/psp/4.3.5/../../../../psp/lib\libosl.a(oslLoadImageFilePNG.o) (setjmp)
c:/pspsdk/bin/../lib/gcc/psp/4.3.5/../../../../psp/lib\libc.a(lib_a-signal.o)
                              cpu/z80.o (raise)
c:/pspsdk/bin/../lib/gcc/psp/4.3.5/../../../../psp/lib\libc.a(lib_a-signalr.o)
                              c:/pspsdk/bin/../lib/gcc/psp/4.3.5/../../../../psp/lib\libc.a(lib_a-signal.o) (_getpid_r)
c:/pspsdk/bin/../lib/gcc/psp/4.3.5/../../../../psp/lib\libc.a(lib_a-snprintf.o)
                              c:/pspsdk/psp/sdk/lib\libpspsdk.a(loadmodule.o) (snprintf)
c:/pspsdk/bin/../lib/gcc/psp/4.3.5/../../../../psp/lib\libc.a(lib_a-sprintf.o)
                              gbcore/gb.o (sprintf)
c:/pspsdk/bin/../lib/gcc/psp/4.3.5/../../../../psp/lib\libc.a(lib_a-sscanf.o)
                              c:/pspsdk/bin/../lib/gcc/psp/4.3.5/../../../../psp/lib\libjpeg.a(jmemmgr.o) (sscanf)
c:/pspsdk/bin/../lib/gcc/psp/4.3.5/../../../../psp/lib\libc.a(lib_a-stdio.o)
                              c:/pspsdk/bin/../lib/gcc/psp/4.3.5/../../../../psp/lib\libc.a(lib_a-sscanf.o) (__seofread)
c:/pspsdk/bin/../lib/gcc/psp/4.3.5/../../../../psp/lib\libc.a(lib_a-strcasecmp.o)
                              psp/menuplus2.o (strcasecmp)
c:/pspsdk/bin/../lib/gcc/psp/4.3.5/../../../../psp/lib\libc.a(lib_a-strcat.o)
                              psp/menuplus2.o (strcat)
c:/pspsdk/bin/../lib/gcc/psp/4.3.5/../../../../psp/lib\libc.a(lib_a-strchr.o)
                              psp/sound.o (strchr)
c:/pspsdk/bin/../lib/gcc/psp/4.3.5/../../../../psp/lib\libc.a(lib_a-strcmp.o)
                              psp/SMS.o (strcmp)
c:/pspsdk/bin/../lib/gcc/psp/4.3.5/../../../../psp/lib\libc.a(lib_a-strcpy.o)
                              gbcore/cheat.o (strcpy)
c:/pspsdk/bin/../lib/gcc/psp/4.3.5/../../../../psp/lib\libc.a(lib_a-strerror.o)
                              psp/gzio.o (strerror)
c:/pspsdk/bin/../lib/gcc/psp/4.3.5/../../../../psp/lib\libc.a(lib_a-strlen.o)
                              c:/pspsdk/bin/../lib/gcc/psp/4.3.5/../../../../psp/lib/crt0.o (strlen)
c:/pspsdk/bin/../lib/gcc/psp/4.3.5/../../../../psp/lib\libc.a(lib_a-strncmp.o)
                              psp/menuplus2.o (strncmp)
c:/pspsdk/bin/../lib/gcc/psp/4.3.5/../../../../psp/lib\libc.a(lib_a-strncpy.o)
                              c:/pspsdk/bin/../lib/gcc/psp/4.3.5/../../../../psp/lib\libpng.a(pngerror.o) (strncpy)
c:/pspsdk/bin/../lib/gcc/psp/4.3.5/../../../../psp/lib\libc.a(lib_a-strrchr.o)
                              psp/menuplus2.o (strrchr)
c:/pspsdk/bin/../lib/gcc/psp/4.3.5/../../../../psp/lib\libc.a(lib_a-strtod.o)
                              c:/pspsdk/bin/../lib/gcc/psp/4.3.5/../../../../psp/lib\libpng.a(pngrutil.o) (strtod)
c:/pspsdk/bin/../lib/gcc/psp/4.3.5/../../../../psp/lib\libc.a(lib_a-strtol.o)
                              c:/pspsdk/bin/../lib/gcc/psp/4.3.5/../../../../psp/lib\libc.a(lib_a-atoi.o) (_strtol_r)
c:/pspsdk/bin/../lib/gcc/psp/4.3.5/../../../../psp/lib\libc.a(lib_a-svfprintf.o)
                              c:/pspsdk/bin/../lib/gcc/psp/4.3.5/../../../../psp/lib\libc.a(lib_a-snprintf.o) (_svfprintf_r)
c:/pspsdk/bin/../lib/gcc/psp/4.3.5/../../../../psp/lib\libc.a(lib_a-svfscanf.o)
                              c:/pspsdk/bin/../lib/gcc/psp/4.3.5/../../../../psp/lib\libc.a(lib_a-sscanf.o) (__ssvfscanf_r)
c:/pspsdk/bin/../lib/gcc/psp/4.3.5/../../../../psp/lib\libc.a(lib_a-sysgettod.o)
                              c:/pspsdk/bin/../lib/gcc/psp/4.3.5/../../../../psp/lib\libosl.a(oslib.o) (gettimeofday)
c:/pspsdk/bin/../lib/gcc/psp/4.3.5/../../../../psp/lib\libc.a(lib_a-syswrite.o)
                              c:/pspsdk/bin/../lib/gcc/psp/4.3.5/../../../../psp/lib\libstdc++.a(pure.o) (write)
c:/pspsdk/bin/../lib/gcc/psp/4.3.5/../../../../psp/lib\libc.a(lib_a-time.o)
                              psp/gameboy_render.o (time)
c:/pspsdk/bin/../lib/gcc/psp/4.3.5/../../../../psp/lib\libc.a(lib_a-tzlock.o)
                              c:/pspsdk/bin/../lib/gcc/psp/4.3.5/../../../../psp/lib\libc.a(lib_a-mktm_r.o) (__tz_lock)
c:/pspsdk/bin/../lib/gcc/psp/4.3.5/../../../../psp/lib\libc.a(lib_a-tzvars.o)
                              c:/pspsdk/bin/../lib/gcc/psp/4.3.5/../../../../psp/lib\libc.a(lib_a-mktm_r.o) (_daylight)
c:/pspsdk/bin/../lib/gcc/psp/4.3.5/../../../../psp/lib\libc.a(lib_a-u_strerr.o)
                              c:/pspsdk/bin/../lib/gcc/psp/4.3.5/../../../../psp/lib\libc.a(lib_a-strerror.o) (_user_strerror)
c:/pspsdk/bin/../lib/gcc/psp/4.3.5/../../../../psp/lib\libc.a(lib_a-ungetc.o)
                              psp/gym/bzlib/bzlib.o (ungetc)
c:/pspsdk/bin/../lib/gcc/psp/4.3.5/../../../../psp/lib\libc.a(lib_a-vfiprintf.o)
                              c:/pspsdk/bin/../lib/gcc/psp/4.3.5/../../../../psp/lib\libc.a(lib_a-iprintf.o) (_vfiprintf_r)
c:/pspsdk/bin/../lib/gcc/psp/4.3.5/../../../../psp/lib\libc.a(lib_a-vsnprintf.o)
                              psp/gzio.o (vsnprintf)
c:/pspsdk/bin/../lib/gcc/psp/4.3.5/../../../../psp/lib\libc.a(lib_a-wbuf.o)
                              c:/pspsdk/bin/../lib/gcc/psp/4.3.5/../../../../psp/lib\libc.a(lib_a-putc.o) (__swbuf_r)
c:/pspsdk/bin/../lib/gcc/psp/4.3.5/../../../../psp/lib\libc.a(lib_a-writer.o)
                              c:/pspsdk/bin/../lib/gcc/psp/4.3.5/../../../../psp/lib\libc.a(lib_a-stdio.o) (_write_r)
c:/pspsdk/bin/../lib/gcc/psp/4.3.5/../../../../psp/lib\libc.a(lib_a-wsetup.o)
                              c:/pspsdk/bin/../lib/gcc/psp/4.3.5/../../../../psp/lib\libc.a(lib_a-fvwrite.o) (__swsetup_r)
c:/pspsdk/bin/../lib/gcc/psp/4.3.5/../../../../psp/lib\libc.a(vxprintf.o)
                              c:/pspsdk/bin/../lib/gcc/psp/4.3.5/../../../../psp/lib\libc.a(fprintf.o) (vxprintf)
c:/pspsdk/bin/../lib/gcc/psp/4.3.5/../../../../psp/lib\libc.a(__fout.o)
                              c:/pspsdk/bin/../lib/gcc/psp/4.3.5/../../../../psp/lib\libc.a(fprintf.o) (__fout)
c:/pspsdk/bin/../lib/gcc/psp/4.3.5/../../../../psp/lib\libc.a(_exit.o)
                              c:/pspsdk/bin/../lib/gcc/psp/4.3.5/../../../../psp/lib\libc.a(lib_a-abort.o) (_exit)
c:/pspsdk/bin/../lib/gcc/psp/4.3.5/../../../../psp/lib\libc.a(_fstat.o)
                              c:/pspsdk/bin/../lib/gcc/psp/4.3.5/../../../../psp/lib\libc.a(lib_a-fstatr.o) (_fstat)
c:/pspsdk/bin/../lib/gcc/psp/4.3.5/../../../../psp/lib\libc.a(_getpid.o)
                              c:/pspsdk/bin/../lib/gcc/psp/4.3.5/../../../../psp/lib\libc.a(lib_a-signalr.o) (_getpid)
c:/pspsdk/bin/../lib/gcc/psp/4.3.5/../../../../psp/lib\libc.a(_kill.o)
                              c:/pspsdk/bin/../lib/gcc/psp/4.3.5/../../../../psp/lib\libc.a(lib_a-signalr.o) (_kill)
c:/pspsdk/bin/../lib/gcc/psp/4.3.5/../../../../psp/lib\libc.a(_open.o)
                              c:/pspsdk/bin/../lib/gcc/psp/4.3.5/../../../../psp/lib\libc.a(lib_a-openr.o) (_open)
c:/pspsdk/bin/../lib/gcc/psp/4.3.5/../../../../psp/lib\libc.a(_sbrk.o)
                              c:/pspsdk/bin/../lib/gcc/psp/4.3.5/../../../../psp/lib\libc.a(_exit.o) (__psp_free_heap)
c:/pspsdk/bin/../lib/gcc/psp/4.3.5/../../../../psp/lib\libc.a(_write.o)
                              c:/pspsdk/bin/../lib/gcc/psp/4.3.5/../../../../psp/lib\libc.a(lib_a-writer.o) (_write)
c:/pspsdk/bin/../lib/gcc/psp/4.3.5/../../../../psp/lib\libc.a(fdman.o)
                              c:/pspsdk/bin/../lib/gcc/psp/4.3.5/../../../../psp/lib\libc.a(_fstat.o) (__psp_descriptormap)
c:/pspsdk/bin/../lib/gcc/psp/4.3.5/../../../../psp/lib\libc.a(interrupt.o)
                              c:/pspsdk/bin/../lib/gcc/psp/4.3.5/../../../../psp/lib\libc.a(fdman.o) (pspDisableInterrupts)
c:/pspsdk/bin/../lib/gcc/psp/4.3.5/../../../../psp/lib\libc.a(isatty.o)
                              c:/pspsdk/bin/../lib/gcc/psp/4.3.5/../../../../psp/lib\libc.a(lib_a-makebuf.o) (_isatty_r)
c:/pspsdk/bin/../lib/gcc/psp/4.3.5/../../../../psp/lib\libc.a(lib_a-__atexit.o)
                              c:/pspsdk/bin/../lib/gcc/psp/4.3.5/../../../../psp/lib\libc.a(lib_a-atexit.o) (__register_exitproc)
c:/pspsdk/bin/../lib/gcc/psp/4.3.5/../../../../psp/lib\libc.a(lib_a-__call_atexit.o)
                              c:/pspsdk/bin/../lib/gcc/psp/4.3.5/../../../../psp/lib\libc.a(lib_a-exit.o) (__call_exitprocs)
c:/pspsdk/bin/../lib/gcc/psp/4.3.5/../../../../psp/lib\libc.a(lib_a-closer.o)
                              c:/pspsdk/bin/../lib/gcc/psp/4.3.5/../../../../psp/lib\libc.a(lib_a-stdio.o) (_close_r)
c:/pspsdk/bin/../lib/gcc/psp/4.3.5/../../../../psp/lib\libc.a(lib_a-dtoa.o)
                              c:/pspsdk/bin/../lib/gcc/psp/4.3.5/../../../../psp/lib\libc.a(lib_a-svfprintf.o) (_dtoa_r)
c:/pspsdk/bin/../lib/gcc/psp/4.3.5/../../../../psp/lib\libc.a(lib_a-environ.o)
                              c:/pspsdk/bin/../lib/gcc/psp/4.3.5/../../../../psp/lib\libc.a(lib_a-getenv_r.o) (environ)
c:/pspsdk/bin/../lib/gcc/psp/4.3.5/../../../../psp/lib\libc.a(lib_a-envlock.o)
                              c:/pspsdk/bin/../lib/gcc/psp/4.3.5/../../../../psp/lib\libc.a(lib_a-getenv_r.o) (__env_lock)
c:/pspsdk/bin/../lib/gcc/psp/4.3.5/../../../../psp/lib\libc.a(lib_a-fcntlr.o)
                              c:/pspsdk/bin/../lib/gcc/psp/4.3.5/../../../../psp/lib\libc.a(lib_a-fdopen.o) (_fcntl_r)
c:/pspsdk/bin/../lib/gcc/psp/4.3.5/../../../../psp/lib\libc.a(lib_a-fputwc.o)
                              c:/pspsdk/bin/../lib/gcc/psp/4.3.5/../../../../psp/lib\libc.a(lib_a-vfiprintf.o) (_fputwc_r)
c:/pspsdk/bin/../lib/gcc/psp/4.3.5/../../../../psp/lib\libc.a(lib_a-gdtoa-gethex.o)
                              c:/pspsdk/bin/../lib/gcc/psp/4.3.5/../../../../psp/lib\libc.a(lib_a-strtod.o) (__gethex)
c:/pspsdk/bin/../lib/gcc/psp/4.3.5/../../../../psp/lib\libc.a(lib_a-gdtoa-hexnan.o)
                              c:/pspsdk/bin/../lib/gcc/psp/4.3.5/../../../../psp/lib\libc.a(lib_a-strtod.o) (__hexnan)
c:/pspsdk/bin/../lib/gcc/psp/4.3.5/../../../../psp/lib\libc.a(lib_a-gettimeofdayr.o)
                              c:/pspsdk/bin/../lib/gcc/psp/4.3.5/../../../../psp/lib\libc.a(lib_a-sysgettod.o) (_gettimeofday_r)
c:/pspsdk/bin/../lib/gcc/psp/4.3.5/../../../../psp/lib\libc.a(lib_a-gettzinfo.o)
                              c:/pspsdk/bin/../lib/gcc/psp/4.3.5/../../../../psp/lib\libc.a(lib_a-mktm_r.o) (__gettzinfo)
c:/pspsdk/bin/../lib/gcc/psp/4.3.5/../../../../psp/lib\libc.a(lib_a-isdigit.o)
                              c:/pspsdk/bin/../lib/gcc/psp/4.3.5/../../../../psp/lib\libc.a(vxprintf.o) (isdigit)
c:/pspsdk/bin/../lib/gcc/psp/4.3.5/../../../../psp/lib\libc.a(lib_a-iswspace.o)
                              c:/pspsdk/bin/../lib/gcc/psp/4.3.5/../../../../psp/lib\libc.a(lib_a-svfscanf.o) (iswspace)
c:/pspsdk/bin/../lib/gcc/psp/4.3.5/../../../../psp/lib\libc.a(lib_a-locale.o)
                              c:/pspsdk/bin/../lib/gcc/psp/4.3.5/../../../../psp/lib\libc.a(lib_a-strtod.o) (_localeconv_r)
c:/pspsdk/bin/../lib/gcc/psp/4.3.5/../../../../psp/lib\libc.a(lib_a-lseekr.o)
                              c:/pspsdk/bin/../lib/gcc/psp/4.3.5/../../../../psp/lib\libc.a(lib_a-stdio.o) (_lseek_r)
c:/pspsdk/bin/../lib/gcc/psp/4.3.5/../../../../psp/lib\libc.a(lib_a-mbrtowc.o)
                              c:/pspsdk/bin/../lib/gcc/psp/4.3.5/../../../../psp/lib\libc.a(lib_a-svfscanf.o) (_mbrtowc_r)
c:/pspsdk/bin/../lib/gcc/psp/4.3.5/../../../../psp/lib\libc.a(lib_a-mbtowc_r.o)
                              c:/pspsdk/bin/../lib/gcc/psp/4.3.5/../../../../psp/lib\libc.a(lib_a-mbrtowc.o) (__mbtowc)
c:/pspsdk/bin/../lib/gcc/psp/4.3.5/../../../../psp/lib\libc.a(lib_a-mprec.o)
                              c:/pspsdk/bin/../lib/gcc/psp/4.3.5/../../../../psp/lib\libc.a(lib_a-strtod.o) (_Bfree)
c:/pspsdk/bin/../lib/gcc/psp/4.3.5/../../../../psp/lib\libc.a(lib_a-readr.o)
                              c:/pspsdk/bin/../lib/gcc/psp/4.3.5/../../../../psp/lib\libc.a(lib_a-stdio.o) (_read_r)
c:/pspsdk/bin/../lib/gcc/psp/4.3.5/../../../../psp/lib\libc.a(lib_a-sccl.o)
                              c:/pspsdk/bin/../lib/gcc/psp/4.3.5/../../../../psp/lib\libc.a(lib_a-svfscanf.o) (__sccl)
c:/pspsdk/bin/../lib/gcc/psp/4.3.5/../../../../psp/lib\libc.a(lib_a-sf_nan.o)
                              c:/pspsdk/bin/../lib/gcc/psp/4.3.5/../../../../psp/lib\libc.a(lib_a-strtod.o) (nanf)
c:/pspsdk/bin/../lib/gcc/psp/4.3.5/../../../../psp/lib\libc.a(lib_a-strdup.o)
                              c:/pspsdk/bin/../lib/gcc/psp/4.3.5/../../../../psp/lib\libc.a(_open.o) (strdup)
c:/pspsdk/bin/../lib/gcc/psp/4.3.5/../../../../psp/lib\libc.a(lib_a-strdup_r.o)
                              c:/pspsdk/bin/../lib/gcc/psp/4.3.5/../../../../psp/lib\libc.a(lib_a-strdup.o) (_strdup_r)
c:/pspsdk/bin/../lib/gcc/psp/4.3.5/../../../../psp/lib\libc.a(lib_a-strtoll_r.o)
                              c:/pspsdk/bin/../lib/gcc/psp/4.3.5/../../../../psp/lib\libc.a(lib_a-svfscanf.o) (_strtoll_r)
c:/pspsdk/bin/../lib/gcc/psp/4.3.5/../../../../psp/lib\libc.a(lib_a-strtoul.o)
                              c:/pspsdk/bin/../lib/gcc/psp/4.3.5/../../../../psp/lib\libc.a(lib_a-svfscanf.o) (_strtoul_r)
c:/pspsdk/bin/../lib/gcc/psp/4.3.5/../../../../psp/lib\libc.a(lib_a-strtoull_r.o)
                              c:/pspsdk/bin/../lib/gcc/psp/4.3.5/../../../../psp/lib\libc.a(lib_a-svfscanf.o) (_strtoull_r)
c:/pspsdk/bin/../lib/gcc/psp/4.3.5/../../../../psp/lib\libc.a(lib_a-svfiprintf.o)
                              c:/pspsdk/bin/../lib/gcc/psp/4.3.5/../../../../psp/lib\libc.a(lib_a-svfprintf.o) (__ssprint_r)
c:/pspsdk/bin/../lib/gcc/psp/4.3.5/../../../../psp/lib\libc.a(lib_a-svfiscanf.o)
                              c:/pspsdk/bin/../lib/gcc/psp/4.3.5/../../../../psp/lib\libc.a(lib_a-svfscanf.o) (__ssrefill_r)
c:/pspsdk/bin/../lib/gcc/psp/4.3.5/../../../../psp/lib\libc.a(lib_a-sysstat.o)
                              c:/pspsdk/bin/../lib/gcc/psp/4.3.5/../../../../psp/lib\libc.a(_fstat.o) (stat)
c:/pspsdk/bin/../lib/gcc/psp/4.3.5/../../../../psp/lib\libc.a(lib_a-wcrtomb.o)
                              c:/pspsdk/bin/../lib/gcc/psp/4.3.5/../../../../psp/lib\libc.a(lib_a-fputwc.o) (_wcrtomb_r)
c:/pspsdk/bin/../lib/gcc/psp/4.3.5/../../../../psp/lib\libc.a(lib_a-wctomb_r.o)
                              c:/pspsdk/bin/../lib/gcc/psp/4.3.5/../../../../psp/lib\libc.a(lib_a-wcrtomb.o) (__wctomb)
c:/pspsdk/bin/../lib/gcc/psp/4.3.5/../../../../psp/lib\libc.a(pipe.o)
                              c:/pspsdk/bin/../lib/gcc/psp/4.3.5/../../../../psp/lib\libc.a(_write.o) (__psp_pipe_nonblocking_write)
c:/pspsdk/bin/../lib/gcc/psp/4.3.5/../../../../psp/lib\libc.a(pspcwd.o)
                              c:/pspsdk/bin/../lib/gcc/psp/4.3.5/../../../../psp/lib\libc.a(_open.o) (__psp_path_absolute)
c:/pspsdk/bin/../lib/gcc/psp/4.3.5/../../../../psp/lib\libc.a(__psp_set_errno.o)
                              c:/pspsdk/bin/../lib/gcc/psp/4.3.5/../../../../psp/lib\libc.a(_open.o) (__psp_set_errno)
c:/pspsdk/bin/../lib/gcc/psp/4.3.5/../../../../psp/lib\libc.a(_close.o)
                              c:/pspsdk/bin/../lib/gcc/psp/4.3.5/../../../../psp/lib\libc.a(lib_a-closer.o) (_close)
c:/pspsdk/bin/../lib/gcc/psp/4.3.5/../../../../psp/lib\libc.a(_fcntl.o)
                              c:/pspsdk/bin/../lib/gcc/psp/4.3.5/../../../../psp/lib\libc.a(lib_a-fcntlr.o) (_fcntl)
c:/pspsdk/bin/../lib/gcc/psp/4.3.5/../../../../psp/lib\libc.a(_gettimeofday.o)
                              c:/pspsdk/bin/../lib/gcc/psp/4.3.5/../../../../psp/lib\libc.a(lib_a-gettimeofdayr.o) (_gettimeofday)
c:/pspsdk/bin/../lib/gcc/psp/4.3.5/../../../../psp/lib\libc.a(_lseek.o)
                              c:/pspsdk/bin/../lib/gcc/psp/4.3.5/../../../../psp/lib\libc.a(lib_a-lseekr.o) (_lseek)
c:/pspsdk/bin/../lib/gcc/psp/4.3.5/../../../../psp/lib\libc.a(_read.o)
                              c:/pspsdk/bin/../lib/gcc/psp/4.3.5/../../../../psp/lib\libc.a(lib_a-readr.o) (_read)
c:/pspsdk/bin/../lib/gcc/psp/4.3.5/../../../../psp/lib\libc.a(chdir.o)
                              c:/pspsdk/bin/../lib/gcc/psp/4.3.5/../../../../psp/lib\libc.a(pspcwd.o) (chdir)
c:/pspsdk/bin/../lib/gcc/psp/4.3.5/../../../../psp/lib\libc.a(lib_a-statr.o)
                              c:/pspsdk/bin/../lib/gcc/psp/4.3.5/../../../../psp/lib\libc.a(lib_a-sysstat.o) (_stat_r)
c:/pspsdk/bin/../lib/gcc/psp/4.3.5/../../../../psp/lib\libc.a(setsockopt.o)
                              c:/pspsdk/bin/../lib/gcc/psp/4.3.5/../../../../psp/lib\libc.a(_fcntl.o) (setsockopt)
c:/pspsdk/bin/../lib/gcc/psp/4.3.5/../../../../psp/lib\libc.a(_stat.o)
                              c:/pspsdk/bin/../lib/gcc/psp/4.3.5/../../../../psp/lib\libc.a(lib_a-statr.o) (_stat)
c:/pspsdk/bin/../lib/gcc/psp/4.3.5/../../../../psp/lib\libc.a(lib_a-mktime.o)
                              c:/pspsdk/bin/../lib/gcc/psp/4.3.5/../../../../psp/lib\libc.a(_stat.o) (mktime)
c:/pspsdk/bin/../lib/gcc/psp/4.3.5/../../../../psp/lib\libc.a(lib_a-div.o)
                              c:/pspsdk/bin/../lib/gcc/psp/4.3.5/../../../../psp/lib\libc.a(lib_a-mktime.o) (div)
c:/pspsdk/psp/sdk/lib\libpspnet_inet.a(sceNetInet_0010.o)
                              c:/pspsdk/bin/../lib/gcc/psp/4.3.5/../../../../psp/lib\libc.a(setsockopt.o) (sceNetInetGetsockopt)
c:/pspsdk/psp/sdk/lib\libpspnet_inet.a(sceNetInet_0020.o)
                              c:/pspsdk/bin/../lib/gcc/psp/4.3.5/../../../../psp/lib\libc.a(setsockopt.o) (sceNetInetSetsockopt)
c:/pspsdk/psp/sdk/lib\libpspnet_inet.a(sceNetInet_0024.o)
                              c:/pspsdk/bin/../lib/gcc/psp/4.3.5/../../../../psp/lib\libc.a(setsockopt.o) (sceNetInetGetErrno)
c:/pspsdk/psp/sdk/lib\libpspnet_inet.a(sceNetInet_0000.o)
                              c:/pspsdk/psp/sdk/lib\libpspnet_inet.a(sceNetInet_0010.o) (__stub_module_sceNetInet)
c:/pspsdk/psp/sdk/lib\libpsputility.a(sceUtility_0031.o)
                              psp/menuplus.o (sceUtilityGetSystemParamInt)
c:/pspsdk/psp/sdk/lib\libpsputility.a(sceUtility_0000.o)
                              c:/pspsdk/psp/sdk/lib\libpsputility.a(sceUtility_0031.o) (__stub_module_sceUtility)
c:/pspsdk/psp/sdk/lib\libpspuser.a(IoFileMgrForUser_0007.o)
                              gbcore/cpu.o (sceIoClose)
c:/pspsdk/psp/sdk/lib\libpspuser.a(IoFileMgrForUser_0009.o)
                              gbcore/cpu.o (sceIoOpen)
c:/pspsdk/psp/sdk/lib\libpspuser.a(IoFileMgrForUser_0011.o)
                              gbcore/cpu.o (sceIoRead)
c:/pspsdk/psp/sdk/lib\libpspuser.a(IoFileMgrForUser_0013.o)
                              error.o (sceIoWrite)
c:/pspsdk/psp/sdk/lib\libpspuser.a(IoFileMgrForUser_0015.o)
                              c:/pspsdk/bin/../lib/gcc/psp/4.3.5/../../../../psp/lib\libosl.a(libccc.o) (sceIoLseek)
c:/pspsdk/psp/sdk/lib\libpspuser.a(IoFileMgrForUser_0017.o)
                              c:/pspsdk/bin/../lib/gcc/psp/4.3.5/../../../../psp/lib\libosl.a(vfsFile.o) (sceIoLseek32)
c:/pspsdk/psp/sdk/lib\libpspuser.a(IoFileMgrForUser_0021.o)
                              psp/menuplus.o (sceIoDopen)
c:/pspsdk/psp/sdk/lib\libpspuser.a(IoFileMgrForUser_0022.o)
                              psp/menuplus2.o (sceIoDread)
c:/pspsdk/psp/sdk/lib\libpspuser.a(IoFileMgrForUser_0023.o)
                              psp/menuplus.o (sceIoDclose)
c:/pspsdk/psp/sdk/lib\libpspuser.a(IoFileMgrForUser_0024.o)
                              psp/menuplus.o (sceIoRemove)
c:/pspsdk/psp/sdk/lib\libpspuser.a(IoFileMgrForUser_0025.o)
                              psp/menuplus.o (sceIoMkdir)
c:/pspsdk/psp/sdk/lib\libpspuser.a(IoFileMgrForUser_0027.o)
                              c:/pspsdk/bin/../lib/gcc/psp/4.3.5/../../../../psp/lib\libc.a(chdir.o) (sceIoChdir)
c:/pspsdk/psp/sdk/lib\libpspuser.a(IoFileMgrForUser_0029.o)
                              psp/menuplus.o (sceIoGetstat)
c:/pspsdk/psp/sdk/lib\libpspuser.a(IoFileMgrForUser_0032.o)
                              c:/pspsdk/bin/../lib/gcc/psp/4.3.5/../../../../psp/lib\libosl.a(usb.o) (sceIoDevctl)
c:/pspsdk/psp/sdk/lib\libpspuser.a(ModuleMgrForUser_0002.o)
                              psp/usb.o (sceKernelLoadModule)
c:/pspsdk/psp/sdk/lib\libpspuser.a(ModuleMgrForUser_0005.o)
                              psp/usb.o (sceKernelStartModule)
c:/pspsdk/psp/sdk/lib\libpspuser.a(ModuleMgrForUser_0006.o)
                              c:/pspsdk/bin/../lib/gcc/psp/4.3.5/../../../../psp/lib\libosl.a(usb.o) (sceKernelStopModule)
c:/pspsdk/psp/sdk/lib\libpspuser.a(ModuleMgrForUser_0007.o)
                              c:/pspsdk/bin/../lib/gcc/psp/4.3.5/../../../../psp/lib\libosl.a(usb.o) (sceKernelUnloadModule)
c:/pspsdk/psp/sdk/lib\libpspuser.a(ModuleMgrForUser_0008.o)
                              c:/pspsdk/bin/../lib/gcc/psp/4.3.5/../../../../psp/lib\libc.a(_exit.o) (sceKernelSelfStopUnloadModule)
c:/pspsdk/psp/sdk/lib\libpspuser.a(StdioForUser_0007.o)
                              c:/pspsdk/bin/../lib/gcc/psp/4.3.5/../../../../psp/lib\libc.a(fdman.o) (sceKernelStdin)
c:/pspsdk/psp/sdk/lib\libpspuser.a(StdioForUser_0008.o)
                              error.o (sceKernelStdout)
c:/pspsdk/psp/sdk/lib\libpspuser.a(StdioForUser_0009.o)
                              c:/pspsdk/bin/../lib/gcc/psp/4.3.5/../../../../psp/lib\libc.a(fdman.o) (sceKernelStderr)
c:/pspsdk/psp/sdk/lib\libpspuser.a(SysMemUserForUser_0001.o)
                              c:/pspsdk/bin/../lib/gcc/psp/4.3.5/../../../../psp/lib\libc.a(_sbrk.o) (sceKernelMaxFreeMemSize)
c:/pspsdk/psp/sdk/lib\libpspuser.a(SysMemUserForUser_0003.o)
                              c:/pspsdk/bin/../lib/gcc/psp/4.3.5/../../../../psp/lib\libc.a(_sbrk.o) (sceKernelAllocPartitionMemory)
c:/pspsdk/psp/sdk/lib\libpspuser.a(SysMemUserForUser_0004.o)
                              c:/pspsdk/bin/../lib/gcc/psp/4.3.5/../../../../psp/lib\libc.a(_sbrk.o) (sceKernelFreePartitionMemory)
c:/pspsdk/psp/sdk/lib\libpspuser.a(SysMemUserForUser_0005.o)
                              c:/pspsdk/bin/../lib/gcc/psp/4.3.5/../../../../psp/lib\libc.a(_sbrk.o) (sceKernelGetBlockHeadAddr)
c:/pspsdk/psp/sdk/lib\libpspuser.a(ThreadManForUser_0005.o)
                              c:/pspsdk/bin/../lib/gcc/psp/4.3.5/../../../../psp/lib\libosl.a(oslib.o) (sceKernelCreateCallback)
c:/pspsdk/psp/sdk/lib\libpspuser.a(ThreadManForUser_0007.o)
                              c:/pspsdk/bin/../lib/gcc/psp/4.3.5/../../../../psp/lib\libosl.a(oslib.o) (sceKernelNotifyCallback)
c:/pspsdk/psp/sdk/lib\libpspuser.a(ThreadManForUser_0013.o)
                              c:/pspsdk/bin/../lib/gcc/psp/4.3.5/../../../../psp/lib\libosl.a(oslib.o) (sceKernelSleepThreadCB)
c:/pspsdk/psp/sdk/lib\libpspuser.a(ThreadManForUser_0018.o)
                              psp/sound.o (sceKernelWaitThreadEnd)
c:/pspsdk/psp/sdk/lib\libpspuser.a(ThreadManForUser_0020.o)
                              c:/pspsdk/bin/../lib/gcc/psp/4.3.5/../../../../psp/lib\libosl.a(oslib.o) (sceKernelDelayThread)
c:/pspsdk/psp/sdk/lib\libpspuser.a(ThreadManForUser_0032.o)
                              c:/pspsdk/psp/sdk/lib\libpspgu.a(sceGuInit.o) (sceKernelCreateEventFlag)
c:/pspsdk/psp/sdk/lib\libpspuser.a(ThreadManForUser_0033.o)
                              c:/pspsdk/psp/sdk/lib\libpspgu.a(sceGuTerm.o) (sceKernelDeleteEventFlag)
c:/pspsdk/psp/sdk/lib\libpspuser.a(ThreadManForUser_0034.o)
                              c:/pspsdk/psp/sdk/lib\libpspgu.a(callbackSig.o) (sceKernelSetEventFlag)
c:/pspsdk/psp/sdk/lib\libpspuser.a(ThreadManForUser_0049.o)
                              c:/pspsdk/bin/../lib/gcc/psp/4.3.5/../../../../psp/lib\libc.a(pipe.o) (sceKernelCreateMsgPipe)
c:/pspsdk/psp/sdk/lib\libpspuser.a(ThreadManForUser_0050.o)
                              c:/pspsdk/bin/../lib/gcc/psp/4.3.5/../../../../psp/lib\libc.a(pipe.o) (sceKernelDeleteMsgPipe)
c:/pspsdk/psp/sdk/lib\libpspuser.a(ThreadManForUser_0051.o)
                              c:/pspsdk/bin/../lib/gcc/psp/4.3.5/../../../../psp/lib\libc.a(pipe.o) (sceKernelSendMsgPipe)
c:/pspsdk/psp/sdk/lib\libpspuser.a(ThreadManForUser_0053.o)
                              c:/pspsdk/bin/../lib/gcc/psp/4.3.5/../../../../psp/lib\libc.a(pipe.o) (sceKernelTrySendMsgPipe)
c:/pspsdk/psp/sdk/lib\libpspuser.a(ThreadManForUser_0054.o)
                              c:/pspsdk/bin/../lib/gcc/psp/4.3.5/../../../../psp/lib\libc.a(pipe.o) (sceKernelReceiveMsgPipe)
c:/pspsdk/psp/sdk/lib\libpspuser.a(ThreadManForUser_0056.o)
                              c:/pspsdk/bin/../lib/gcc/psp/4.3.5/../../../../psp/lib\libc.a(pipe.o) (sceKernelTryReceiveMsgPipe)
c:/pspsdk/psp/sdk/lib\libpspuser.a(ThreadManForUser_0058.o)
                              c:/pspsdk/bin/../lib/gcc/psp/4.3.5/../../../../psp/lib\libc.a(pipe.o) (sceKernelReferMsgPipeStatus)
c:/pspsdk/psp/sdk/lib\libpspuser.a(ThreadManForUser_0101.o)
                              c:/pspsdk/bin/../lib/gcc/psp/4.3.5/../../../../psp/lib/crt0.o (sceKernelCreateThread)
c:/pspsdk/psp/sdk/lib\libpspuser.a(ThreadManForUser_0102.o)
                              psp/sound.o (sceKernelDeleteThread)
c:/pspsdk/psp/sdk/lib\libpspuser.a(ThreadManForUser_0103.o)
                              c:/pspsdk/bin/../lib/gcc/psp/4.3.5/../../../../psp/lib/crt0.o (sceKernelStartThread)
c:/pspsdk/psp/sdk/lib\libpspuser.a(ThreadManForUser_0105.o)
                              c:/pspsdk/bin/../lib/gcc/psp/4.3.5/../../../../psp/lib\libc.a(_exit.o) (sceKernelExitThread)
c:/pspsdk/psp/sdk/lib\libpspuser.a(ThreadManForUser_0106.o)
                              psp/PspSound.o (sceKernelExitDeleteThread)
c:/pspsdk/psp/sdk/lib\libpspuser.a(UtilsForUser_0014.o)
                              gbcore/cpu.o (sceKernelLibcClock)
c:/pspsdk/psp/sdk/lib\libpspuser.a(UtilsForUser_0015.o)
                              psp/menuplus.o (sceKernelLibcTime)
c:/pspsdk/psp/sdk/lib\libpspuser.a(UtilsForUser_0016.o)
                              psp/sound.o (sceKernelLibcGettimeofday)
c:/pspsdk/psp/sdk/lib\libpspuser.a(UtilsForUser_0017.o)
                              c:/pspsdk/bin/../lib/gcc/psp/4.3.5/../../../../psp/lib\libosl.a(intraFont.o) (sceKernelDcacheWritebackAll)
c:/pspsdk/psp/sdk/lib\libpspuser.a(UtilsForUser_0018.o)
                              c:/pspsdk/bin/../lib/gcc/psp/4.3.5/../../../../psp/lib\libosl.a(oslib.o) (sceKernelDcacheWritebackInvalidateAll)
c:/pspsdk/psp/sdk/lib\libpspuser.a(UtilsForUser_0019.o)
                              c:/pspsdk/bin/../lib/gcc/psp/4.3.5/../../../../psp/lib\libosl.a(shape.o) (sceKernelDcacheWritebackRange)
c:/pspsdk/psp/sdk/lib\libpspuser.a(UtilsForUser_0020.o)
                              gbcore/lcd.o (sceKernelDcacheWritebackInvalidateRange)
c:/pspsdk/psp/sdk/lib\libpspuser.a(InterruptManager_0001.o)
                              c:/pspsdk/bin/../lib/gcc/psp/4.3.5/../../../../psp/lib\libosl.a(oslib.o) (sceKernelRegisterSubIntrHandler)
c:/pspsdk/psp/sdk/lib\libpspuser.a(InterruptManager_0003.o)
                              c:/pspsdk/bin/../lib/gcc/psp/4.3.5/../../../../psp/lib\libosl.a(oslib.o) (sceKernelEnableSubIntr)
c:/pspsdk/psp/sdk/lib\libpspuser.a(LoadExecForUser_0003.o)
                              psp/main.o (sceKernelExitGame)
c:/pspsdk/psp/sdk/lib\libpspuser.a(LoadExecForUser_0004.o)
                              c:/pspsdk/bin/../lib/gcc/psp/4.3.5/../../../../psp/lib\libosl.a(oslib.o) (sceKernelRegisterExitCallback)
c:/pspsdk/psp/sdk/lib\libpspuser.a(IoFileMgrForUser_0000.o)
                              c:/pspsdk/psp/sdk/lib\libpspuser.a(IoFileMgrForUser_0007.o) (__stub_module_IoFileMgrForUser)
c:/pspsdk/psp/sdk/lib\libpspuser.a(ModuleMgrForUser_0000.o)
                              c:/pspsdk/psp/sdk/lib\libpspuser.a(ModuleMgrForUser_0002.o) (__stub_module_ModuleMgrForUser)
c:/pspsdk/psp/sdk/lib\libpspuser.a(StdioForUser_0000.o)
                              c:/pspsdk/psp/sdk/lib\libpspuser.a(StdioForUser_0007.o) (__stub_module_StdioForUser)
c:/pspsdk/psp/sdk/lib\libpspuser.a(SysMemUserForUser_0000.o)
                              c:/pspsdk/psp/sdk/lib\libpspuser.a(SysMemUserForUser_0001.o) (__stub_module_SysMemUserForUser)
c:/pspsdk/psp/sdk/lib\libpspuser.a(ThreadManForUser_0000.o)
                              c:/pspsdk/psp/sdk/lib\libpspuser.a(ThreadManForUser_0005.o) (__stub_module_ThreadManForUser)
c:/pspsdk/psp/sdk/lib\libpspuser.a(UtilsForUser_0000.o)
                              c:/pspsdk/psp/sdk/lib\libpspuser.a(UtilsForUser_0014.o) (__stub_module_UtilsForUser)
c:/pspsdk/psp/sdk/lib\libpspuser.a(InterruptManager_0000.o)
                              c:/pspsdk/psp/sdk/lib\libpspuser.a(InterruptManager_0001.o) (__stub_module_InterruptManager)
c:/pspsdk/psp/sdk/lib\libpspuser.a(LoadExecForUser_0000.o)
                              c:/pspsdk/psp/sdk/lib\libpspuser.a(LoadExecForUser_0003.o) (__stub_module_LoadExecForUser)
c:/pspsdk/bin/../lib/gcc/psp/4.3.5\libgcc.a(_fixunsdfsi.o)
                              sound/emu2413.o (__fixunsdfsi)
c:/pspsdk/bin/../lib/gcc/psp/4.3.5\libgcc.a(_udivdi3.o)
                              c:/pspsdk/bin/../lib/gcc/psp/4.3.5/../../../../psp/lib\libc.a(lib_a-svfprintf.o) (__udivdi3)
c:/pspsdk/bin/../lib/gcc/psp/4.3.5\libgcc.a(_umoddi3.o)
                              c:/pspsdk/bin/../lib/gcc/psp/4.3.5/../../../../psp/lib\libc.a(lib_a-svfprintf.o) (__umoddi3)
c:/pspsdk/bin/../lib/gcc/psp/4.3.5\libgcc.a(_sf_to_df.o)
                              psp/SMS.o (__extendsfdf2)
c:/pspsdk/bin/../lib/gcc/psp/4.3.5\libgcc.a(_addsub_df.o)
                              psp/vgm/emu2413.o (__subdf3)
c:/pspsdk/bin/../lib/gcc/psp/4.3.5\libgcc.a(_mul_df.o)
                              sound/emu2413.o (__muldf3)
c:/pspsdk/bin/../lib/gcc/psp/4.3.5\libgcc.a(_div_df.o)
                              sound/sound.o (__divdf3)
c:/pspsdk/bin/../lib/gcc/psp/4.3.5\libgcc.a(_eq_df.o)
                              sound/emu2413.o (__eqdf2)
c:/pspsdk/bin/../lib/gcc/psp/4.3.5\libgcc.a(_ne_df.o)
                              c:/pspsdk/bin/../lib/gcc/psp/4.3.5/../../../../psp/lib\libm.a(lib_a-s_pow.o) (__nedf2)
c:/pspsdk/bin/../lib/gcc/psp/4.3.5\libgcc.a(_gt_df.o)
                              sound/ym2413.o (__gtdf2)
c:/pspsdk/bin/../lib/gcc/psp/4.3.5\libgcc.a(_ge_df.o)
                              sound/ym2413.o (__gedf2)
c:/pspsdk/bin/../lib/gcc/psp/4.3.5\libgcc.a(_lt_df.o)
                              c:/pspsdk/bin/../lib/gcc/psp/4.3.5/../../../../psp/lib\libpng.a(pngrtran.o) (__ltdf2)
c:/pspsdk/bin/../lib/gcc/psp/4.3.5\libgcc.a(_le_df.o)
                              psp/vgm/emu2413.o (__ledf2)
c:/pspsdk/bin/../lib/gcc/psp/4.3.5\libgcc.a(_si_to_df.o)
                              sound/sound.o (__floatsidf)
c:/pspsdk/bin/../lib/gcc/psp/4.3.5\libgcc.a(_df_to_si.o)
                              sound/sound.o (__fixdfsi)
c:/pspsdk/bin/../lib/gcc/psp/4.3.5\libgcc.a(_make_df.o)
                              c:/pspsdk/bin/../lib/gcc/psp/4.3.5\libgcc.a(_sf_to_df.o) (__make_dp)
c:/pspsdk/bin/../lib/gcc/psp/4.3.5\libgcc.a(_df_to_sf.o)
                              psp/gym/gym.o (__truncdfsf2)
c:/pspsdk/bin/../lib/gcc/psp/4.3.5\libgcc.a(_thenan_df.o)
                              c:/pspsdk/bin/../lib/gcc/psp/4.3.5\libgcc.a(_addsub_df.o) (__thenan_df)
c:/pspsdk/bin/../lib/gcc/psp/4.3.5\libgcc.a(_usi_to_df.o)
                              sound/emu2413.o (__floatunsidf)
c:/pspsdk/bin/../lib/gcc/psp/4.3.5\libgcc.a(unwind-dw2.o)
                              c:/pspsdk/bin/../lib/gcc/psp/4.3.5/../../../../psp/lib\libstdc++.a(eh_personality.o) (_Unwind_GetIPInfo)
c:/pspsdk/bin/../lib/gcc/psp/4.3.5\libgcc.a(unwind-dw2-fde.o)
                              c:/pspsdk/bin/../lib/gcc/psp/4.3.5\libgcc.a(unwind-dw2.o) (_Unwind_Find_FDE)
c:/pspsdk/bin/../lib/gcc/psp/4.3.5\libgcc.a(_ucmpdi2.o)
                              c:/pspsdk/bin/../lib/gcc/psp/4.3.5\libgcc.a(_addsub_df.o) (__ucmpdi2)
c:/pspsdk/bin/../lib/gcc/psp/4.3.5\libgcc.a(_clz.o)
                              c:/pspsdk/bin/../lib/gcc/psp/4.3.5\libgcc.a(_udivdi3.o) (__clz_tab)
c:/pspsdk/bin/../lib/gcc/psp/4.3.5\libgcc.a(_unpack_sf.o)
                              c:/pspsdk/bin/../lib/gcc/psp/4.3.5\libgcc.a(_sf_to_df.o) (__unpack_f)
c:/pspsdk/bin/../lib/gcc/psp/4.3.5\libgcc.a(_make_sf.o)
                              c:/pspsdk/bin/../lib/gcc/psp/4.3.5\libgcc.a(_df_to_sf.o) (__make_fp)
c:/pspsdk/bin/../lib/gcc/psp/4.3.5\libgcc.a(_pack_df.o)
                              c:/pspsdk/bin/../lib/gcc/psp/4.3.5\libgcc.a(_addsub_df.o) (__pack_d)
c:/pspsdk/bin/../lib/gcc/psp/4.3.5\libgcc.a(_unpack_df.o)
                              c:/pspsdk/bin/../lib/gcc/psp/4.3.5\libgcc.a(_addsub_df.o) (__unpack_d)
c:/pspsdk/bin/../lib/gcc/psp/4.3.5\libgcc.a(_fpcmp_parts_df.o)
                              c:/pspsdk/bin/../lib/gcc/psp/4.3.5\libgcc.a(_eq_df.o) (__fpcmp_parts_d)
c:/pspsdk/bin/../lib/gcc/psp/4.3.5\libgcc.a(_pack_sf.o)
                              c:/pspsdk/bin/../lib/gcc/psp/4.3.5\libgcc.a(_make_sf.o) (__pack_f)

Allocating common symbols
Common symbol       size              file

info                0x20              gbcore/rom.o
menuFileSelectFileName
                    0x400             psp/menuplus.o
menuSoundBoxWidth   0xc               psp/menuplus.o
_ff72               0x1               gbcore/cpu.o
snd_que_count       0x4               gbcore/apu.o
first_page          0x4               gbcore/rom.o
gb2z80              0x100             gbcore/cpu.o
DR_TAB              0x180             psp/gym/ym2612.o
dirEntry            0x160             psp/menuplus.o
dat                 0x4               gbcore/rom.o
hook_ext            0x1               gbcore/gb.o
smptab              0x4               sound/sound.o
PSG_Volume_Table    0x40              psp/gym/psg.o
cg_regs             0xd               gbcore/gb.o
oam                 0xa0              gbcore/cpu.o
sram_space          0x20004           gbcore/rom.o
osl_remote          0x1c              c:/pspsdk/bin/../lib/gcc/psp/4.3.5/../../../../psp/lib\libosl.a(keys.o)
cheats              0x8300            gbcore/cheat.o
fadeReason          0x4               psp/menuplus.o
mbc7_idle           0x1               gbcore/mbc.o
now_win_line        0x4               gbcore/lcd.o
gu_draw_buffer      0x20              c:/pspsdk/psp/sdk/lib\libpspgu.a(guInternal.o)
inval_col_pal       0x40              gbcore/lcd.o
b_dma_first         0x1               gbcore/cpu.o
linebuf             0x4               render.o
DT_TAB              0x400             psp/gym/ym2612.o
PSG_Improv          0x4               psp/gym/psg.o
audioOut            0x4000            psp/PspSound.o
mbc7_state          0x1               gbcore/mbc.o
mbc3_dayl           0x1               gbcore/mbc.o
SIN_TAB             0x4000            psp/gym/ym2612.o
LFO_FREQ_TAB        0x1000            psp/gym/ym2612.o
dma_dest_bank       0x4               gbcore/cpu.o
osl_virtualFileList
                    0x4               c:/pspsdk/bin/../lib/gcc/psp/4.3.5/../../../../psp/lib\libosl.a(VirtualFile.o)
spare_oam           0x18              gbcore/cpu.o
cart                0x8018            system.o
z802gb              0x100             gbcore/cpu.o
LFO_ENV_UP          0x1f40            psp/gym/ym2612.o
osl_audioActive     0x20              c:/pspsdk/bin/../lib/gcc/psp/4.3.5/../../../../psp/lib\libosl.a(audio.o)
gblFichierConfig    0x4               psp/config.o
c_regs_I            0x1               gbcore/cpu.o
cur_time            0x4               psp/gameboy_render.o
total_clock         0x4               gbcore/cpu.o
en3                 0x4               psp/gym/ym2612.o
sgb_palette_real    0x100             gbcore/sgb.o
Screen              0x8               psp/VideoGu.o
sram_page           0x4               gbcore/mbc.o
_ff73               0x1               gbcore/cpu.o
LFO_INC_TAB         0x20              psp/gym/ym2612.o
osl_currentFrameRate
                    0x4               c:/pspsdk/bin/../lib/gcc/psp/4.3.5/../../../../psp/lib\libosl.a(oslib.o)
menuStatusBarMessageInd
                    0x100             psp/menuplus.o
menuPressedKeysAutorepeatDelay
                    0x4               psp/menuplus.o
errno               0x4               c:/pspsdk/bin/../lib/gcc/psp/4.3.5/../../../../psp/lib\libc.a(lib_a-reent.o)
sys_clock           0x4               gbcore/cpu.o
org_gbtype          0x4               gbcore/rom.o
now_gb_mode         0x4               gbcore/gb.o
ext_is_ram          0x1               gbcore/mbc.o
msgAboutArrowAlpha  0x8               psp/menuplus.o
bitmap              0xc0              system.o
pixel_values        0x100             psp/SMS.o
tilePalPalette      0x180             gbcore/lcd.o
mbc7_dat            0x2               gbcore/mbc.o
osl_filesave        0x20              c:/pspsdk/bin/../lib/gcc/psp/4.3.5/../../../../psp/lib\libosl.a(audio.o)
gbSkip              0x4               gbcore/gb.o
gblChoice           0x14              psp/menuplus.o
sms                 0x2018            sms.o
menuDefaultExecute  0x200             psp/config.o
menuPlusTerminated  0x4               psp/menuplus.o
mbc3_latch          0x1               gbcore/mbc.o
osl_currentAlphaCoeff
                    0x4               c:/pspsdk/bin/../lib/gcc/psp/4.3.5/../../../../psp/lib\libosl.a(drawing.o)
mbc1_16_8           0x1               gbcore/mbc.o
menuTimeZone        0x4               psp/menuplus.o
menuFileSelectSubMenu
                    0x4               psp/menuplus2.o
chneLabel           0x3e8             psp/config.o
in1                 0x4               psp/gym/ym2612.o
bg_pattern_cache    0x20000           render.o
c_regs_SP           0x2               gbcore/cpu.o
input               0x10              system.o
PSG_Noise_Step_Table
                    0x10              psp/gym/psg.o
tilePalCrc          0x30              gbcore/lcd.o
YM_Buf              0x8               psp/gym/ym2612.o
bp_lut              0x40000           render.o
ztbls               0x4c              gbcore/lcd.o
sgb_palette_memory  0x1000            gbcore/sgb.o
osl_vramBlocks      0x4               c:/pspsdk/bin/../lib/gcc/psp/4.3.5/../../../../psp/lib\libosl.a(vram_mgr.o)
tilePalPalette_invalid
                    0x30              gbcore/lcd.o
osl_audioStandBy    0x4               c:/pspsdk/bin/../lib/gcc/psp/4.3.5/../../../../psp/lib\libosl.a(audio.o)
menuIsInGame        0x4               psp/menuplus.o
osl_currentTexWrapV
                    0x4               c:/pspsdk/bin/../lib/gcc/psp/4.3.5/../../../../psp/lib\libosl.a(drawing.o)
fm_context          0x41              sound/fmintf.o
osl_tempFile        0x10              c:/pspsdk/bin/../lib/gcc/psp/4.3.5/../../../../psp/lib\libosl.a(VirtualFile.o)
ge_edram_address    0x4               c:/pspsdk/psp/sdk/lib\libpspgu.a(guInternal.o)
layer_enable        0x3               gbcore/lcd.o
mbc3_sec            0x1               gbcore/mbc.o
dma_src_bank        0x4               gbcore/cpu.o
sram_crc            0x4               psp/SMS.o
__psp_descriptormap
                    0x1000            c:/pspsdk/bin/../lib/gcc/psp/4.3.5/../../../../psp/lib\libc.a(fdman.o)
stack               0x80              gbcore/cpu.o
__hexdig            0x100             c:/pspsdk/bin/../lib/gcc/psp/4.3.5/../../../../psp/lib\libc.a(lib_a-gdtoa-gethex.o)
gu_object_stack     0x80              c:/pspsdk/psp/sdk/lib\libpspgu.a(guInternal.o)
tmp_clocks          0x4               gbcore/cpu.o
windowBoxPalette    0xc0              psp/menuplus.o
re_render           0x4               gbcore/gb.o
cheat_map           0x10000           gbcore/cheat.o
dummy_read          0x400             sms.o
PSG_Step_Table      0x1000            psp/gym/psg.o
cheat_map_n         0x40000           gbcore/cheat.o
en1                 0x4               psp/gym/ym2612.o
mbc7_adr            0x1               gbcore/mbc.o
mbc7_buf            0x2               gbcore/mbc.o
cpu_readmap         0x100             cpu/z80.o
VirtualFileSources  0x40              c:/pspsdk/bin/../lib/gcc/psp/4.3.5/../../../../psp/lib\libosl.a(VirtualFile.o)
osl_remotekeys      0x4               c:/pspsdk/bin/../lib/gcc/psp/4.3.5/../../../../psp/lib\libosl.a(oslib.o)
sgb_palette_inval   0x100             gbcore/sgb.o
menuUpdateRender    0x4               psp/menuplus.o
modules             0x20              c:/pspsdk/bin/../lib/gcc/psp/4.3.5/../../../../psp/lib\libosl.a(usb.o)
menuTempMessageText
                    0x100             psp/menuplus.o
mbc7_count          0x1               gbcore/mbc.o
readButtonsFunctions
                    0x4               c:/pspsdk/bin/../lib/gcc/psp/4.3.5/../../../../psp/lib\libosl.a(keys.o)
gblVarName          0x200             psp/config.o
mbc3_min            0x1               gbcore/mbc.o
vdp                 0x4084            vdp.o
retourScript        0x4               psp/config.o
sgb_buffer          0x70              gbcore/sgb.o
gu_display_on       0x4               c:/pspsdk/psp/sdk/lib\libpspgu.a(guInternal.o)
menuStatusMessage   0xc8              psp/menuplus.o
AR_TAB              0x200             psp/gym/ym2612.o
dummy_write         0x400             sms.o
menuConfig          0x91c             psp/menuplus.o
sgb_mode            0x4               gbcore/rom.o
ENV_TAB             0x8020            psp/gym/ym2612.o
mbc3_timer          0x1               gbcore/mbc.o
sensor_y            0x4               psp/gameboy_render.o
menuColorCursor     0x10              psp/menuplus.o
FINC_TAB            0x2000            psp/gym/ym2612.o
snd_stat_cpy        0xec              gbcore/apu.o
sgb_border          0x800             gbcore/sgb.o
sgb_palette         0x100             gbcore/sgb.o
snd_stat_tmp        0xec              gbcore/apu.o
gu_contexts         0x114             c:/pspsdk/psp/sdk/lib\libpspgu.a(guInternal.o)
_ff75               0x1               gbcore/cpu.o
mbc3_hour           0x1               gbcore/mbc.o
winMsgBox           0x34              psp/menuplus.o
huc1_16_8           0x1               gbcore/mbc.o
menuTempStateMemory
                    0x4               psp/menuplus.o
snd                 0x3c              sound/sound.o
last_int            0x4               gbcore/cpu.o
DECAY_TO_ATTACK     0x4000            psp/gym/ym2612.o
menuPressedKeysAutorepeatMask
                    0x4               psp/menuplus.o
osl_audioVoices     0x120             c:/pspsdk/bin/../lib/gcc/psp/4.3.5/../../../../psp/lib\libosl.a(audio.o)
menuFileSelectSwap  0x4               psp/menuplus2.o
rp_data             0x1               gbcore/cpu.o
osl_curBuf          0x4               c:/pspsdk/bin/../lib/gcc/psp/4.3.5/../../../../psp/lib\libosl.a(drawing.o)
mbc1_dat            0x1               gbcore/mbc.o
en0                 0x4               psp/gym/ym2612.o
ext_mem             0x10              gbcore/cpu.o
mbc3_dayh           0x1               gbcore/mbc.o
gbc_cram_expand_table
                    0x20              gbcore/lcd.o
pad_state           0x4               psp/gameboy_render.o
osl_virtualFileListSize
                    0x4               c:/pspsdk/bin/../lib/gcc/psp/4.3.5/../../../../psp/lib\libosl.a(VirtualFile.o)
b_trace             0x1               gbcore/cpu.o
LFO_ENV_TAB         0x1000            psp/gym/ym2612.o
pixel               0x40              render.o
cpu_writemap        0x100             cpu/z80.o
menuFileSelectPath  0x400             psp/menuplus.o
fadeDirection       0x4               psp/menuplus.o
YM2612_Improv       0x4               psp/gym/ym2612.o
PSG_Chan_Enable     0x10              psp/gym/psg.o
snd_stat            0xec              gbcore/apu.o
osl_currentAlphaEffect
                    0x4               c:/pspsdk/bin/../lib/gcc/psp/4.3.5/../../../../psp/lib\libosl.a(drawing.o)
sgb_borderchar      0x2000            gbcore/sgb.o
in3                 0x4               psp/gym/ym2612.o
in2                 0x4               psp/gym/ym2612.o
osl_defaultBufferImage
                    0x50              c:/pspsdk/bin/../lib/gcc/psp/4.3.5/../../../../psp/lib\libosl.a(drawing.o)
Chan_Enable         0x18              psp/gym/ym2612.o
game_name           0x400             loadrom.o
use_gba             0x1               gbcore/gb.o
ram_bank            0x4               gbcore/cpu.o
sram                0x4               gbcore/rom.o
mbc5_dat            0x4               gbcore/mbc.o
div_clock           0x4               gbcore/cpu.o
PSG_Buf             0x8               psp/gym/psg.o
stExtentions        0x4               psp/menuplus2.o
mbc7_sk             0x1               gbcore/mbc.o
currentPalCache     0x30              gbcore/lcd.o
tempValue           0x200             psp/config.o
t_error             0xc               error.o
bg_list_index       0x2               render.o
vram_bank           0x4               gbcore/cpu.o
dma_executing       0x1               gbcore/cpu.o
menuPressedKeys     0x28              psp/menuplus.o
sgb_screenbuffer    0x1040            gbcore/sgb.o
LFO_FREQ_UP         0x1f40            psp/gym/ym2612.o
_ff6c               0x1               gbcore/cpu.o
mul                 0x4               gbcore/lcd.o
internal_buffer     0x100             render.o
c_regs_HL           0x2               gbcore/cpu.o
smptab_len          0x4               sound/sound.o
vframe_mem          0x20000           gbcore/gb.o
gblHint             0xc               psp/menuplus.o
osl_keys            0x4               c:/pspsdk/bin/../lib/gcc/psp/4.3.5/../../../../psp/lib\libosl.a(oslib.o)
mbc7_cs             0x1               gbcore/mbc.o
col_pal             0x80              gbcore/lcd.o
int_cnt             0x4               psp/gym/ym2612.o
snd_b_lowpass       0x1               gbcore/apu.o
sgb_ATF_list        0x3f48            gbcore/sgb.o
gblMenuAlpha        0x4               psp/menuplus.o
speed_change        0x1               gbcore/cpu.o
osl_ditheringEnabled
                    0x4               c:/pspsdk/bin/../lib/gcc/psp/4.3.5/../../../../psp/lib\libosl.a(drawing.o)
menuRamStateFileName
                    0x400             psp/menuplus.o
TL_TAB              0x18000           psp/gym/ym2612.o
io_current          0x4               pio.o
menuColorSubmenuTitle
                    0x4               psp/menuplus.o
audioOutTemp        0x8000            psp/PspSound.o
INTER_TAB           0x1f40            psp/gym/ym2612.o
tilePalList         0x180             gbcore/lcd.o
gu_states           0x4               c:/pspsdk/psp/sdk/lib\libpspgu.a(guInternal.o)
mbc7_op_code        0x1               gbcore/mbc.o
snd_b_enable        0x4               gbcore/apu.o
menuStatusActive    0x4               psp/menuplus.o
ScreenTemp          0x8               psp/VideoGu.o
gblFlagLoadParams   0x4               psp/menuplus.o
_ff74               0x1               gbcore/cpu.o
gu_object_stack_depth
                    0x4               c:/pspsdk/psp/sdk/lib\libpspgu.a(guInternal.o)
menuMusicLocked     0x4               psp/menuplus.o
osl_secondaryBufferImage
                    0x50              c:/pspsdk/bin/../lib/gcc/psp/4.3.5/../../../../psp/lib\libosl.a(drawing.o)
frame_underclock    0x4               system.o
msgBoxArrowOffset   0x4               psp/menuplus.o
render_obj          0x4               render.o
sgb_border_buffer   0x1c000           gbcore/sgb.o
int_invoke_next     0x1               gbcore/cpu.o
mbc7_write_enable   0x1               gbcore/mbc.o
snd_mem             0x100             gbcore/apu.o
osl_gifLineBuf      0x800             c:/pspsdk/bin/../lib/gcc/psp/4.3.5/../../../../psp/lib\libosl.a(oslLoadImageFileGIF.o)
sprite_count        0x4               gbcore/lcd.o
tileMapTileList     0x300             gbcore/lcd.o
rp_time             0x4               gbcore/cpu.o
osl_currentTexWrapU
                    0x4               c:/pspsdk/bin/../lib/gcc/psp/4.3.5/../../../../psp/lib\libosl.a(drawing.o)
PSG_SIN_Table       0x8000            psp/gym/psg.o
dma_rest            0x4               gbcore/cpu.o
gu_list             0x4               c:/pspsdk/psp/sdk/lib\libpspgu.a(guInternal.o)
menuAnimateCursor   0x4               psp/menuplus.o
z80_ICount          0x4               cpu/z80.o
c_regs_PC           0x2               gbcore/cpu.o
ge_list_executed    0x8               c:/pspsdk/psp/sdk/lib\libpspgu.a(guInternal.o)
osl_colorKeyEnabled
                    0x4               c:/pspsdk/bin/../lib/gcc/psp/4.3.5/../../../../psp/lib\libosl.a(drawing.o)
snd_write_que       0x80000           gbcore/apu.o
gdma_rest           0x4               gbcore/cpu.o
PSG                 0x60              psp/gym/psg.o
PSG_Enable          0x4               psp/gym/psg.o
menuFrameNb         0x4               psp/menuplus.o
osl_isinus          0x5a4             c:/pspsdk/bin/../lib/gcc/psp/4.3.5/../../../../psp/lib\libosl.a(oslib.o)
bg_name_dirty       0x200             render.o
YM2612              0x14d0            psp/gym/ym2612.o
speed               0x1               gbcore/cpu.o
vfpu_vars           0x10              c:/pspsdk/bin/../lib/gcc/psp/4.3.5/../../../../psp/lib\libosl.a(vfpu.o)
lut                 0x10000           render.o
in0                 0x4               psp/gym/ym2612.o
b_loaded            0x1               gbcore/rom.o
osl_gifTempPalette  0x4               c:/pspsdk/bin/../lib/gcc/psp/4.3.5/../../../../psp/lib\libosl.a(oslLoadImageFileGIF.o)
int_disable_next    0x1               gbcore/cpu.o
PSG_Save            0x20              psp/gym/psg.o
snd_bef_clock       0x4               gbcore/apu.o
sensor_x            0x4               psp/gameboy_render.o
DAC_Enable          0x4               psp/gym/ym2612.o
_c_regs             0xe               gbcore/cpu.o
seri_occer          0x4               gbcore/cpu.o
ram                 0x8000            gbcore/cpu.o
tilePalPalette_real
                    0x180             gbcore/lcd.o
menuPressedKeysAutorepeatInit
                    0x4               psp/menuplus.o
g_regs              0x15              gbcore/gb.o
halt                0x1               gbcore/cpu.o
osl_bilinearFilterEnabled
                    0x4               c:/pspsdk/bin/../lib/gcc/psp/4.3.5/../../../../psp/lib\libosl.a(drawing.o)
dmy                 0x640             gbcore/gb.o
gblIndice           0x4               psp/config.o
sgb_ATF             0x168             gbcore/sgb.o
osl_currentVramPtr  0x4               c:/pspsdk/bin/../lib/gcc/psp/4.3.5/../../../../psp/lib\libosl.a(vram_mgr.o)
NULL_RATE           0x80              psp/gym/ym2612.o
real_col_pal        0x80              gbcore/lcd.o
mbc7_ret            0x1               gbcore/mbc.o
gu_current_frame    0x4               c:/pspsdk/psp/sdk/lib\libpspgu.a(guInternal.o)
rom_page            0x4               gbcore/mbc.o
huc1_dat            0x1               gbcore/mbc.o
osl_colorKeyValue   0x4               c:/pspsdk/bin/../lib/gcc/psp/4.3.5/../../../../psp/lib\libosl.a(drawing.o)
c_regs_AF           0x2               gbcore/cpu.o
vram                0x4000            gbcore/cpu.o
bg_name_list        0x400             render.o
fadeLevel           0x4               psp/menuplus.o
c_regs_BC           0x2               gbcore/cpu.o
en2                 0x4               psp/gym/ym2612.o
n_mpal16            0x4               gbcore/lcd.o
gblColorItPaletteFileName
                    0x400             psp/menuplus.o
dma_dest            0x4               gbcore/cpu.o
hook_proc           0x8               gbcore/gb.o
gu_curr_context     0x4               c:/pspsdk/psp/sdk/lib\libpspgu.a(guInternal.o)
SL_TAB              0x40              psp/gym/ym2612.o
gu_call_mode        0x4               c:/pspsdk/psp/sdk/lib\libpspgu.a(guInternal.o)
gu_settings         0x3c              c:/pspsdk/psp/sdk/lib\libpspgu.a(guInternal.o)
io_lut              0x1000            pio.o
osl_pad             0x24              c:/pspsdk/bin/../lib/gcc/psp/4.3.5/../../../../psp/lib\libosl.a(keys.o)
nCheats             0x4               gbcore/cheat.o
gu_init             0x4               c:/pspsdk/psp/sdk/lib\libpspgu.a(guInternal.o)
c_regs_DE           0x2               gbcore/cpu.o
menuDayLightSaving  0x4               psp/menuplus.o
rest_clock          0x4               gbcore/cpu.o
alphaSave           0x8               psp/menuplus.o
osl_currentAlphaCoeff2
                    0x4               c:/pspsdk/bin/../lib/gcc/psp/4.3.5/../../../../psp/lib\libosl.a(drawing.o)
render_bg           0x4               render.o
dma_src             0x4               gbcore/cpu.o
osl_icosinus        0x5a4             c:/pspsdk/bin/../lib/gcc/psp/4.3.5/../../../../psp/lib\libosl.a(oslib.o)
menuRamStateMemory  0x4               psp/menuplus.o

Memory Configuration

Name             Origin             Length             Attributes
*default*        0x0000000000000000 0xffffffffffffffff

Linker script and memory map

LOAD c:/pspsdk/bin/../lib/gcc/psp/4.3.5/../../../../psp/lib/crt0.o
LOAD c:/pspsdk/bin/../lib/gcc/psp/4.3.5/crti.o
LOAD c:/pspsdk/bin/../lib/gcc/psp/4.3.5/crtbegin.o
LOAD gbcore/apu.o
LOAD gbcore/cheat.o
LOAD gbcore/cpu.o
LOAD gbcore/gb.o
LOAD gbcore/lcd.o
LOAD gbcore/mbc.o
LOAD gbcore/rom.o
LOAD gbcore/sgb.o
LOAD cpu/z80.o
LOAD memz80.o
LOAD pio.o
LOAD vdp.o
LOAD render.o
LOAD sms.o
LOAD system.o
LOAD sound/sound.o
LOAD sound/sn76489.o
LOAD sound/emu2413.o
LOAD sound/ym2413.o
LOAD sound/fmintf.o
LOAD sound/stream.o
LOAD psp/gameboy_render.o
LOAD psp/VideoGu.o
LOAD psp/Controls.o
LOAD psp/PspSound.o
LOAD psp/SMS.o
LOAD psp/main.o
LOAD psp/menuplus.o
LOAD psp/menuplus2.o
LOAD psp/config.o
LOAD psp/usb.o
LOAD psp/sound.o
LOAD fileio.o
LOAD state.o
LOAD loadrom.o
LOAD unzip/ioapi.o
LOAD unzip/unzip.o
LOAD psp/gym/gym.o
LOAD psp/gym/gym_play.o
LOAD psp/gym/psg.o
LOAD psp/gym/ym2612.o
LOAD psp/gym/bzlib/blocksort.o
LOAD psp/gym/bzlib/bzlib.o
LOAD psp/gym/bzlib/compress.o
LOAD psp/gym/bzlib/crctable.o
LOAD psp/gym/bzlib/decompress.o
LOAD psp/gym/bzlib/huffman.o
LOAD psp/gym/bzlib/randtable.o
LOAD psp/vgm/mame_fm.o
LOAD psp/vgm/emu2413.o
LOAD psp/vgm/sn76489.o
LOAD psp/vgm/mame_ym2151.o
LOAD psp/vgm/In_vgm.o
LOAD psp/gz.o
LOAD psp/VirtualGz.o
LOAD psp/deflate.o
LOAD psp/gzio.o
LOAD error.o
LOAD c:/pspsdk/bin/../lib/gcc/psp/4.3.5/../../../../psp/lib\libosl.a
LOAD c:/pspsdk/bin/../lib/gcc/psp/4.3.5/../../../../psp/lib\libpng.a
LOAD c:/pspsdk/bin/../lib/gcc/psp/4.3.5/../../../../psp/lib\libz.a
LOAD c:/pspsdk/bin/../lib/gcc/psp/4.3.5/../../../../psp/lib\libjpeg.a
LOAD c:/pspsdk/psp/sdk/lib\libpspsdk.a
LOAD c:/pspsdk/psp/sdk/lib\libpsphprm.a
LOAD c:/pspsdk/psp/sdk/lib\libpspctrl.a
LOAD c:/pspsdk/psp/sdk/lib\libpspumd.a
LOAD c:/pspsdk/psp/sdk/lib\libpsprtc.a
LOAD c:/pspsdk/psp/sdk/lib\libpsppower.a
LOAD c:/pspsdk/psp/sdk/lib\libpspusb.a
LOAD c:/pspsdk/psp/sdk/lib\libpspusbstor.a
LOAD c:/pspsdk/psp/sdk/lib\libpspgu.a
LOAD c:/pspsdk/psp/sdk/lib\libpspaudiolib.a
LOAD c:/pspsdk/psp/sdk/lib\libpspaudio.a
LOAD c:/pspsdk/bin/../lib/gcc/psp/4.3.5/../../../../psp/lib\libstdc++.a
LOAD c:/pspsdk/bin/../lib/gcc/psp/4.3.5/../../../../psp/lib\libm.a
LOAD c:/pspsdk/psp/sdk/lib\libpspdebug.a
LOAD c:/pspsdk/psp/sdk/lib\libpspdisplay.a
LOAD c:/pspsdk/psp/sdk/lib\libpspge.a
LOAD c:/pspsdk/psp/sdk/lib\libpspctrl.a
LOAD c:/pspsdk/psp/sdk/lib\libpspsdk.a
LOAD c:/pspsdk/bin/../lib/gcc/psp/4.3.5/../../../../psp/lib\libc.a
LOAD c:/pspsdk/psp/sdk/lib\libpspnet.a
LOAD c:/pspsdk/psp/sdk/lib\libpspnet_inet.a
LOAD c:/pspsdk/psp/sdk/lib\libpspnet_apctl.a
LOAD c:/pspsdk/psp/sdk/lib\libpspnet_resolver.a
LOAD c:/pspsdk/psp/sdk/lib\libpsputility.a
LOAD c:/pspsdk/psp/sdk/lib\libpspuser.a
LOAD c:/pspsdk/psp/sdk/lib\libpspkernel.a
LOAD c:/pspsdk/bin/../lib/gcc/psp/4.3.5\libgcc.a
LOAD c:/pspsdk/bin/../lib/gcc/psp/4.3.5\libgcc.a
LOAD c:/pspsdk/bin/../lib/gcc/psp/4.3.5/crtend.o
LOAD c:/pspsdk/bin/../lib/gcc/psp/4.3.5/crtn.o
                0x0000000008900000                PROVIDE (__executable_start, 0x8900000)
                0x0000000008900000                . = 0x8900000

.interp
 *(.interp)

.reginfo        0x0000000008900000       0x18
 *(.reginfo)
 .reginfo       0x0000000008900000       0x18 c:/pspsdk/bin/../lib/gcc/psp/4.3.5/../../../../psp/lib/crt0.o

.dynamic
 *(.dynamic)

.hash
 *(.hash)

.dynsym
 *(.dynsym)

.dynstr
 *(.dynstr)

.gnu.version
 *(.gnu.version)

.gnu.version_d
 *(.gnu.version_d)

.gnu.version_r
 *(.gnu.version_r)

.rel.dyn

.rel.init
 *(.rel.init)

.rela.init
 *(.rela.init)

.rel.text
 *(.rel.text .rel.text.* .rel.gnu.linkonce.t.*)

.rela.text
 *(.rela.text .rela.text.* .rela.gnu.linkonce.t.*)

.rel.fini
 *(.rel.fini)

.rela.fini
 *(.rela.fini)

.rel.sceStub.text
 *(.rel.sceStub.text)
 *(SORT(.rel.sceStub.text.*))

.rel.lib.ent.top
 *(.rel.lib.ent.top)

.rel.lib.ent
 *(.rel.lib.ent)

.rel.lib.ent.btm
 *(.rel.lib.ent.btm)

.rel.lib.stub.top
 *(.rel.lib.stub.top)

.rel.lib.stub
 *(.rel.lib.stub)

.rel.lib.stub.btm
 *(.rel.lib.stub.btm)

.rel.rodata.sceModuleInfo
 *(.rel.rodata.sceModuleInfo)

.rel.rodata.sceResident
 *(.rel.rodata.sceResident)

.rel.rodata.sceNid
 *(.rel.rodata.sceNid)

.rel.rodata.sceVstub
 *(.rel.rodata.sceVstub)
 *(SORT(.rel.rodata.sceVstub.*))

.rel.rodata
 *(.rel.rodata .rel.rodata.* .rel.gnu.linkonce.r.*)

.rela.rodata
 *(.rela.rodata .rela.rodata.* .rela.gnu.linkonce.r.*)

.rel.data.rel.ro
 *(.rel.data.rel.ro*)

.rela.data.rel.ro
 *(.rel.data.rel.ro*)

.rel.data
 *(.rel.data .rel.data.* .rel.gnu.linkonce.d.*)

.rela.data
 *(.rela.data .rela.data.* .rela.gnu.linkonce.d.*)

.rel.tdata
 *(.rel.tdata .rel.tdata.* .rel.gnu.linkonce.td.*)

.rela.tdata
 *(.rela.tdata .rela.tdata.* .rela.gnu.linkonce.td.*)

.rel.tbss
 *(.rel.tbss .rel.tbss.* .rel.gnu.linkonce.tb.*)

.rela.tbss
 *(.rela.tbss .rela.tbss.* .rela.gnu.linkonce.tb.*)

.rel.ctors
 *(.rel.ctors)

.rela.ctors
 *(.rela.ctors)

.rel.dtors
 *(.rel.dtors)

.rela.dtors
 *(.rela.dtors)

.rel.got
 *(.rel.got)

.rela.got
 *(.rela.got)

.rel.sdata
 *(.rel.sdata .rel.sdata.* .rel.gnu.linkonce.s.*)

.rela.sdata
 *(.rela.sdata .rela.sdata.* .rela.gnu.linkonce.s.*)

.rel.sbss
 *(.rel.sbss .rel.sbss.* .rel.gnu.linkonce.sb.*)

.rela.sbss
 *(.rela.sbss .rela.sbss.* .rela.gnu.linkonce.sb.*)

.rel.sdata2
 *(.rel.sdata2 .rel.sdata2.* .rel.gnu.linkonce.s2.*)

.rela.sdata2
 *(.rela.sdata2 .rela.sdata2.* .rela.gnu.linkonce.s2.*)

.rel.sbss2
 *(.rel.sbss2 .rel.sbss2.* .rel.gnu.linkonce.sb2.*)

.rela.sbss2
 *(.rela.sbss2 .rela.sbss2.* .rela.gnu.linkonce.sb2.*)

.rel.bss
 *(.rel.bss .rel.bss.* .rel.gnu.linkonce.b.*)

.rela.bss
 *(.rela.bss .rela.bss.* .rela.gnu.linkonce.b.*)

.rel.plt
 *(.rel.plt)

.rela.plt
 *(.rela.plt)

.init           0x0000000008900018       0x24
 *(.init)
 .init          0x0000000008900018        0x8 c:/pspsdk/bin/../lib/gcc/psp/4.3.5/crti.o
                0x0000000008900018                _init
 .init          0x0000000008900020        0x8 c:/pspsdk/bin/../lib/gcc/psp/4.3.5/crtbegin.o
 .init          0x0000000008900028        0x8 c:/pspsdk/bin/../lib/gcc/psp/4.3.5/crtend.o
 .init          0x0000000008900030        0xc c:/pspsdk/bin/../lib/gcc/psp/4.3.5/crtn.o

.plt
 *(.plt)

.text           0x000000000890003c   0x12841c
                0x000000000890003c                _ftext = .
 *(.text .stub .text.* .gnu.linkonce.t.*)
 .text          0x000000000890003c      0x1ec c:/pspsdk/bin/../lib/gcc/psp/4.3.5/../../../../psp/lib/crt0.o
                0x000000000890003c                _start
                0x0000000008900180                _main
 .text          0x0000000008900228      0x140 c:/pspsdk/bin/../lib/gcc/psp/4.3.5/crtbegin.o
 .text          0x0000000008900368     0x28cc gbcore/apu.o
                0x0000000008900454                apu_get_stat_gen
                0x0000000008901274                snd_render
                0x0000000008900440                apu_update
                0x0000000008900fc4                snd_get_lowpass
                0x0000000008900bc0                snd_noi_produce
                0x00000000089010c0                snd_reset
                0x0000000008900d28                snd_update
                0x00000000089004a8                snd_get_enable
                0x0000000008900fb8                snd_set_lowpass
                0x0000000008900448                apu_get_stat_cpu
                0x00000000089004bc                snd_process
                0x0000000008901d70                snd_render_orig
                0x0000000008900494                snd_set_enable
                0x0000000008900ab0                snd_wav_produce
                0x0000000008900fd0                apu_write
                0x0000000008900a08                snd_sq2_produce
                0x0000000008902a5c                apu_init
                0x000000000890046c                snd_init
                0x00000000089028a8                apu_reset
                0x0000000008900368                apu_read
                0x0000000008900460                apu_get_mem
                0x0000000008900960                snd_sq1_produce
 .text          0x0000000008902c34      0xa30 gbcore/cheat.o
                0x000000000890302c                cheat_init
                0x0000000008902c80                cheat_write
                0x0000000008902d80                cheat_decreate_cheat_map
                0x0000000008903020                cheat_clear
                0x0000000008903038                cheat_load
                0x0000000008902c34                hex2n
                0x0000000008902e98                cheat_create_cheat_map
 .text          0x0000000008903664     0xf8f8 gbcore/cpu.o
                0x0000000008906074                op_code_cb_case0x15
                0x00000000089074d4                op_code_normal_case0xA0
                0x00000000089057f8                op_code_cb_case0xFF
                0x0000000008905c48                op_code_cb_case0xBD
                0x000000000890c3d4                op_code_normal_case0xC9
                0x000000000890aff8                cpu_read
                0x000000000890794c                op_code_normal_case0xBA
                0x000000000890dfe0                op_code_normal_case0x2A
                0x000000000890fde8                op_code_cb_case0xAE
                0x000000000890568c                op_code_cb_case0xEB
                0x0000000008905bd0                op_code_cb_case0xB7
                0x0000000008905704                op_code_cb_case0xF2
                0x0000000008906bd4                op_code_normal_case0x7D
                0x000000000890bb24                op_code_normal_case0xF6
                0x00000000089084b4                cpu_set_c_regs
                0x0000000008906984                op_code_normal_case0x51
                0x00000000089108d8                op_code_cb_case0x8E
                0x00000000089055b0                op_code_cb_case0xDF
                0x0000000008906dcc                op_code_normal_case0x87
                0x0000000008906a98                op_code_normal_case0x62
                0x0000000008906bf0                op_code_normal_case0xF9
                0x000000000890695c                op_code_normal_case0x4F
                0x000000000890b6a8                op_code_normal_case0x0A
                0x00000000089061a0                op_code_cb_case0x1B
                0x0000000008912390                op_code_cb_case0x7E
                0x000000000890baf0                op_code_normal_case0x06
                0x0000000008905b30                op_code_cb_case0xAD
                0x0000000008905678                op_code_cb_case0xEA
                0x000000000890b67c                op_code_normal_case0x1A
                0x00000000089062c4                op_code_cb_case0x21
                0x0000000008904eb4                op_code_cb_case0x64
                0x000000000890be9c                op_code_normal_case0xEE
                0x0000000008904708                cpu_restore_state_ex
                0x00000000089053e4                op_code_cb_case0xC4
                0x0000000008907c94                op_code_normal_case0x05
                0x000000000890c43c                op_code_normal_case0xD9
                0x0000000008906920                op_code_normal_case0x4B
                0x0000000008906f10                op_code_normal_case0x8B
                0x0000000008906c9c                op_code_normal_case0x82
                0x0000000008906128                op_code_cb_case0x19
                0x0000000008903714                cpu_save_state_ex
                0x0000000008904a08                op_code_cb_case0x4A
                0x000000000890a140                op_code_normal_case0x72
                0x000000000890cacc                op_code_normal_case0x01
                0x000000000890db60                op_code_normal_case0x46
                0x0000000008906a04                op_code_normal_case0x59
                0x000000000890b84c                op_code_cb_case0x56
                0x0000000008905f84                op_code_cb_case0x11
                0x000000000890584c                op_code_cb_case0x83
                0x00000000089054fc                op_code_cb_case0xD4
                0x000000000890545c                op_code_cb_case0xCB
                0x000000000890b730                op_code_normal_case0x66
                0x0000000008910e50                op_code_cb_case0xFE
                0x0000000008908254                op_code_normal_case0x00
                0x00000000089068c8                op_code_normal_case0x45
                0x0000000008908058                op_code_normal_case0x1B
                0x0000000008910360                op_code_cb_case0x9E
                0x0000000008909268                cpu_init
                0x00000000089077d4                op_code_normal_case0xB2
                0x0000000008905ee0                op_code_cb_case0x0D
                0x0000000008907a30                op_code_normal_case0xBD
                0x00000000089071a0                op_code_normal_case0x94
                0x000000000890c598                op_code_normal_case0xCD
                0x0000000008905ba8                op_code_cb_case0xB4
                0x0000000008905978                op_code_cb_case0x94
                0x000000000890563c                op_code_cb_case0xE7
                0x000000000890cc98                op_code_normal_case0xC4
                0x000000000890b930                op_read
                0x000000000890b8e4                op_code_cb_case0x46
                0x0000000008905d0c                op_code_cb_case0x03
                0x0000000008907268                op_code_normal_case0x98
                0x00000000089065d4                op_code_cb_case0x3B
                0x0000000008906550                op_code_cb_case0x38
                0x0000000008905754                op_code_cb_case0xF7
                0x000000000890518c                op_code_cb_case0x74
                0x0000000008904de4                op_code_cb_case0x60
                0x000000000890beec                op_code_normal_case0x16
                0x0000000008904b40                op_code_cb_case0x51
                0x0000000008905434                op_code_cb_case0xC9
                0x0000000008905ddc                op_code_cb_case0x08
                0x000000000890cee4                op_code_normal_case0xC2
                0x00000000089066e8                op_code_cb_case0x32
                0x00000000089051f4                op_code_cb_case0x77
                0x0000000008907b2c                op_code_normal_case0x14
                0x00000000089075a4                op_code_normal_case0xA4
                0x00000000089100a4                op_code_cb_case0xA6
                0x0000000008905928                op_code_cb_case0x90
                0x0000000008905600                op_code_cb_case0xE3
                0x000000000890cf80                op_code_normal_case0xDC
                0x0000000008906934                op_code_normal_case0x4C
                0x0000000008906658                op_code_cb_case0x3F
                0x0000000008906b40                op_code_normal_case0x6C
                0x000000000890b320                op_code_normal_case0xB6
                0x0000000008904b0c                op_code_cb_case0x50
                0x0000000008906a34                op_code_normal_case0x5C
                0x0000000008905f14                op_code_cb_case0x0F
                0x000000000890b898                op_code_cb_case0x4E
                0x0000000008905e78                op_code_cb_case0x0B
                0x0000000008905c20                op_code_cb_case0xBB
                0x0000000008906c04                op_code_normal_case0x80
                0x0000000008905b94                op_code_cb_case0xB3
                0x0000000008907c4c                op_code_normal_case0x3C
                0x000000000890c0f8                op_code_normal_case0xE8
                0x0000000008907724                op_code_normal_case0xAD
                0x000000000890589c                op_code_cb_case0x88
                0x000000000890554c                op_code_cb_case0xD9
                0x0000000008905498                op_code_cb_case0xCF
                0x000000000890b6d4                op_code_normal_case0x7E
                0x0000000008906a84                op_code_normal_case0x61
                0x0000000008906870                op_code_normal_case0x40
                0x0000000008907f64                op_code_normal_case0x29
                0x000000000890825c                op_code_normal_case0xF3
                0x00000000089063e4                op_code_cb_case0x28
                0x0000000008907998                op_code_normal_case0xBB
                0x0000000008904d48                op_code_cb_case0x5C
                0x0000000008907240                op_code_normal_case0x97
                0x0000000008909334                cpu_seri_send
                0x000000000890489c                op_code_cb_case0x42
                0x0000000008908044                op_code_normal_case0x0B
                0x0000000008905020                op_code_cb_case0x6C
                0x00000000089083cc                cpu_set_trace
                0x000000000891061c                op_code_cb_case0x96
                0x0000000008905664                op_code_cb_case0xE9
                0x000000000890be5c                op_code_normal_case0xF0
                0x000000000890993c                op_code_normal_case0xC5
                0x00000000089069f0                op_code_normal_case0x58
                0x0000000008907894                op_code_normal_case0xB7
                0x000000000890a690                op_code_normal_case0x22
                0x0000000008906ac8                op_code_normal_case0x65
                0x0000000008906b54                op_code_normal_case0x6D
                0x00000000089052c4                op_code_cb_case0x7B
                0x0000000008906ac0                op_code_normal_case0x64
                0x0000000008906718                op_code_cb_case0x33
                0x0000000008905228                op_code_cb_case0x78
                0x00000000089113a0                op_code_cb_case0xEE
                0x00000000089059f0                op_code_cb_case0x9B
                0x000000000890d1cc                op_code_normal_case0xCA
                0x00000000089110f8                op_code_cb_case0xF6
                0x0000000008908408                cpu_get_ram_bank
                0x0000000008907f14                op_code_normal_case0x19
                0x0000000008907150                op_code_normal_case0x93
                0x000000000890651c                op_code_cb_case0x2F
                0x000000000890c6ec                op_code_normal_case0x31
                0x0000000008905394                op_code_cb_case0xC0
                0x0000000008906878                op_code_normal_case0x41
                0x0000000008907b74                op_code_normal_case0x1C
                0x00000000089081fc                op_code_normal_case0x2F
                0x00000000089063b4                op_code_cb_case0x27
                0x00000000089058d8                op_code_cb_case0x8B
                0x0000000008905588                op_code_cb_case0xDC
                0x000000000890ce48                op_code_normal_case0xD2
                0x000000000890801c                op_code_normal_case0x23
                0x000000000890ca44                op_code_normal_case0xC0
                0x0000000008907d34                op_code_normal_case0x15
                0x0000000008906970                op_code_normal_case0x50
                0x00000000089047d0                cpu_irq_check
                0x0000000008904bdc                op_code_cb_case0x54
                0x0000000008905158                op_code_cb_case0x73
                0x0000000008909e44                op_code_normal_case0x75
                0x0000000008907ec4                op_code_normal_case0x09
                0x000000000890598c                op_code_cb_case0x95
                0x0000000008905650                op_code_cb_case0xE8
                0x0000000008908008                op_code_normal_case0x13
                0x000000000890b800                op_code_cb_case0x5E
                0x0000000008912978                op_code_normal_case0x86
                0x0000000008905d40                op_code_cb_case0x04
                0x000000000890496c                op_code_cb_case0x47
                0x0000000008906b98                op_code_normal_case0x7A
                0x000000000890ba30                op_code_normal_case0xC6
                0x0000000008905420                op_code_cb_case0xC8
                0x0000000008905c0c                op_code_cb_case0xBA
                0x0000000008905768                op_code_cb_case0xF8
                0x0000000008906eb8                op_code_normal_case0x8A
                0x000000000890c754                op_code_normal_case0xD8
                0x0000000008905a04                op_code_cb_case0x9C
                0x00000000089056c8                op_code_cb_case0xEF
                0x0000000008904fec                op_code_cb_case0x6B
                0x0000000008905ab8                op_code_cb_case0xA7
                0x000000000890593c                op_code_cb_case0x91
                0x0000000008905614                op_code_cb_case0xE4
                0x00000000089064e8                op_code_cb_case0x2D
                0x00000000089079e4                op_code_normal_case0xBC
                0x0000000008911e40                op_code_cb_case0xCE
                0x0000000008906a70                op_code_normal_case0x60
                0x0000000008905f48                op_code_cb_case0x10
                0x0000000008904c10                op_code_cb_case0x55
                0x0000000008909ad8                op_code_normal_case0xCF
                0x000000000890f870                op_code_cb_case0xBE
                0x0000000008906218                op_code_cb_case0x1D
                0x0000000008906748                op_code_cb_case0x34
                0x000000000890525c                op_code_cb_case0x79
                0x0000000008907a9c                op_code_normal_case0x04
                0x0000000008906904                op_code_normal_case0x49
                0x0000000008905be4                op_code_cb_case0xB8
                0x0000000008905718                op_code_cb_case0xF3
                0x0000000008907804                op_code_normal_case0xB3
                0x00000000089067d8                op_code_normal_case0x10
                0x0000000008907434                op_code_normal_case0x9D
                0x0000000008909a00                op_code_normal_case0xEF
                0x0000000008905da8                op_code_cb_case0x07
                0x0000000008904868                op_code_cb_case0x41
                0x0000000008907634                op_code_normal_case0xA8
                0x000000000890b4e0                op_code_normal_case0x8E
                0x0000000008907570                op_code_normal_case0xA3
                0x0000000008906a2c                op_code_normal_case0x5B
                0x000000000890737c                op_code_normal_case0x9B
                0x00000000089057c8                op_code_cb_case0xFC
                0x000000000890f588                op_code_cb_case0x06
                0x00000000089049d4                op_code_cb_case0x49
                0x00000000089097b4                op_code_normal_case0xE5
                0x0000000008905b80                op_code_cb_case0xB2
                0x000000000890c16c                op_code_normal_case0x2E
                0x00000000089068b4                op_code_normal_case0x44
                0x0000000008912b80                op_code_normal_case0xF1
                0x0000000008906ce8                op_code_normal_case0x83
                0x0000000008904d7c                op_code_cb_case0x5D
                0x00000000089078b4                op_code_normal_case0xB8
                0x000000000890e794                op_code_cb_case0x2E
                0x000000000890b700                op_code_normal_case0x6E
                0x0000000008905290                op_code_cb_case0x7A
                0x00000000089093d4                op_code_normal_case0x76
                0x00000000089059c8                op_code_cb_case0x99
                0x000000000890644c                op_code_cb_case0x2A
                0x0000000008905054                op_code_cb_case0x6D
                0x0000000008905a90                op_code_cb_case0xA4
                0x00000000089055d8                op_code_cb_case0xE1
                0x000000000890bda8                op_code_normal_case0x3E
                0x000000000890838c                op_code_normal_case0x1F
                0x00000000089071f0                op_code_normal_case0x95
                0x0000000008907ae4                op_code_normal_case0x0C
                0x00000000089090b0                cpu_reset
                0x0000000008905bbc                op_code_cb_case0xB5
                0x00000000089056dc                op_code_cb_case0xF0
                0x0000000008908f54                cpu_read_direct_ord
                0x0000000008905d74                op_code_cb_case0x05
                0x00000000089049a0                op_code_cb_case0x48
                0x000000000890823c                op_code_normal_case0x37
                0x00000000089053f8                op_code_cb_case0xC5
                0x000000000890c9bc                op_code_normal_case0xC8
                0x0000000008907774                op_code_normal_case0xB0
                0x0000000008906bc0                op_code_normal_case0x7C
                0x0000000008912588                op_code_cb_case0x76
                0x000000000890a040                op_code_normal_case0x73
                0x00000000089066b8                op_code_cb_case0x31
                0x000000000890ac10                cpu_irq_process
                0x0000000008908360                op_code_normal_case0x17
                0x00000000089069dc                op_code_normal_case0x57
                0x0000000008906aac                op_code_normal_case0x63
                0x0000000008907a7c                op_code_normal_case0xBF
                0x000000000890d9a8                op_code_normal_case0x4E
                0x000000000890d6ac                op_code_normal_case0x35
                0x000000000890ea70                op_code_cb_case0x26
                0x0000000008904f84                op_code_cb_case0x69
                0x00000000089058c4                op_code_cb_case0x8A
                0x0000000008905574                op_code_cb_case0xDB
                0x0000000008905acc                op_code_cb_case0xA8
                0x0000000008905950                op_code_cb_case0x92
                0x0000000008905628                op_code_cb_case0xE5
                0x0000000008905914                op_code_cb_case0x8F
                0x000000000890c62c                op_code_normal_case0xC3
                0x0000000008907100                op_code_normal_case0x92
                0x000000000890bf20                op_code_normal_case0xCE
                0x000000000890b174                op_code_normal_case0x34
                0x00000000089083f0                cpu_get_oam
                0x0000000008906af0                op_code_normal_case0x68
                0x000000000890bddc                op_code_normal_case0xDE
                0x00000000089061dc                op_code_cb_case0x1C
                0x000000000890c864                op_code_normal_case0xEA
                0x0000000008907754                op_code_normal_case0xAF
                0x00000000089058b0                op_code_cb_case0x89
                0x0000000008911b98                op_code_cb_case0xD6
                0x0000000008905874                op_code_cb_case0x85
                0x00000000089060ec                op_code_cb_case0x18
                0x00000000089098e4                op_code_normal_case0xD5
                0x000000000890a548                op_code_normal_case0x32
                0x0000000008905b1c                op_code_cb_case0xAC
                0x00000000089064b4                op_code_cb_case0x2C
                0x0000000008905088                op_code_cb_case0x6F
                0x0000000008906418                op_code_cb_case0x29
                0x0000000008906294                op_code_cb_case0x20
                0x0000000008904e80                op_code_cb_case0x63
                0x0000000008905fc0                op_code_cb_case0x12
                0x0000000008904c44                op_code_cb_case0x57
                0x0000000008908094                op_code_normal_case0x27
                0x0000000008909c44                op_code_normal_case0x02
                0x00000000089095e8                cpu_write
                0x0000000008905810                op_code_cb_case0x80
                0x00000000089054c0                op_code_cb_case0xD1
                0x000000000890bf98                op_code_normal_case0xF8
                0x00000000089050f0                op_code_cb_case0x71
                0x0000000008903748                _memcpy4x
                0x00000000089068dc                op_code_normal_case0x47
                0x000000000890657c                op_code_cb_case0x39
                0x0000000008911648                op_code_cb_case0xE6
                0x0000000008905ae0                op_code_cb_case0xA9
                0x0000000008905964                op_code_cb_case0x93
                0x0000000008904e18                op_code_cb_case0x61
                0x0000000008907060                op_code_normal_case0x90
                0x000000000890b7b4                op_code_cb_case0x66
                0x0000000008906324                op_code_cb_case0x23
                0x0000000008906b2c                op_code_normal_case0x6B
                0x0000000008907864                op_code_normal_case0xB5
                0x000000000890b3fc                op_code_normal_case0x9E
                0x000000000890c1a0                op_code_normal_case0x0E
                0x00000000089077a4                op_code_normal_case0xB1
                0x00000000089065a8                op_code_cb_case0x3A
                0x0000000008905360                op_code_cb_case0x7F
                0x0000000008906a48                op_code_normal_case0x5D
                0x000000000890b994                op_code_normal_case0xCB
                0x0000000008906b84                op_code_normal_case0x79
                0x0000000008905560                op_code_cb_case0xDA
                0x00000000089075d8                op_code_normal_case0xA5
                0x0000000008906f68                op_code_normal_case0x8C
                0x0000000008907018                op_code_normal_case0x8F
                0x0000000008904ce0                op_code_cb_case0x5A
                0x000000000890b2b8                op_code_normal_case0xBE
                0x0000000008905470                op_code_cb_case0xCC
                0x0000000008906164                op_code_cb_case0x1A
                0x0000000008905448                op_code_cb_case0xCA
                0x0000000008904db0                op_code_cb_case0x5F
                0x00000000089057b0                op_code_cb_case0xFB
                0x00000000089120e8                op_code_cb_case0xC6
                0x000000000890ba9c                op_code_normal_case0xE6
                0x00000000089053bc                op_code_cb_case0xC2
                0x000000000890a340                op_code_normal_case0x70
                0x000000000890806c                op_code_normal_case0x2B
                0x00000000089059a0                op_code_cb_case0x97
                0x0000000008905a18                op_code_cb_case0x9D
                0x0000000008905eac                op_code_cb_case0x0C
                0x0000000008904ad8                op_code_cb_case0x4F
                0x0000000008906b70                op_code_normal_case0x78
                0x000000000890c7dc                op_code_normal_case0xD0
                0x0000000008906e60                op_code_normal_case0x89
                0x0000000008907490                op_code_normal_case0x9F
                0x000000000890d0f4                op_code_normal_case0xCC
                0x0000000008904a3c                op_code_cb_case0x4B
                0x000000000890bc1c                op_code_normal_case0xE0
                0x0000000008908e94                cpu_write_direct
                0x0000000008906688                op_code_cb_case0x30
                0x00000000089051c0                op_code_cb_case0x75
                0x0000000008908220                op_code_normal_case0x3F
                0x000000000890b788                op_code_normal_case0x56
                0x0000000008905888                op_code_cb_case0x87
                0x0000000008905538                op_code_cb_case0xD8
                0x00000000089069c8                op_code_normal_case0x55
                0x000000000890bba8                op_code_normal_case0xD6
                0x0000000008907fa4                op_code_normal_case0x39
                0x00000000089083e4                cpu_get_ram
                0x000000000890cbc0                op_code_normal_case0x11
                0x000000000890de04                op_code_normal_case0x3A
                0x000000000890980c                op_code_normal_case0xE7
                0x0000000008908310                op_code_normal_case0x07
                0x0000000008907ce4                op_code_normal_case0x0D
                0x000000000890a7d8                writew
                0x0000000008906c50                op_code_normal_case0x81
                0x000000000890b75c                op_code_normal_case0x5E
                0x0000000008905a7c                op_code_cb_case0xA3
                0x00000000089055c4                op_code_cb_case0xE0
                0x000000000890b3b0                op_code_normal_case0xA6
                0x0000000008904d14                op_code_cb_case0x5B
                0x00000000089070b0                op_code_normal_case0x91
                0x000000000890b948                readw
                0x0000000008905cd8                op_code_cb_case0x02
                0x0000000008904938                op_code_cb_case0x45
                0x00000000089057e0                op_code_cb_case0xFD
                0x0000000008906adc                op_code_normal_case0x67
                0x0000000008905c34                op_code_cb_case0xBC
                0x000000000890688c                op_code_normal_case0x42
                0x0000000008907c04                op_code_normal_case0x2C
                0x00000000089069a0                op_code_normal_case0x53
                0x00000000089096e0                op_code_normal_case0xFF
                0x000000000890e4dc                op_code_cb_case0x3E
                0x000000000890b550                op_code_normal_case0xE1
                0x0000000008907508                op_code_normal_case0xA1
                0x000000000890e1bc                op_code_cb_case0x36
                0x00000000089059dc                op_code_cb_case0x9A
                0x00000000089056b4                op_code_cb_case0xED
                0x0000000008909b44                op_code_normal_case0x12
                0x000000000890b618                op_code_normal_case0xC1
                0x0000000008908430                cpu_get_clock
                0x00000000089076f4                op_code_normal_case0xAC
                0x000000000890bb74                op_code_normal_case0x26
                0x00000000089053d0                op_code_cb_case0xC3
                0x000000000890cc28                op_code_normal_case0xFA
                0x0000000008905c70                op_code_cb_case0x00
                0x00000000089048d0                op_code_cb_case0x43
                0x00000000089050bc                op_code_cb_case0x70
                0x000000000890d058                op_code_normal_case0xDA
                0x0000000008910b94                op_code_cb_case0x86
                0x0000000008908454                cpu_get_c_regs
                0x0000000008905524                op_code_cb_case0xD7
                0x0000000008905e44                op_code_cb_case0x0A
                0x0000000008904aa4                op_code_cb_case0x4D
                0x0000000008904834                op_code_cb_case0x40
                0x0000000008905740                op_code_cb_case0xF5
                0x0000000008909a6c                op_code_normal_case0xD7
                0x0000000008905b58                op_code_cb_case0xB0
                0x00000000089118f0                op_code_cb_case0xDE
                0x0000000008905900                op_code_cb_case0x8D
                0x0000000008905ffc                op_code_cb_case0x13
                0x0000000008904c78                op_code_cb_case0x58
                0x0000000008907dd4                op_code_normal_case0x25
                0x00000000089060b0                op_code_cb_case0x17
                0x0000000008905824                op_code_cb_case0x81
                0x00000000089054d4                op_code_cb_case0xD2
                0x0000000008906bac                op_code_normal_case0x7B
                0x0000000008905c5c                op_code_cb_case0xBF
                0x0000000008905798                op_code_cb_case0xFA
                0x000000000890974c                op_code_normal_case0xC7
                0x0000000008905ca4                op_code_cb_case0x01
                0x0000000008904904                op_code_cb_case0x44
                0x00000000089052f8                op_code_cb_case0x7C
                0x0000000008908080                op_code_normal_case0x3B
                0x0000000008906600                op_code_cb_case0x3C
                0x0000000008909994                op_code_normal_case0xF7
                0x0000000008906998                op_code_normal_case0x52
                0x000000000890bd38                op_code_normal_case0xFE
                0x000000000890c684                op_code_normal_case0x21
                0x0000000008906948                op_code_normal_case0x4D
                0x000000000890d268                cpu_exec
                0x000000000890ed48                op_code_cb_case0x1E
                0x000000000890b474                op_code_normal_case0x96
                0x0000000008906254                op_code_cb_case0x1F
                0x000000000890a240                op_code_normal_case0x71
                0x000000000890540c                op_code_cb_case0xC7
                0x0000000008903664                cpu_save_state
                0x0000000008906fc0                op_code_normal_case0x8D
                0x0000000008905af4                op_code_cb_case0xAA
                0x0000000008905b08                op_code_cb_case0xAB
                0x0000000008903774                _memcpy40
                0x0000000008905a40                op_code_cb_case0xA0
                0x0000000008906b18                op_code_normal_case0x6A
                0x00000000089067a8                op_code_cb_case0x37
                0x0000000008907694                op_code_normal_case0xAA
                0x00000000089073d8                op_code_normal_case0x9C
                0x0000000008907664                op_code_normal_case0xA9
                0x00000000089083fc                cpu_get_stack
                0x000000000890b9ec                op_code_normal_case0x18
                0x0000000008904ba8                op_code_cb_case0x53
                0x0000000008904a70                op_code_cb_case0x4C
                0x00000000089053a8                op_code_cb_case0xC1
                0x0000000008908030                op_code_normal_case0x33
                0x000000000890532c                op_code_cb_case0x7D
                0x0000000008909f40                op_code_normal_case0x74
                0x0000000008904fb8                op_code_cb_case0x6A
                0x0000000008907d84                op_code_normal_case0x1D
                0x0000000008906a5c                op_code_normal_case0x5F
                0x0000000008907834                op_code_normal_case0xB4
                0x0000000008906354                op_code_cb_case0x24
                0x0000000008904f1c                op_code_cb_case0x67
                0x00000000089058ec                op_code_cb_case0x8C
                0x000000000890559c                op_code_cb_case0xDD
                0x000000000890760c                op_code_normal_case0xA7
                0x000000000890c534                op_readw
                0x0000000008906d80                op_code_normal_case0x85
                0x000000000890662c                op_code_cb_case0x3D
                0x00000000089054ac                op_code_cb_case0xD0
                0x0000000008907320                op_code_normal_case0x9A
                0x0000000008908448                cpu_get_halt
                0x0000000008906b04                op_code_normal_case0x69
                0x0000000008907e24                op_code_normal_case0x2D
                0x0000000008905b6c                op_code_cb_case0xB1
                0x00000000089072c4                op_code_normal_case0x99
                0x000000000890c254                op_code_normal_case0x20
                0x000000000890843c                cpu_get_speed
                0x000000000890c1d4                op_code_normal_case0x30
                0x000000000890a440                op_code_normal_case0xE2
                0x0000000008907ff4                op_code_normal_case0x03
                0x00000000089068f0                op_code_normal_case0x48
                0x000000000890fb2c                op_code_cb_case0xB6
                0x00000000089056f0                op_code_cb_case0xF1
                0x0000000008905a2c                op_code_cb_case0x9F
                0x000000000890c138                op_code_normal_case0x1E
                0x00000000089062f4                op_code_cb_case0x22
                0x0000000008905a68                op_code_cb_case0xA2
                0x0000000008904ee8                op_code_cb_case0x65
                0x000000000890b5b4                op_code_normal_case0xD1
                0x0000000008906038                op_code_cb_case0x14
                0x0000000008904cac                op_code_cb_case0x59
                0x000000000890c354                op_code_normal_case0x28
                0x0000000008905780                op_code_cb_case0xF9
                0x0000000008908334                op_code_normal_case0x0F
                0x0000000008908414                cpu_set_ram_bank
                0x0000000008904e4c                op_code_cb_case0x62
                0x000000000890b368                op_code_normal_case0xAE
                0x0000000008905a54                op_code_cb_case0xA1
                0x0000000008907e74                op_code_normal_case0x3D
                0x0000000008906d34                op_code_normal_case0x84
                0x0000000008907bbc                op_code_normal_case0x24
                0x000000000890cd70                op_code_normal_case0xD4
                0x0000000008904678                cpu_restore_state
                0x0000000008909878                op_code_normal_case0xDF
                0x0000000008906778                op_code_cb_case0x35
                0x0000000008905b44                op_code_cb_case0xAF
                0x00000000089056a0                op_code_cb_case0xEC
                0x000000000890473c                cpu_irq
                0x000000000890cb34                op_code_normal_case0x08
                0x0000000008905bf8                op_code_cb_case0xB9
                0x000000000890572c                op_code_cb_case0xF4
                0x0000000008909d44                op_code_normal_case0x77
                0x00000000089083d8                cpu_get_vram
                0x0000000008906a18                op_code_normal_case0x5A
                0x0000000008905838                op_code_cb_case0x82
                0x00000000089054e8                op_code_cb_case0xD3
                0x0000000008905e10                op_code_cb_case0x09
                0x000000000890690c                op_code_normal_case0x4A
                0x00000000089068a0                op_code_normal_case0x43
                0x00000000089076c4                op_code_normal_case0xAB
                0x00000000089059b4                op_code_cb_case0x98
                0x000000000890f2b8                op_code_cb_case0x0E
                0x0000000008906384                op_code_cb_case0x25
                0x0000000008904f50                op_code_cb_case0x68
                0x0000000008908d04                cpu_write_direct_ord
                0x0000000008905484                op_code_cb_case0xCD
                0x000000000890c2d4                op_code_normal_case0x38
                0x000000000890753c                op_code_normal_case0xA2
                0x000000000890dd18                op_code_normal_case0xF2
                0x000000000890a9b4                op_code_normal_case0xF5
                0x00000000089083b8                op_code_normal_case0xE9
                0x0000000008905aa4                op_code_cb_case0xA5
                0x00000000089055ec                op_code_cb_case0xE2
                0x00000000089069b4                op_code_normal_case0x54
                0x000000000890f000                op_code_cb_case0x16
                0x0000000008906b5c                op_code_normal_case0x6F
                0x0000000008905860                op_code_cb_case0x84
                0x0000000008905510                op_code_cb_case0xD5
                0x0000000008907900                op_code_normal_case0xB9
                0x0000000008904b74                op_code_cb_case0x52
                0x000000000890bfdc                op_code_normal_case0x36
                0x00000000089082b8                op_code_normal_case0xFB
                0x0000000008906be8                op_code_normal_case0x7F
                0x0000000008905124                op_code_cb_case0x72
                0x0000000008912780                op_code_cb_case0x6E
                0x0000000008906480                op_code_cb_case0x2B
                0x0000000008906e08                op_code_normal_case0x88
 .text          0x0000000008912f5c     0x41fc gbcore/gb.o
                0x000000000891305c                gb_run
                0x00000000089170dc                gb_init
                0x00000000089134d4                gb_restore_state
                0x0000000008912f84                gb_unhook_extport
                0x0000000008912f90                gb_set_skip
                0x0000000008912f98                gb_refresh_pal
                0x00000000089134c0                gb_fill_vframe
                0x00000000089151cc                gb_save_state
                0x0000000008912fa0                exiting_lcdc
                0x0000000008912f5c                gb_hook_extport
                0x0000000008917008                gb_reset
 .text          0x0000000008917158     0x38bc gbcore/lcd.o
                0x0000000008917298                set_ztbl
                0x0000000008917d74                sgb_invalidate_color
                0x0000000008917d38                lcd_get_pal
                0x0000000008919108                lcd_bg_render_colored
                0x0000000008917d28                lcd_clear_win_count
                0x0000000008917d98                sgb_set_color
                0x0000000008919d64                lcd_win_render
                0x0000000008917368                lcd_sprite_render
                0x0000000008917dec                gb_invalidate_all_colors
                0x0000000008918478                tilePalReinit
                0x0000000008917198                dattrans2n
                0x0000000008918c80                lcd_bg_render
                0x0000000008917d4c                gbc_invalidate_color
                0x0000000008917184                lcd_get_enable
                0x0000000008918398                tileMapGetVramChecksum
                0x0000000008918628                lcd_init
                0x0000000008917dcc                gb_invalidate_palette
                0x0000000008917158                lcd_set_mpal
                0x0000000008917164                lcd_get_mpal
                0x000000000891a0f8                lcd_render
                0x00000000089178b4                lcd_sprite_render_color
                0x00000000089184c0                lcd_reset
                0x00000000089187c4                lcd_bg_render_color
                0x0000000008917f30                lcd_sprite_render_colored
                0x0000000008917170                lcd_set_enable
                0x0000000008919994                lcd_win_render_colored
                0x00000000089195e8                lcd_win_render_color
                0x0000000008918434                tilePalInit
 .text          0x000000000891aa14     0x1998 gbcore/mbc.o
                0x000000000891ab60                mbc_get_state
                0x000000000891bf7c                mbc_reset
                0x000000000891af98                mbc_mbc7_write
                0x000000000891af50                mbc_mbc2_write
                0x000000000891b368                mbc_mmm01_write
                0x000000000891b724                mbc_mbc3_write
                0x000000000891bdac                mbc_ext_read
                0x000000000891c194                mbc_init
                0x000000000891b900                mbc_ext_write
                0x000000000891aa1c                mbc_set_write
                0x000000000891ad54                mbc_set_page
                0x000000000891ac74                mbc_set_state
                0x000000000891b598                mbc_mbc5_write
                0x000000000891aa14                mbc_read
                0x000000000891ad88                mbc_nop
                0x000000000891b360                mbc_tama5_write
                0x000000000891ad90                mbc_mbc1_write
                0x000000000891b080                mbc_huc1_write
                0x000000000891b264                mbc_huc3_write
 .text          0x000000000891c3ac      0x25c gbcore/rom.o
                0x000000000891c42c                rom_set_first
                0x000000000891c420                rom_get_loaded
                0x000000000891c448                rom_load_rom
                0x000000000891c3fc                rom_get_sram_size
                0x000000000891c3ac                rom_init
                0x000000000891c3c8                rom_has_battery
 .text          0x000000000891c608     0xa458 gbcore/sgb.o
                0x000000000892686c                sgb_sound_transfer
                0x0000000008922dd0                sgb_pct_trn
                0x000000000891eee4                sgb_setATF
                0x000000000891ef70                sgb_reset
                0x0000000008926348                sgb_execute_command
                0x000000000891f20c                sgb_render_screen
                0x0000000008920f1c                set_palette
                0x000000000891ddfc                sgb_multiplayer_req
                0x00000000089248a0                sgb_chr_trn
                0x000000000891f204                sgb_init
                0x000000000891c608                sgb_draw_border_tile
                0x000000000891e7f0                sgb_attribute_line
                0x000000000891de94                sgb_attribute_block
                0x000000000891f400                copy_palette
                0x000000000891e9a4                sgb_attribute_divide
                0x0000000008926598                sgb_transfer
                0x000000000891f6d0                sgb_render_border
                0x0000000008922ba4                init_mem_palette
                0x000000000891e6f4                sgb_SetRowPalette
                0x000000000891dde8                sgb_reset_state
                0x000000000891e6b4                sgb_SetColumnPalette
                0x000000000891ed54                sgb_attribute_character
                0x0000000008922968                sgb_set_ATFlist
 .text          0x0000000008926a60    0x1f780 cpu/z80.o
                0x000000000893ba60                z80_get_elapsed_cycles
                0x000000000893b7f4                z80_get_cycle_table
                0x000000000893ba9c                z80_exit
                0x000000000893b734                z80_get_context
                0x00000000089447e8                z80_set_irq_line
                0x000000000893baf0                z80_reset
                0x000000000893ba48                z80_set_irq_callback
                0x000000000893b840                z80_get_reg
                0x000000000893ba54                z80_reset_cycle_count
                0x0000000008942724                z80_execute
                0x000000000893bbf8                z80_init
                0x000000000893b81c                z80_set_cycle_table
                0x0000000008944964                z80_set_reg
                0x000000000893b794                z80_set_context
                0x000000000893b6b4                z80_burn
 .text          0x00000000089461e0      0x584 memz80.o
                0x0000000008946444                z80_read_unmapped
                0x0000000008946330                smsj_port_w
                0x0000000008946708                sms_port_r
                0x00000000089463d8                sms_port_w
                0x000000000894652c                ggms_port_r
                0x00000000089462b0                gg_port_w
                0x000000000894664c                smsj_port_r
                0x00000000089465b4                gg_port_r
                0x00000000089464a8                md_port_r
                0x00000000089461ec                md_port_w
                0x0000000008946244                ggms_port_w
                0x00000000089461e0                memctrl_w
 .text          0x0000000008946764      0x5d4 pio.o
                0x00000000089468e4                ioctrl_w
                0x0000000008946924                sio_r
                0x0000000008946a8c                sio_w
                0x0000000008946874                pio_reset
                0x0000000008946764                pio_init
                0x000000000894691c                device_r
                0x00000000089468c8                system_assign_device
                0x0000000008946afc                input_r
                0x00000000089468c0                pio_shutdown
 .text          0x0000000008946d38      0xacc vdp.o
                0x0000000008947068                vdp_reg_w
                0x0000000008946d40                viewport_check
                0x0000000008946fb8                vdp_read
                0x0000000008947134                tms_write
                0x0000000008947744                vdp_reset
                0x0000000008947260                md_vdp_write
                0x00000000089473d8                gg_vdp_write
                0x0000000008946d38                vdp_shutdown
                0x00000000089475a8                vdp_write
                0x0000000008946eec                vdp_counter_r
                0x00000000089477fc                vdp_init
 .text          0x0000000008947804     0x10e8 render.o
                0x0000000008948318                palette_sync
                0x00000000089480fc                update_bg_pattern_cache
                0x00000000089484a0                render_line
                0x00000000089478ac                render_bg_sms
                0x0000000008947c0c                render_obj_sms_nospritelimit
                0x0000000008947870                render_shutdown
                0x0000000008947e68                render_obj_sms
                0x0000000008947878                pspSetObjRenderingRoutine
                0x000000000894875c                render_init
                0x0000000008947804                set_tms_palette
                0x000000000894829c                remap_8_to_16
                0x0000000008948664                render_reset
 .text          0x00000000089488ec      0x68c sms.o
                0x0000000008948b28                writemem_mapper_codies
                0x0000000008948ba8                writemem_mapper_sega
                0x000000000894891c                sms_mapper_w
                0x0000000008948d3c                sms_init
                0x0000000008948bec                sms_irq_callback
                0x0000000008948914                sms_shutdown
                0x0000000008948bf4                sms_reset
                0x00000000089488ec                writemem_mapper_none
 .text          0x0000000008948f78      0x33c system.o
                0x0000000008949038                system_init
                0x0000000008948ffc                system_shutdown
                0x0000000008948ff4                system_poweron
                0x0000000008949084                system_frame
                0x0000000008948f78                system_reset
 .text          0x00000000089492b4      0x910 sound/sound.o
                0x00000000089496dc                sound_shutdown
                0x0000000008949368                stream_update
                0x00000000089496a8                sound_reset
                0x00000000089493f4                sound_update
                0x0000000008949500                sound_update_ex
                0x0000000008949388                fmunit_write
                0x00000000089497a8                sound_init
                0x0000000008949308                sound_mixer_callback
                0x000000000894937c                fmunit_detect_w
                0x00000000089495fc                sound_update_gb
                0x0000000008949b94                sound_change
                0x00000000089493b4                psg_write
                0x0000000008949370                fmunit_detect_r
                0x00000000089493d4                psg_stereo_w
                0x00000000089492b4                mix
 .text          0x0000000008949bc4      0xbac sound/sn76489.o
                0x0000000008949e10                SN76489_Update
                0x0000000008949cc0                SN76489_GetContextSize
                0x000000000894a5ec                SN76489_SetContext
                0x0000000008949c78                SN76489_Config
                0x0000000008949df0                SN76489_GGStereoWrite
                0x000000000894a68c                SN76489_Init
                0x0000000008949ca4                SN76489_GetContextPtr
                0x0000000008949c70                SN76489_Shutdown
                0x0000000008949cc8                SN76489_Write
                0x0000000008949bc4                SN76489_Reset
                0x000000000894a54c                SN76489_GetContext
 .text          0x000000000894a770     0xda0c sound/emu2413.o
                0x0000000008951b34                OPLL_new
                0x000000000894a9a8                OPLL_setClock
                0x000000000894beb0                OPLL_setMask
                0x000000000894a770                dump2patch
                0x000000000894bf3c                OPLL_reset_patch
                0x00000000089557c8                OPLL_calc
                0x0000000008951b18                OPLL_write
                0x000000000894bef0                OPLL_copyPatch
                0x0000000008951204                OPLL_reset
                0x000000000894c124                OPLL_forceRefresh
                0x000000000894cc7c                OPLL_writeReg
                0x000000000894bea8                OPLL_close
                0x0000000008951ae4                OPLL_writeIO
                0x000000000894c324                OPLL_init
                0x000000000894becc                OPLL_toggleMask
                0x000000000894bfcc                OPLL_delete
                0x00000000089529e8                OPLL_update
 .text          0x000000000895817c     0x3c0c sound/ym2413.o
                0x0000000008958a2c                YM2413UpdateOne
                0x00000000089581cc                YM2413Shutdown
                0x000000000895817c                YM2413Read
                0x00000000089581ac                YM2413SetUpdateHandler
                0x000000000895b4ac                YM2413Init
                0x000000000895bc98                YM2413ResetChip
                0x000000000895bc18                YM2413Write
 .text          0x000000000895bd88     0x19f4 sound/fmintf.o
                0x000000000895be70                FM_Update
                0x000000000895bd9c                FM_GetContext
                0x000000000895bf88                FM_Init
                0x000000000895bd90                FM_GetContextPtr
                0x000000000895bd88                FM_GetContextSize
                0x000000000895bf1c                FM_Shutdown
                0x000000000895bdf4                FM_Write
                0x000000000895c120                FM_SetContext
                0x000000000895beb4                FM_Reset
                0x000000000895c020                FM_WriteReg
 .text          0x000000000895d77c      0x7a4 psp/gameboy_render.o
                0x000000000895dbe8                gbe_getTime
                0x000000000895d844                set_gb_type
                0x000000000895d77c                gbe_reset
                0x000000000895d80c                gbe_refresh
                0x000000000895d7c4                gbe_setBibrate
                0x000000000895da0c                gbe_setTime
                0x000000000895dd3c                gbe_updatePad
                0x000000000895d7cc                gbe_getSensor
                0x000000000895d79c                gbe_init
                0x000000000895d7f4                renderer_get_timer_state
                0x000000000895d800                renderer_set_timer_state
 .text          0x000000000895df20     0x1a8c psp/VideoGu.o
                0x000000000895e40c                VideoGuScreenClear
                0x000000000895f928                VideoGuUpdate
                0x000000000895e994                MAKE_COLOR
                0x000000000895ed3c                pspScaleImage_core
                0x000000000895f480                VideoGuUpdate_Core
                0x000000000895e458                DisplayBenchmark
                0x000000000895e318                RecolorPalette
                0x000000000895e568                VideoGuTerm
                0x000000000895e570                VideoGuInit
                0x000000000895e068                HSLToRGB
                0x000000000895e628                RecolorPaletteVibrance
                0x000000000895e1a0                RecolorPaletteGray
                0x000000000895df20                RGBToHSL
 .text          0x000000000895f9ac      0x2b0 psp/Controls.o
                0x000000000895f9b4                MiscUpdate
                0x000000000895f9ac                ControlsTerm
                0x000000000895fc3c                ControlsInit
                0x000000000895f9bc                ControlsUpdate
                0x000000000895fbc0                ControlsShowMenu
 .text          0x000000000895fc5c      0x940 psp/PspSound.o
                0x000000000895fc84                SoundUpdate
                0x000000000895fc5c                SoundTerm
                0x000000000895fd40                SoundResample
                0x000000000895fd34                SoundResume
                0x000000000895fd24                SoundPause
                0x000000000895fdd4                AudioGet
                0x00000000089603f4                SoundWaitTerm
                0x000000000896046c                SoundInit
 .text          0x000000000896059c     0x13c4 psp/SMS.o
                0x0000000008961380                MenuPlusAction
                0x0000000008961328                machine_frame
                0x0000000008961278                machine_poweroff
                0x0000000008960e54                gb_save_sram
                0x000000000896059c                SmsInit
                0x00000000089605ac                gb_doFrame
                0x0000000008960f00                machine_manage_sram
                0x00000000089605d8                machine_reset
                0x0000000008961298                SmsTerm
                0x0000000008960640                MenuOptionsConfigure
                0x0000000008960dc0                gb_load_sram
                0x0000000008961458                SmsEmulate
 .text          0x0000000008961960       0x94 psp/main.o
                0x0000000008961960                main
 .text          0x00000000089619f4     0xefc4 psp/menuplus.o
                0x000000000896cb7c                fctMainVideoCountry
                0x0000000008963f4c                LoadDefaultMachineConfig
                0x000000000896f438                menuPlusShowMenu
                0x000000000896cacc                fctMainSoundStereo
                0x000000000896cbac                MessageBoxTemp
                0x0000000008966dfc                pspLoadState
                0x000000000896cb2c                fctMainVideoVSync
                0x00000000089655d0                FctImgBack
                0x00000000089629d4                menuSetStatusBarMessageIndirect
                0x000000000896836c                fctMsgBoxSaveConfig_Handle
                0x0000000008964c80                fctMainFileSram
                0x000000000896f188                HandleBackground
                0x0000000008967218                RangeSetSubMenuValueInt
                0x000000000896c950                fctMainVideoVibrance
                0x0000000008961e84                adapteAnglef
                0x000000000896c990                fctMainFileSramAutosave
                0x0000000008961ed4                menuGetMenuKeys
                0x0000000008962a84                HandleSubMenu
                0x0000000008962118                GetJustFileName
                0x000000000896ce6c                fctMainFileStateDelete
                0x00000000089685f8                DrawWindow
                0x000000000896cabc                fctMainSoundBoost
                0x00000000089624c8                fctMainCtrlAnalogCalibration
                0x000000000896c3ec                MessageBoxEx
                0x00000000089625f4                SubMenuItemPositionSelected
                0x0000000008962524                fctMenuMainSound
                0x000000000896564c                menuSoundShowDisplay
                0x00000000089663a4                DrawWindowBox
                0x0000000008961a30                safe_strcat
                0x000000000896216c                safe_strcpy_offset
                0x000000000896caec                fctMainSoundEnabled
                0x0000000008961ff8                menuGetMenuKey
                0x0000000008961d34                GetStringWidth
                0x0000000008962a38                CloseSubMenu
                0x0000000008965984                DrawHint
                0x00000000089626e4                CreateDigitsFromStr
                0x000000000896505c                machine_load_state
                0x000000000896d490                fctMenuMainFile
                0x00000000089620b8                menuHandleStatusMessage
                0x000000000896c930                fctMenuMainVideoRenderLeftBar
                0x0000000008962054                menuDisplayStatusMessage
                0x0000000008962514                fctMsgBoxAbout_Close
                0x0000000008962838                SelectSubMenu
                0x000000000896c9e0                fctMainCtrlAnalogToDPad
                0x000000000896c9c0                fctMainCtrlRedefineAutofireRate
                0x00000000089639e0                menuStandardVblank
                0x00000000089669f4                menuDrawIcons
                0x0000000008968534                DrawChoice
                0x000000000896cb6c                fctMainVideoScaling
                0x0000000008966f5c                DoesSlotExists
                0x000000000896639c                MyDrawGradientRect
                0x000000000896c920                fctMenuMainVideoRenderSpriteLimit
                0x0000000008962534                GetSubMenuItemByInt
                0x0000000008963e4c                SetSubMenuItemValueByInt
                0x00000000089629a4                menuSetStatusBarMessageDirect
                0x0000000008965ad4                DrawBackground
                0x000000000896d1c4                menuTakeScreenshot
                0x0000000008965300                FctImgNumbers
                0x0000000008963928                fctMsgBoxSaveConfig_Close
                0x000000000896c9f0                fctMainFileStateLoad
                0x000000000896c970                fctMenuMainFileMusicRepeat
                0x00000000089637a8                InitChoice
                0x0000000008967480                HandleWindow
                0x0000000008963fc0                LoadUserDefaultConfig
                0x000000000896eb20                ShowMenuJoystickCalibration
                0x0000000008964800                DrawDigitScroll
                0x000000000896bc90                MyReadKeys
                0x00000000089640c0                SaveUserDefaultConfig
                0x00000000089637e8                HandleChoice
                0x0000000008963750                HandleHint
                0x0000000008963988                mySetScreenClipping
                0x000000000896563c                MyDrawRect
                0x0000000008961d70                mod
                0x0000000008964f50                makeDir
                0x0000000008965484                FctFtStandard
                0x000000000896c69c                GestionEventStandardInt
                0x00000000089625e4                SelectSubMenuItemPosition
                0x00000000089641a4                fctMsgBoxAbout_Handle
                0x0000000008965644                MyDrawFillRect
                0x0000000008963848                CloseWindow
                0x00000000089654f0                loadBackgroundImage
                0x0000000008962580                SelectSubMenuItemPositionByValueInt
                0x000000000896de8c                menuRedefineGetNewKey
                0x0000000008967410                fctMsgBoxTemp_Handle
                0x000000000896cb4c                fctMainVideoFrameskip
                0x000000000896c910                fctMenuMainVideoSyncMode
                0x000000000896caac                fctMainSoundTurboSound
                0x0000000008965130                CheckFichierPalette
                0x000000000896bac8                fctMsgBoxReloadConfig
                0x0000000008961cec                PushAlpha
                0x0000000008964cb0                CreeImageBord
                0x00000000089638a0                MessageBox_DefineButtons
                0x000000000896c8e0                fctMainSmsTweakZ80
                0x0000000008961d98                mod_f
                0x000000000896693c                menuDrawImageSmallFloat
                0x00000000089666b4                MySetTextColorEx
                0x0000000008963744                InitHint
                0x000000000896cfdc                pspSaveState
                0x0000000008961d10                PopAlpha
                0x00000000089619f4                safe_strcpy
                0x000000000896cb8c                fctMainMiscPspClock
                0x000000000896cb9c                fctMainMiscPspClockNumeric
                0x0000000008963920                fctMsgBoxReloadConfig_Close
                0x00000000089638f4                InitMenus
                0x000000000896c9a0                fctMainCtrlAnalogCalibrationEnabled
                0x000000000896cc94                fctMenuMainMisc
                0x0000000008961a88                GetTextBoxHeight
                0x000000000896dfb8                fctMainCtrlShortcuts
                0x000000000896c8f0                fctMenuMainVideoGBType
                0x00000000089621c4                menuGetKeyName
                0x000000000896cb3c                fctMainVideoFrameskipMax
                0x000000000896c940                fctMenuMainVideoRenderDepth
                0x0000000008961b94                menuKeysAnalogApply
                0x000000000896cadc                fctMainSoundRate
                0x0000000008964f2c                fileExists
                0x000000000896252c                fctMenuMainCtrl
                0x0000000008962610                SubMenuItemPositionCanceled
                0x000000000896538c                FctImgIcons
                0x0000000008964dac                menuLoadFilesMin
                0x000000000896d618                ControlsMenuUpdate
                0x0000000008967000                FillExistingSlots
                0x0000000008967824                DrawSubMenu
                0x00000000089638ec                fctMsgBoxTemp_Close
                0x000000000896dd24                fctMainFileStateSave
                0x0000000008964964                InitConfig
                0x000000000896cb1c                fctMainMiscUIBackground
                0x000000000896c320                MessageBoxAsync
                0x000000000896508c                extractFilePath
                0x00000000089637b8                CloseChoice
                0x0000000008963930                menuDrawStatusMessage
                0x00000000089627cc                GetIntFromDigits
                0x00000000089639a4                mySetScreenClippingEx
                0x000000000896cb5c                fctMainVideoSmoothing
                0x0000000008966c48                pspGetStateNameEx
                0x0000000008962968                fadeInit
                0x0000000008965418                FctFtGlow
                0x000000000896687c                MySetTextColor
                0x000000000896cb0c                fctMainVideoGamma
                0x0000000008967604                menuLoadFiles
                0x000000000896c980                fctMenuMainFileMusicFrequency
                0x00000000089671a8                DestroyWindow
                0x000000000896c900                fctMenuMainVideoGBColorization
                0x0000000008964e74                fctMenuMainVideoGB
                0x000000000896c960                fctMenuMainVideoBrightnessMode
                0x000000000896bfb8                ShowWindow
                0x0000000008961e44                rangeAnglef
                0x0000000008963cb4                SetTurbo
                0x0000000008964fd8                OuvreFichierPalette
                0x0000000008968d98                UpdateMenus
                0x000000000896251c                fctMenuMainState
                0x0000000008968b8c                DrawBackgroundAfter
                0x000000000896cd9c                BatteryWarning
                0x0000000008964eb4                fctMainFileMusic
                0x0000000008964fa8                machine_save_state
                0x00000000089640f8                SaveUserDefaultConfigSpecific
                0x000000000896cafc                fctMainVideoCpuTime
                0x0000000008964008                menuUsbUpdate
                0x000000000896ca9c                fctMainSoundSyncMode
                0x000000000896e610                fctMainCtrlRedefine
                0x0000000008966de4                pspGetStateName
                0x000000000896c9b0                fctMainCtrlAnalogTreshold
                0x0000000008963dfc                fctMainMiscCommands
                0x00000000089624c0                fctMenuMainVideo
                0x000000000896c4b4                fctMsgBoxSaveConfig
                0x000000000896c9d0                fctMainVideoTurboSkip
                0x0000000008964ca8                MyDrawLine
                0x0000000008968450                fctMsgBoxReloadConfig_Handle
                0x000000000896262c                CreateDigitsFromInt
 .text          0x00000000089709b8     0x2d50 psp/menuplus2.o
                0x0000000008970be8                fctPaletteList
                0x00000000089709f8                SJISCopy
                0x0000000008972380                AddToMyPlaces
                0x0000000008971680                SaveMyPlacesFile
                0x0000000008972584                ShowMenuFileSelect
                0x0000000008971854                myPlacesRealloc
                0x0000000008971370                menuFileSelectFillMyPlace
                0x0000000008971180                fctMsgBoxChoice_Handle
                0x0000000008970a98                getSmallFileName
                0x0000000008971264                RemoveMyPlacesEntry
                0x0000000008971ad4                menuFileSelectSortFiles
                0x0000000008970c60                fctMsgBoxChoice
                0x0000000008970af4                fctMsgBoxChoice_Close
                0x0000000008970f94                menuShowPaletteList
                0x0000000008972024                LoadMyPlacesFile
                0x00000000089709b8                fctMenuFileSelect
                0x0000000008970d04                ShowChoiceMsgBoxEx
                0x0000000008971000                ShowChoiceMsgBox
                0x0000000008970b90                InitMyPlacesBase
                0x0000000008971cb4                menuFileSelectFillFiles
                0x0000000008970cc8                fctMsgBoxChoice_Destroy
                0x0000000008970b08                SetMyPlacesEntry
                0x0000000008971924                menuFileItemCompare
                0x00000000089715e4                getExtId
 .text          0x0000000008973708     0x3bb4 psp/config.o
                0x0000000008974fd4                FctColorIt_AddTileRule
                0x0000000008973854                ScriptBegin
                0x0000000008975528                FctGoto
                0x0000000008976f64                ScriptAjouteProcedures
                0x0000000008975640                FctMsgBox
                0x0000000008973a10                GetChaine
                0x0000000008974cd8                FctColorIt_SetPalette
                0x0000000008973b1c                TrouveIdentificateur
                0x000000000897385c                atox
                0x000000000897371c                GetAddedColor
                0x000000000897609c                ExecScript
                0x0000000008974290                ScriptEnd
                0x0000000008975ce4                FctTabMenuColCursor
                0x0000000008973810                getOffsetedAddr
                0x00000000089747e4                GetVariableAddress
                0x0000000008973bac                ScriptError
                0x0000000008973708                FctFin
                0x0000000008974e5c                FctColorIt_AddTileCrc
                0x0000000008975eb0                SetVariableValue
                0x00000000089746e8                ScriptSave
                0x0000000008976c60                OuvreFichierConfig
                0x0000000008976ccc                FctFaire
                0x000000000897529c                FctColorIt_SetTile
                0x0000000008973968                ProchArgEntier
                0x0000000008973be0                GetVariableValue
                0x0000000008973f60                GetEntier
                0x00000000089737b8                strlwrmixcmp
                0x0000000008974190                ScriptAjouteProcedures_Add
                0x0000000008974b18                FctPalette
                0x00000000089738f4                atob
                0x0000000008974298                ScriptSave_Core
                0x0000000008975954                FctColorIt_SetTilesetData
                0x0000000008974798                FctMusicFilename
 .text          0x00000000089772bc       0x60 psp/usb.o
                0x00000000089772bc                oslLoadStartModule
 .text          0x000000000897731c     0x1bd8 psp/sound.o
                0x00000000089773d0                FillBuffer44100(int)
                0x0000000008978848                menuMusicNextTrack
                0x000000000897743c                menuMusicPause
                0x0000000008977b20                StandardSoundProcess
                0x0000000008978070                menuPlayZipSound
                0x0000000008977c50                menuMusicStop
                0x00000000089774ac                ramAvailableLineareMax()
                0x00000000089789c8                menuMusicPlay
                0x0000000008977518                ramAvailable
                0x0000000008978700                MenuSpecialMessageDisplay
                0x000000000897731c                fctMsgBoxSpeaker_Handle(WINDOW*, int)
                0x0000000008977d28                menuPlaySoundEx(CFILE*)
                0x00000000089785d8                fctMsgBoxSpeaker_Close(WINDOW*, int)
                0x0000000008978b1c                menuMusicPrevTrack
                0x000000000897851c                menuStartSound
                0x0000000008977658                gymThread(unsigned int, void*)
                0x0000000008978d34                soundStandardVblank
                0x000000000897838c                menuMusicBrowseTrack(int, int)
                0x0000000008977324                FillBufferArbitrary(int)
 .text          0x0000000008978ef4      0x2d8 fileio.o
                0x0000000008978ff4                loadFromZipByName
                0x0000000008978ef4                getFileNameExtension
                0x0000000008978f8c                check_zip
                0x0000000008978f18                gzsize
 .text          0x00000000089791cc      0x680 state.o
                0x00000000089791cc                system_load_state
                0x00000000089795d8                system_save_state
 .text          0x000000000897984c      0x358 loadrom.o
                0x000000000897984c                load_rom
 .text          0x0000000008979ba4      0x158 unzip/ioapi.o
                0x0000000008979c14                fseek_file_func
                0x0000000008979c84                fread_file_func
                0x0000000008979c0c                fclose_file_func
                0x0000000008979bb0                fill_fopen_filefunc
                0x0000000008979c68                ftell_file_func
                0x0000000008979ba4                ferror_file_func
                0x0000000008979c70                fwrite_file_func
                0x0000000008979c98                fopen_file_func
 .text          0x0000000008979cfc     0x1904 unzip/unzip.o
                0x000000000897b0a0                unzOpenCurrentFilePassword
                0x000000000897a878                unzReadCurrentFile
                0x000000000897a518                unzGoToFilePos
                0x000000000897b4cc                unzLocateFile
                0x000000000897ab54                unzOpenCurrentFile3
                0x000000000897a3d0                unzGoToFirstFile
                0x000000000897b0b4                unzOpenCurrentFile
                0x000000000897b098                unzOpenCurrentFile2
                0x0000000008979f5c                unzGetGlobalInfo
                0x000000000897a5dc                unzGetLocalExtrafield
                0x000000000897a38c                unzGetCurrentFileInfo
                0x000000000897a4e0                unzGetFilePos
                0x000000000897a438                unzGoToNextFile
                0x000000000897a770                unzCloseCurrentFile
                0x000000000897a5b4                unzeof
                0x000000000897a6a8                unzGetGlobalComment
                0x000000000897a590                unztell
                0x000000000897b0c8                unzOpen2
                0x000000000897b424                unzStringFileNameCompare
                0x000000000897a820                unzClose
                0x000000000897b41c                unzOpen
 .text          0x000000000897b600     0x1a98 psp/gym/gym.o
                0x000000000897c08c                CODEC_GYM::input_gym::~input_gym()
                0x000000000897c76c                CODEC_GYM::input_gym::open_file(CFILE*, SONGINFO*, unsigned int)
                0x000000000897bfb8                CODEC_GYM::input_gym::reset()
                0x000000000897bd88                CODEC_GYM::decomp_dac(unsigned char*, unsigned long, unsigned char*, unsigned long)
                0x000000000897b624                CODEC_GYM::input_gym::construct()
                0x000000000897b600                CODEC_GYM::input_gym::set_frequency(int)
                0x000000000897c13c                CODEC_GYM::input_gym::load_ezpk_gym(void*)
                0x000000000897b698                CODEC_GYM::input_gym::input_gym()
                0x000000000897b6e0                CODEC_GYM::input_gym::seek(float)
                0x000000000897bf08                CODEC_GYM::input_gym::~input_gym()
                0x000000000897c684                CODEC_GYM::input_gym::load_zlib_gym(void*)
                0x000000000897b8f8                CODEC_GYM::input_gym::get_samples_pcm(void**, int*, int*, int*, int*)
                0x000000000897bad4                CODEC_GYM::input_gym::calc_gym_time_length(SONGINFO*)
                0x000000000897bd00                CODEC_GYM::input_gym::destruct()
                0x000000000897cd64                CODEC_GYM::input_gym::open(CFILE*, SONGINFO*, unsigned int)
                0x000000000897b650                CODEC_GYM::input_gym::input_gym()
 .text._ZN9CODEC_GYM9input_gym13test_filenameEPKcS2_
                0x000000000897d098       0x28 psp/gym/gym.o
                0x000000000897d098                CODEC_GYM::input_gym::test_filename(char const*, char const*)
 .text._ZN9CODEC_GYM9input_gym19is_our_content_typeEPKcS2_
                0x000000000897d0c0       0x28 psp/gym/gym.o
                0x000000000897d0c0                CODEC_GYM::input_gym::is_our_content_type(char const*, char const*)
 .text._ZN11mem_block_tIhE8set_sizeEi
                0x000000000897d0e8       0x68 psp/gym/gym.o
                0x000000000897d0e8                mem_block_t<unsigned char>::set_size(int)
 .text._ZN8SONGINFO13meta_add_ansiEPcS0_
                0x000000000897d150       0xb4 psp/gym/gym.o
                0x000000000897d150                SONGINFO::meta_add_ansi(char*, char*)
 .text          0x000000000897d204      0x674 psp/gym/gym_play.o
                0x000000000897d290                Write_Sound_Stereo(short*, int)
                0x000000000897d6a0                Start_Play_GYM
                0x000000000897d20c                jump_gym_time_pos
                0x000000000897d348                GYM_Next(unsigned char*, unsigned char*, unsigned int, unsigned int)
                0x000000000897d204                Update_GYM_Dump
                0x000000000897d788                Play_GYM
 .text          0x000000000897d878     0x14f0 psp/gym/psg.o
                0x000000000897e208                PSG_Init
                0x000000000897e100                PSG_Restore_State
                0x000000000897d878                PSG_Update_SIN
                0x000000000897e900                PSG_Special_Update
                0x000000000897dd1c                PSG_Write
                0x000000000897da7c                PSG_Update
                0x000000000897dcc8                PSG_Save_State
 .text          0x000000000897ed68    0x113f8 psp/gym/ym2612.o
                0x0000000008980274                Update_Chan_Algo3
                0x000000000897f100                Env_NULL_Next
                0x000000000897f108                Env_Attack_Next
                0x000000000897ed68                CALC_FINC_SL
                0x0000000008988728                Update_Chan_Algo0_LFO_Int
                0x000000000897f1cc                Env_Release_Next
                0x000000000898c214                YM2612_End
                0x00000000089900d4                YM2612_Restore
                0x000000000897ee48                KEY_ON
                0x00000000089807f8                Update_Chan_Algo4
                0x0000000008987414                Update_Chan_Algo5_Int
                0x0000000008989cc4                Update_Chan_Algo3_LFO_Int
                0x00000000089855c0                Update_Chan_Algo0_Int
                0x00000000089847d8                Update_Chan_Algo6_LFO
                0x000000000898f540                YM2612_Init
                0x0000000008982c98                Update_Chan_Algo2_LFO
                0x0000000008980dbc                Update_Chan_Algo5
                0x00000000089839f0                Update_Chan_Algo4_LFO
                0x000000000897f1e4                Update_Chan_Algo0
                0x0000000008981964                Update_Chan_Algo7
                0x00000000089861c8                Update_Chan_Algo2_Int
                0x000000000897fcf0                Update_Chan_Algo2
                0x000000000898ba8c                Update_Chan_Algo7_LFO_Int
                0x000000000897ef50                CSM_Key_Control
                0x0000000008985bc8                Update_Chan_Algo1_Int
                0x000000000898e0cc                YM2612_Special_Update
                0x000000000898ab74                Update_Chan_Algo5_LFO_Int
                0x000000000898f2d4                YM2612_Reset
                0x000000000897f150                Env_Substain_Next
                0x000000000898e174                YM_SET
                0x000000000898a3f8                Update_Chan_Algo4_LFO_Int
                0x0000000008988e5c                Update_Chan_Algo1_LFO_Int
                0x00000000089867c8                Update_Chan_Algo3_Int
                0x000000000897f76c                Update_Chan_Algo1
                0x0000000008987a78                Update_Chan_Algo6_Int
                0x0000000008989590                Update_Chan_Algo2_LFO_Int
                0x000000000898c21c                YM2612_Read
                0x000000000898eb10                CHANNEL_SET
                0x0000000008984ec8                Update_Chan_Algo7_LFO
                0x000000000898c228                YM2612_Save
                0x00000000089825ec                Update_Chan_Algo1_LFO
                0x0000000008983344                Update_Chan_Algo3_LFO
                0x0000000008986dc8                Update_Chan_Algo4_Int
                0x000000000898b308                Update_Chan_Algo6_LFO_Int
                0x000000000898c710                YM2612_Update
                0x000000000898c3c4                CALC_FINC_CH
                0x0000000008981f38                Update_Chan_Algo0_LFO
                0x000000000897f12c                Env_Decay_Next
                0x0000000008981398                Update_Chan_Algo6
                0x00000000089880cc                Update_Chan_Algo7_Int
                0x00000000089840d8                Update_Chan_Algo5_LFO
                0x000000000898c25c                YM2612_DacAndTimers_Update
                0x000000000898e6f8                SLOT_SET
                0x000000000898f0c0                YM2612_Write
                0x000000000897eec8                KEY_OFF
 .text          0x0000000008990160     0x2ad4 psp/gym/bzlib/blocksort.o
                0x0000000008992a34                BZ2_blockSort
 .text          0x0000000008992c34     0x351c psp/gym/bzlib/bzlib.o
                0x0000000008993220                BZ2_bzerror
                0x0000000008992fa4                BZ2_bzDecompressInit
                0x0000000008995bf4                BZ2_bzwrite
                0x0000000008995f6c                BZ2_bzclose
                0x0000000008993840                BZ2_bzdopen
                0x0000000008993870                BZ2_bzDecompress
                0x00000000089947e8                BZ2_bzBuffToBuffDecompress
                0x00000000089930e0                BZ2_bzDecompressEnd
                0x0000000008995690                BZ2_bzCompress
                0x0000000008993218                BZ2_bzflush
                0x0000000008993184                BZ2_bzReadGetUnused
                0x0000000008993854                BZ2_bzopen
                0x0000000008995f5c                BZ2_bzWriteClose
                0x0000000008995c34                BZ2_bzWriteClose64
                0x00000000089958ac                BZ2_bzBuffToBuffCompress
                0x000000000899320c                BZ2_bzlibVersion
                0x000000000899343c                BZ2_bzWriteOpen
                0x0000000008993268                BZ2_bzReadOpen
                0x0000000008992c34                BZ2_bzCompressInit
                0x0000000008994bf4                BZ2_bz__AssertH__fail
                0x000000000899491c                BZ2_bzRead
                0x0000000008992f00                BZ2_bzCompressEnd
                0x00000000089959ec                BZ2_bzWrite
                0x0000000008994b8c                BZ2_bzread
                0x0000000008996044                BZ2_bzReadClose
                0x000000000899309c                BZ2_indexIntoF
 .text          0x0000000008996150     0x5454 psp/gym/bzlib/compress.o
                0x0000000008996150                BZ2_bsInitWrite
                0x00000000089961e0                BZ2_compressBlock
 .text          0x000000000899b5a4     0x2ae4 psp/gym/bzlib/decompress.o
                0x000000000899b5a4                BZ2_decompress
 .text          0x000000000899e088      0x7cc psp/gym/bzlib/huffman.o
                0x000000000899e298                BZ2_hbMakeCodeLengths
                0x000000000899e0ec                BZ2_hbCreateDecodeTables
                0x000000000899e088                BZ2_hbAssignCodes
 .text          0x000000000899e854     0x269c psp/vgm/mame_fm.o
                0x00000000089a06b8                YM2612Write
                0x000000000899f1bc                FMSetMode
                0x000000000899fd10                YM2612UpdateOne
                0x00000000089a0198                YM2612ResetChip
                0x000000000899ea44                set_dr
                0x000000000899e9d8                set_ar_ksr
                0x00000000089a07c4                YM2612Read
                0x000000000899eaa4                set_sl_rr
                0x000000000899eb98                calc_eg
                0x00000000089a07e4                YM2612TimerOver
                0x000000000899f128                OPN_CALC_FCOUNT
                0x000000000899e94c                FM_KEYOFF
                0x000000000899e918                FM_KEYON
                0x000000000899eaec                op_calc
                0x000000000899eb44                op_calc1
                0x000000000899f080                CALC_FCSLOT
                0x00000000089a0888                YM2612Init
                0x000000000899e8e4                FM_IRQMASK_SET
                0x000000000899e854                FM_STATUS_SET
                0x000000000899ece8                FM_CALC_CH
                0x000000000899ea74                set_sr
                0x000000000899f340                TimerAOver
                0x000000000899e89c                FM_STATUS_RESET
                0x000000000899f3c0                TimerBOver
                0x000000000899f440                CSMKeyControll
                0x00000000089a0854                YM2612Shutdown
                0x000000000899e988                set_det_mul
                0x00000000089a0cd0                YM2612_save_state
                0x000000000899e9bc                set_tl
 .text          0x00000000089a0ef0     0x477c psp/vgm/emu2413.o
                0x00000000089a4d8c                EMU2413_OPLL_copyPatch
                0x00000000089a100c                EMU2413_OPLL_dump2patch
                0x00000000089a115c                EMU2413_OPLL_patch2dump
                0x00000000089a28d0                EMU2413_OPLL_calc
                0x00000000089a2a4c                EMU2413_OPLL_toggleMask
                0x00000000089a424c                EMU2413_OPLL_writeIO
                0x00000000089a1d64                EMU2413_OPLL_forceRefresh
                0x00000000089a4084                EMU2413_OPLL_reset
                0x00000000089a4b50                EMU2413_OPLL_calc_stereo
                0x00000000089a4dac                EMU2413_OPLL_reset_patch
                0x00000000089a2a68                EMU2413_OPLL_writeReg
                0x00000000089a4268                EMU2413_OPLL_set_pan
                0x00000000089a4d84                EMU2413_OPLL_delete
                0x00000000089a1f38                EMU2413_OPLL_set_rate
                0x00000000089a4e50                EMU2413_OPLL_setPatch
                0x00000000089a2a34                EMU2413_OPLL_setMask
                0x00000000089a1f84                EMU2413_OPLL_set_quality
                0x00000000089a1134                EMU2413_OPLL_getDefaultPatch
                0x00000000089a4ed8                EMU2413_OPLL_new
 .text          0x00000000089a566c      0x840 psp/vgm/sn76489.o
                0x00000000089a5e1c                VGM_SN76489_SetVolType
                0x00000000089a5e68                VGM_SN76489_GetContext
                0x00000000089a5e8c                VGM_SN76489_SetContext
                0x00000000089a58d0                VGM_SN76489_GGStereoWrite
                0x00000000089a5dfc                VGM_SN76489_GetVolType
                0x00000000089a5dbc                VGM_SN76489_GetMute
                0x00000000089a56ec                VGM_SN76489_Init
                0x00000000089a58f0                VGM_SN76489_Update
                0x00000000089a5758                VGM_SN76489_Config
                0x00000000089a5750                VGM_SN76489_Shutdown
                0x00000000089a5e3c                VGM_SN76489_SetPanning
                0x00000000089a5788                VGM_SN76489_GetContextPtr
                0x00000000089a57a4                VGM_SN76489_GetContextSize
                0x00000000089a5d68                VGM_SN76489_UpdateOne
                0x00000000089a566c                VGM_SN76489_Reset
                0x00000000089a5ddc                VGM_SN76489_SetMute
                0x00000000089a57ac                VGM_SN76489_Write
 .text          0x00000000089a5eac     0x2b18 psp/vgm/mame_ym2151.o
                0x00000000089a6324                YM2151WriteReg
                0x00000000089a7424                advance_eg
                0x00000000089a711c                chan7_calc
                0x00000000089a7984                YM2151UpdateOne
                0x00000000089a60e8                refresh_EG
                0x00000000089a5fe4                set_connect
                0x00000000089a6d48                op_calc2151
                0x00000000089a7c90                YM2151ResetChip
                0x00000000089a6da4                op_calc1_2151
                0x00000000089a7e00                YM2151Init
                0x00000000089a7dcc                YM2151Shutdown
                0x00000000089a6dfc                chan_calc
                0x00000000089a7558                YM2151SetIrqHandler
                0x00000000089a5eac                envelope_KONKOFF
                0x00000000089a7580                advance
                0x00000000089a6d28                YM2151ReadStatus
 .text          0x00000000089a89c4     0x2590 psp/vgm/In_vgm.o
                0x00000000089a8a34                eq_set(int, char*, int)
                0x00000000089a8dcc                getgd3string(char*, int, CFILE*)
                0x00000000089a8a2c                quit()
                0x00000000089a89c4                VGM_Init()
                0x00000000089a9a48                VGM_DecodeThread(short*, int, int*)
                0x00000000089a8a3c                VGM_SetFrequency(int)
                0x00000000089a8d4c                random_stereo()
                0x00000000089a8f90                VGM_play(char*, CFILE*, SONGINFO*, unsigned int)
                0x00000000089a8a6c                gaussrand()
 .text._ZN5CFILE4readEPvii
                0x00000000089aaf54       0x88 psp/vgm/In_vgm.o
                0x00000000089aaf54                CFILE::read(void*, int, int)
 .text._ZN5CFILE4seekEii
                0x00000000089aafdc       0xa0 psp/vgm/In_vgm.o
                0x00000000089aafdc                CFILE::seek(int, int)
 .text          0x00000000089ab07c      0x290 psp/gz.o
                0x00000000089ab270                gzGetOrigName
                0x00000000089ab07c                gzCreate
 .text          0x00000000089ab30c      0x180 psp/VirtualGz.o
                0x00000000089ab398                vfsGzFileWrite
                0x00000000089ab3ac                vfsGzFileClose
                0x00000000089ab30c                vfsGzFileInit
                0x00000000089ab374                vfsGzFilePutc
                0x00000000089ab3d0                vfsGzFileOpen
                0x00000000089ab34c                vfsGzFileEof
                0x00000000089ab36c                vfsGzFileGets
                0x00000000089ab364                vfsGzFilePuts
                0x00000000089ab354                vfsGzFileTell
                0x00000000089ab35c                vfsGzFileSeek
                0x00000000089ab37c                vfsGzFileGetc
                0x00000000089ab384                vfsGzFileRead
 .text          0x00000000089ab48c     0x283c psp/deflate.o
                0x00000000089abf90                deflate
                0x00000000089ab500                deflateTune
                0x00000000089ab48c                deflateSetHeader
                0x00000000089abe08                deflateSetDictionary
                0x00000000089ad790                deflateBound
                0x00000000089adcac                deflateInit_
                0x00000000089ad960                deflateInit2_
                0x00000000089ad7ec                deflateReset
                0x00000000089ab4c4                deflatePrime
                0x00000000089ab950                deflateCopy
                0x00000000089acad0                deflateParams
                0x00000000089ab534                deflateEnd
 .text          0x00000000089adcc8     0x1600 psp/gzio.o
                0x00000000089ae44c                gzflush
                0x00000000089adcc8                gzungetc
                0x00000000089aee98                gzgetc
                0x00000000089af2c0                gzopen
                0x00000000089addc4                gzerror
                0x00000000089add6c                gzdirect
                0x00000000089aeecc                gzsetparams
                0x00000000089aede4                gztell
                0x00000000089add94                gzclearerr
                0x00000000089aebd8                gzseek
                0x00000000089ae87c                gzread
                0x00000000089ae338                gzputs
                0x00000000089af268                gzdopen
                0x00000000089ae138                gzclose
                0x00000000089ae21c                gzwrite
                0x00000000089ae378                gzputc
                0x00000000089add2c                gzeof
                0x00000000089aedf0                gzgets
                0x00000000089ae3b0                gzrewind
                0x00000000089ae490                gzprintf
 .text          0x00000000089af2c8       0xc0 error.o
                0x00000000089af2d0                error_shutdown
                0x00000000089af300                dbg
                0x00000000089af2c8                error_init
                0x00000000089af370                trap
                0x00000000089af2d8                error
 .text          0x00000000089af388      0xee4 c:/pspsdk/bin/../lib/gcc/psp/4.3.5/../../../../psp/lib\libosl.a(oslib.o)
                0x00000000089af604                oslVblankInterrupt
                0x00000000089af5fc                oslEndFrame
                0x00000000089af7ac                oslQuit
                0x00000000089af590                oslStandardPowerCallback
                0x00000000089afccc                oslSyncFrameEx
                0x00000000089af480                oslFasterMemset
                0x00000000089af76c                oslStandardExitCallback
                0x00000000089afba0                oslInit
                0x00000000089af6f4                oslCallbackThread
                0x00000000089afcc4                oslWaitVSync
                0x00000000089af3c8                oslSini
                0x00000000089af698                oslSetupCallbacks
                0x00000000089afcbc                oslFlushDataCache
                0x00000000089af5b0                oslVblankNextFrame
                0x00000000089af408                oslGetNextPower2
                0x00000000089af7f8                oslBenchmarkTestEx
                0x00000000089b01d0                oslSetupFTrigo
                0x00000000089af388                oslCosi
                0x00000000089af45c                oslAlignData
                0x00000000089af8ec                oslMeanBenchmarkTestEx
                0x00000000089afac0                oslSysBenchmarkDisplay
 .text          0x00000000089b026c      0xedc c:/pspsdk/bin/../lib/gcc/psp/4.3.5/../../../../psp/lib\libosl.a(drawing.o)
                0x00000000089b06d8                oslSetSysDisplayListSize
                0x00000000089b0564                oslSetAlphaTest
                0x00000000089b05a4                oslSetBilinearFilter
                0x00000000089b064c                oslSyncDrawing
                0x00000000089b0698                oslEndDrawing
                0x00000000089b04e4                oslDisableTransparentColor
                0x00000000089b07f4                oslConvertColorEx
                0x00000000089b0494                oslDisableAlphaTest
                0x00000000089b0b3c                oslSetAlphaWrite
                0x00000000089b0d14                oslStartDrawing
                0x00000000089b0afc                oslSetTransparentColor
                0x00000000089b04f4                oslEndGfx
                0x00000000089b0d74                oslInitGfx
                0x00000000089b0b90                oslSetAlpha2
                0x00000000089b04c8                oslSetDithering
                0x00000000089b072c                oslDrawTile
                0x00000000089b0544                oslClearScreen
                0x00000000089b05bc                oslSwapBuffers
                0x00000000089b026c                oslConvertColor
                0x00000000089b0524                oslSetScreenClipping
                0x00000000089b0440                oslSetDepthTest
 .text          0x00000000089b1148      0xe1c c:/pspsdk/bin/../lib/gcc/psp/4.3.5/../../../../psp/lib\libosl.a(image.o)
                0x00000000089b1794                oslClearImage
                0x00000000089b194c                oslCopyImageTo
                0x00000000089b1e74                oslCreateSwizzledImage
                0x00000000089b1eec                oslCreateImageCopy
                0x00000000089b156c                oslVerifyStripBlit
                0x00000000089b1ab8                oslFreeImageData
                0x00000000089b1c30                oslCreateImage
                0x00000000089b129c                oslImageLocationIsSwizzled
                0x00000000089b1bd0                oslDeleteImage
                0x00000000089b12c8                oslCreateImageTileSize
                0x00000000089b148c                oslSetTexture
                0x00000000089b1a70                oslUncacheImage
                0x00000000089b1394                oslCreateImageTile
                0x00000000089b1b24                oslAllocImageData
                0x00000000089b1148                oslSetImageFrame
 .text          0x00000000089b1f64      0x300 c:/pspsdk/bin/../lib/gcc/psp/4.3.5/../../../../psp/lib\libosl.a(palette.o)
                0x00000000089b202c                oslDeletePalette
                0x00000000089b1f64                oslGetPaletteColor
                0x00000000089b1fbc                oslUncachePalette
                0x00000000089b20d4                oslCreatePaletteFrom
                0x00000000089b212c                oslCreatePaletteEx
 .text          0x00000000089b2264      0x71c c:/pspsdk/bin/../lib/gcc/psp/4.3.5/../../../../psp/lib\libosl.a(shape.o)
                0x00000000089b2318                oslDrawGradientRect
                0x00000000089b2500                oslDrawFillRect
                0x00000000089b2264                oslBlendColors
                0x00000000089b2844                oslDrawLine
                0x00000000089b263c                oslDrawRect
 .text          0x00000000089b2980      0x674 c:/pspsdk/bin/../lib/gcc/psp/4.3.5/../../../../psp/lib\libosl.a(messagebox.o)
                0x00000000089b2980                oslUIDrawButtonFrame
                0x00000000089b2af4                oslMessageBox
 .text          0x00000000089b2ff4      0x4e0 c:/pspsdk/bin/../lib/gcc/psp/4.3.5/../../../../psp/lib\libosl.a(keys.o)
                0x00000000089b3420                oslKbhit
                0x00000000089b2ff4                oslSetReadKeysFunction
                0x00000000089b3014                oslSetHoldForAnalog
                0x00000000089b315c                oslReadKeys
                0x00000000089b3030                oslReadRemoteKeys
                0x00000000089b3480                oslWaitKey
                0x00000000089b3028                oslIsRemoteExist
                0x00000000089b34cc                oslFlushKey
                0x00000000089b3154                oslFlushRemoteKey
                0x00000000089b3004                oslUnsetReadKeysFunction
 .text          0x00000000089b34d4       0xe8 c:/pspsdk/bin/../lib/gcc/psp/4.3.5/../../../../psp/lib\libosl.a(vfpu.o)
                0x00000000089b34d4                oslVfpu_sinf
                0x00000000089b357c                oslSin
                0x00000000089b3508                oslVfpu_cosf
                0x00000000089b353c                oslCos
 .text          0x00000000089b35bc     0x1a2c c:/pspsdk/bin/../lib/gcc/psp/4.3.5/../../../../psp/lib\libosl.a(text.o)
                0x00000000089b3734                oslMoveMem
                0x00000000089b3b44                oslDrawTextTile
                0x00000000089b38b4                oslIntraFontPrintColumn
                0x00000000089b3d20                oslDrawStringLimited
                0x00000000089b45a4                updateIntraFontCharWidth
                0x00000000089b377c                oslSetBkColor
                0x00000000089b35bc                oslDrawChar1BitToImage
                0x00000000089b4d20                oslLoadFontFile
                0x00000000089b4668                oslIntraFontSetStyle
                0x00000000089b3e8c                oslDrawString
                0x00000000089b44f4                oslDeleteFont
                0x00000000089b391c                oslIntraFontShutdown
                0x00000000089b47e4                oslLoadIntraFontFile
                0x00000000089b4cc0                oslInitConsole
                0x00000000089b4710                oslLoadAltIntraFontFile
                0x00000000089b3948                oslGetStringWidth
                0x00000000089b4364                oslDrawTextBox
                0x00000000089b3770                oslSetTextColor
                0x00000000089b3788                oslGetTextBoxHeight
                0x00000000089b48d4                oslLoadFont
                0x00000000089b4008                oslDrawChar
                0x00000000089b4154                oslConsolePrint
                0x00000000089b3930                oslIntraFontInit
                0x00000000089b39ec                oslDrawTextTileBack
 .text          0x00000000089b4fe8      0x5ec c:/pspsdk/bin/../lib/gcc/psp/4.3.5/../../../../psp/lib\libosl.a(vram_mgr.o)
                0x00000000089b5538                oslVramMgrInit
                0x00000000089b52bc                oslVramMgrAllocBlock
                0x00000000089b5078                oslVramMgrFreeBlock
                0x00000000089b4fe8                oslVramMgrSetParameters
 .text          0x00000000089b55d4     0x1b58 c:/pspsdk/bin/../lib/gcc/psp/4.3.5/../../../../psp/lib\libosl.a(audio.o)
                0x00000000089b5c7c                oslAudioCallback_PlaySound_WAV
                0x00000000089b56e0                fgetu32
                0x00000000089b561c                oslGetSoundChannel
                0x00000000089b6954                oslAudioCreateChannel
                0x00000000089b68ac                oslLoadSoundFile
                0x00000000089b58fc                oslAudioCallback
                0x00000000089b5764                get_fmt
                0x00000000089b5f30                oslAudioVSync
                0x00000000089b5d08                oslAudioCallback_StopSound_WAV
                0x00000000089b5de8                oslDeleteSound
                0x00000000089b62a4                oslAudioCallback_AudioCallback_WAV
                0x00000000089b5b78                oslStopSound
                0x00000000089b55d4                oslAudioChannelThreadCallback
                0x00000000089b6c0c                oslAudioRecreateChannel
                0x00000000089b5b30                oslDeinitAudio
                0x00000000089b5bf4                oslPauseSound
                0x00000000089b5d10                oslAudioCallback_ReactiveSound_WAV
                0x00000000089b65cc                oslLoadSoundFileWAV
                0x00000000089b55dc                oslAudioSetChannelCallback
                0x00000000089b6358                open_wave_src
                0x00000000089b6e94                oslAudioOutBlocking
                0x00000000089b55fc                oslAudioDeleteChannel
                0x00000000089b5840                get_next_wav_sample
                0x00000000089b6e74                oslSoundLoopFunc
                0x00000000089b5e1c                oslAudioReactiveSound
                0x00000000089b62c4                close_wave_src
                0x00000000089b5984                oslAudioPowerCallback
                0x00000000089b62f0                oslAudioCallback_DeleteSound_WAV
                0x00000000089b5ff0                oslDecodeWav
                0x00000000089b6d78                oslPlaySound
                0x00000000089b5698                fgetu16
                0x00000000089b5d28                oslInitAudio
                0x00000000089b5650                osl_fgetc
                0x00000000089b5d1c                oslAudioCallback_StandBy_WAV
 .text          0x00000000089b712c      0x730 c:/pspsdk/bin/../lib/gcc/psp/4.3.5/../../../../psp/lib\libosl.a(bgm.o)
                0x00000000089b712c                oslStartAD
                0x00000000089b71cc                oslAudioCallback_StandBy_BGM
                0x00000000089b71d4                oslAudioCallback_DeleteSound_BGM
                0x00000000089b7144                oslAudioCallback_StopSound_BGM
                0x00000000089b7554                oslDecodeADMono
                0x00000000089b7184                oslAudioCallback_PlaySound_BGM
                0x00000000089b71f0                oslLoadSoundFileBGM
                0x00000000089b71bc                oslAudioCallback_ReactiveSound_BGM
                0x00000000089b713c                oslRepriseAD
                0x00000000089b7778                oslAudioCallback_AudioCallback_BGM
 .text          0x00000000089b785c      0x254 c:/pspsdk/bin/../lib/gcc/psp/4.3.5/../../../../psp/lib\libosl.a(usb.o)
                0x00000000089b79d0                oslStopUnloadModule
                0x00000000089b7a10                oslDeinitUsbStorage
                0x00000000089b785c                oslStopUsbStorage
                0x00000000089b78ac                oslStartUsbStorage
                0x00000000089b78b4                oslInitUsbStorage
 .text          0x00000000089b7ab0      0xc38 c:/pspsdk/bin/../lib/gcc/psp/4.3.5/../../../../psp/lib\libosl.a(VirtualFile.o)
                0x00000000089b7b54                vfsMemPutc
                0x00000000089b80a8                oslFindFileInVirtualFilenameList
                0x00000000089b7e0c                vfsMemSeek
                0x00000000089b819c                vfsMemOpen
                0x00000000089b83f0                vfsMemRead
                0x00000000089b7af4                vfsMemClose
                0x00000000089b7e7c                vfsMemTell
                0x00000000089b8474                vfsMemWrite
                0x00000000089b7afc                vfsMemGetc
                0x00000000089b855c                VirtualFileClose
                0x00000000089b8500                vfsMemPuts
                0x00000000089b8314                oslAddVirtualFileList
                0x00000000089b7eac                oslReadEntireFileToMemory
                0x00000000089b7ab0                VirtualFileRegisterSource
                0x00000000089b85b8                VirtualFileOpen
                0x00000000089b7e94                oslSetTempFileData
                0x00000000089b7bb8                vfsMemGets
                0x00000000089b822c                oslRemoveVirtualFileList
                0x00000000089b7fc4                VirtualFileInit
                0x00000000089b7e84                vfsMemEof
 .text          0x00000000089b86e8      0x1a0 c:/pspsdk/bin/../lib/gcc/psp/4.3.5/../../../../psp/lib\libosl.a(vfsFile.o)
                0x00000000089b8814                vfsFileOpen
                0x00000000089b86e8                vfsFileEof
                0x00000000089b8764                vfsFilePuts
                0x00000000089b876c                vfsFileGets
                0x00000000089b8774                vfsFilePutc
                0x00000000089b87e0                vfsFileWrite
                0x00000000089b872c                vfsFileSeek
                0x00000000089b877c                vfsFileGetc
                0x00000000089b8784                vfsFileRead
                0x00000000089b871c                vfsFileTell
                0x00000000089b87f4                vfsFileClose
                0x00000000089b86f4                oslInitVfsFile
 .text          0x00000000089b8888      0x498 c:/pspsdk/bin/../lib/gcc/psp/4.3.5/../../../../psp/lib\libosl.a(oslDrawImage.o)
                0x00000000089b8888                oslDrawImage
 .text          0x00000000089b8d20       0xdc c:/pspsdk/bin/../lib/gcc/psp/4.3.5/../../../../psp/lib\libosl.a(oslDrawImageSimple.o)
                0x00000000089b8d20                oslDrawImageSimple
 .text          0x00000000089b8dfc       0x68 c:/pspsdk/bin/../lib/gcc/psp/4.3.5/../../../../psp/lib\libosl.a(oslLockImage.o)
                0x00000000089b8e44                oslLockImage
                0x00000000089b8dfc                oslUnlockImage
 .text          0x00000000089b8e64      0x368 c:/pspsdk/bin/../lib/gcc/psp/4.3.5/../../../../psp/lib\libosl.a(oslSwizzleImage.o)
                0x00000000089b8e64                oslSwizzleTexture
                0x00000000089b8f24                oslGetSwizzledPixelAddr
                0x00000000089b90a8                oslSwizzleImageTo
                0x00000000089b8fe8                oslSwizzleImage
 .text          0x00000000089b91cc       0x54 c:/pspsdk/bin/../lib/gcc/psp/4.3.5/../../../../psp/lib\libosl.a(oslSetDrawBuffer.o)
                0x00000000089b91cc                oslSetDrawBuffer
 .text          0x00000000089b9220      0x3b8 c:/pspsdk/bin/../lib/gcc/psp/4.3.5/../../../../psp/lib\libosl.a(oslWriteImageFilePNG.o)
                0x00000000089b9220                oslWriteImageFilePNG
                0x00000000089b957c                oslPngWriteFn
 .text          0x00000000089b95d8      0x17c c:/pspsdk/bin/../lib/gcc/psp/4.3.5/../../../../psp/lib\libosl.a(oslLoadImageFile.o)
                0x00000000089b95d8                oslLoadImageFile
 .text          0x00000000089b9754     0x3af8 c:/pspsdk/bin/../lib/gcc/psp/4.3.5/../../../../psp/lib\libosl.a(intraFont.o)
                0x00000000089bc108                intraFontPrintColumn
                0x00000000089bc410                intraFontPreCache
                0x00000000089ba8dc                intraFontPrintColumnUCS2Ex
                0x00000000089ba450                intraFontInit
                0x00000000089ba4f4                intraFontSetEncoding
                0x00000000089ba55c                intraFontMeasureTextUCS2Ex
                0x00000000089ba720                intraFontUnload
                0x00000000089bc1b8                intraFontPrintEx
                0x00000000089b97ac                intraFontGetBMP
                0x00000000089bc088                intraFontMeasureTextEx
                0x00000000089ba808                intraFontActivate
                0x00000000089b9754                intraFontGetV
                0x00000000089bbe20                intraFontPrintColumnUCS2
                0x00000000089bc0a8                intraFontMeasureText
                0x00000000089ba384                intraFontGetID
                0x00000000089bc7a4                intraFontLoad
                0x00000000089bbe94                intraFontPrintUCS2
                0x00000000089bc1cc                intraFontPrint
                0x00000000089ba184                intraFontGetGlyph
                0x00000000089ba490                intraFontSetStyle
                0x00000000089ba488                intraFontShutdown
                0x00000000089bc2f8                intraFontGetTable
                0x00000000089ba514                intraFontSetAltFont
                0x00000000089bbefc                intraFontPrintColumnEx
                0x00000000089bbe88                intraFontPrintUCS2Ex
                0x00000000089bc25c                intraFontPrintf
                0x00000000089ba6e0                intraFontMeasureTextUCS2
 .text          0x00000000089bd24c     0x1e14 c:/pspsdk/bin/../lib/gcc/psp/4.3.5/../../../../psp/lib\libosl.a(libccc.o)
                0x00000000089bd294                cccLZRNextBit
                0x00000000089bd988                cccStrlen
                0x00000000089bd860                cccStrlenUCS2
                0x00000000089bd734                cccStrlenKOR
                0x00000000089bedfc                cccCodetoUCS2
                0x00000000089bd5ec                cccInit
                0x00000000089bd648                cccSetErrorCharUCS2
                0x00000000089be2a4                cccBIG5toUCS2
                0x00000000089bd788                cccStrlenBIG5
                0x00000000089bdf94                cccSetTable
                0x00000000089be4f0                cccKORtoUCS2
                0x00000000089bd894                cccUTF8toUCS2
                0x00000000089be79c                cccGBKtoUCS2
                0x00000000089bea70                cccSJIStoUCS2
                0x00000000089be0fc                cccLoadTable
                0x00000000089be098                cccShutDown
                0x00000000089bd6dc                cccStrlenGBK
                0x00000000089bd9a0                cccStrlenCode
                0x00000000089bd374                cccLZRGetNumber
                0x00000000089bdae0                cccLZRDecompress
                0x00000000089bd7dc                cccStrlenUTF8
                0x00000000089bd658                cccStrlenSJIS
                0x00000000089bd24c                cccLZRFillBuffer
 .text          0x00000000089bf060       0x94 c:/pspsdk/bin/../lib/gcc/psp/4.3.5/../../../../psp/lib\libosl.a(oslHandleLoadNoFailError.o)
                0x00000000089bf060                oslHandleLoadNoFailError
                0x00000000089bf0b8                osl_noFailDefaultCallback
 .text          0x00000000089bf0f4      0x7e0 c:/pspsdk/bin/../lib/gcc/psp/4.3.5/../../../../psp/lib\libosl.a(oslLoadImageFilePNG.o)
                0x00000000089bf878                oslPngReadFn
                0x00000000089bf0f4                oslPngFlushFn
                0x00000000089bf0fc                oslLoadImageFilePNG
 .text          0x00000000089bf8d4      0x2c0 c:/pspsdk/bin/../lib/gcc/psp/4.3.5/../../../../psp/lib\libosl.a(oslLoadImageFileJPG.o)
                0x00000000089bf8d4                oslLoadImageFileJPG
 .text          0x00000000089bfb94      0x74c c:/pspsdk/bin/../lib/gcc/psp/4.3.5/../../../../psp/lib\libosl.a(oslLoadImageFileGIF.o)
                0x00000000089bfbe4                fnCopyLine
                0x00000000089bfb94                fnGifReadFunc
                0x00000000089bfdc4                oslLoadImageFileGIF
                0x00000000089bfd44                DGifGetLineByte
 .text          0x00000000089c02e0      0x28c c:/pspsdk/bin/../lib/gcc/psp/4.3.5/../../../../psp/lib\libosl.a(oslConvertImageTo.o)
                0x00000000089c02e0                oslConvertImageTo
 .text          0x00000000089c056c       0xe4 c:/pspsdk/bin/../lib/gcc/psp/4.3.5/../../../../psp/lib\libosl.a(oslSetImagePixel.o)
                0x00000000089c056c                oslSetImagePixel
 .text          0x00000000089c0650       0xc8 c:/pspsdk/bin/../lib/gcc/psp/4.3.5/../../../../psp/lib\libosl.a(oslGetImagePixel.o)
                0x00000000089c0650                oslGetImagePixel
 .text          0x00000000089c0718     0x1704 c:/pspsdk/bin/../lib/gcc/psp/4.3.5/../../../../psp/lib\libosl.a(dgif_lib.o)
                0x00000000089c1220                DGifGetExtensionNext
                0x00000000089c1498                DGifGetRecordType
                0x00000000089c18b0                DGifGetImageDesc
                0x00000000089c1694                DGifGetScreenDesc
                0x00000000089c1054                DGifGetPixel
                0x00000000089c113c                DGifGetLine
                0x00000000089c1590                DGifCloseFile
                0x00000000089c0f18                DGifGetLZCodes
                0x00000000089c1328                DGifGetExtension
                0x00000000089c101c                DGifGetCode
                0x00000000089c1cc0                DGifOpen
                0x00000000089c0e08                DGifGetCodeNext
 .text          0x00000000089c1e1c       0x10 c:/pspsdk/bin/../lib/gcc/psp/4.3.5/../../../../psp/lib\libosl.a(gif_err.o)
                0x00000000089c1e1c                GifLastError
 .text          0x00000000089c1e2c      0x9bc c:/pspsdk/bin/../lib/gcc/psp/4.3.5/../../../../psp/lib\libosl.a(gifalloc.o)
                0x00000000089c1e2c                BitSize
                0x00000000089c1e5c                ApplyTranslation
                0x00000000089c2050                FreeLastSavedImage
                0x00000000089c1ea8                MakeExtension
                0x00000000089c24b8                UnionColorMap
                0x00000000089c1f44                FreeMapObject
                0x00000000089c21e8                MakeMapObject
                0x00000000089c1eb0                FreeExtension
                0x00000000089c20dc                AddExtensionBlock
                0x00000000089c1f84                FreeSavedImages
                0x00000000089c22d8                MakeSavedImage
 .text          0x00000000089c27e8      0xb18 c:/pspsdk/bin/../lib/gcc/psp/4.3.5/../../../../psp/lib\libpng.a(png.o)
                0x00000000089c2820                png_get_header_ver
                0x00000000089c2a98                png_zfree
                0x00000000089c3024                png_zalloc
                0x00000000089c280c                png_get_libpng_ver
                0x00000000089c2920                png_sig_cmp
                0x00000000089c32b4                png_set_sig_bytes
                0x00000000089c30e8                png_info_destroy
                0x00000000089c27e8                png_get_io_ptr
                0x00000000089c29bc                png_convert_to_rfc1123
                0x00000000089c287c                png_handle_as_unknown
                0x00000000089c2848                png_access_version_number
                0x00000000089c309c                png_info_init_3
                0x00000000089c27f8                png_get_copyright
                0x00000000089c2834                png_get_header_version
                0x00000000089c2874                png_reset_zstream
                0x00000000089c3218                png_calculate_crc
                0x00000000089c286c                png_mmx_support
                0x00000000089c2998                png_check_sig
                0x00000000089c3280                png_reset_crc
                0x00000000089c31c8                png_create_info_struct
                0x00000000089c3144                png_info_init
                0x00000000089c3168                png_destroy_info_struct
                0x00000000089c2aa0                png_free_data
                0x00000000089c2fd0                png_data_freer
                0x00000000089c27f0                png_init_io
                0x00000000089c2850                png_init_mmx_flags
 .text          0x00000000089c3300      0x460 c:/pspsdk/bin/../lib/gcc/psp/4.3.5/../../../../psp/lib\libpng.a(pngerror.o)
                0x00000000089c359c                png_error
                0x00000000089c3450                png_warning
                0x00000000089c3564                png_chunk_warning
                0x00000000089c3318                png_set_strip_error_numbers
                0x00000000089c3310                png_get_error_ptr
                0x00000000089c3728                png_chunk_error
                0x00000000089c3300                png_set_error_fn
 .text          0x00000000089c3760      0x278 c:/pspsdk/bin/../lib/gcc/psp/4.3.5/../../../../psp/lib\libpng.a(pngmem.o)
                0x00000000089c3830                png_destroy_struct
                0x00000000089c3760                png_set_mem_fn
                0x00000000089c3798                png_free_default
                0x00000000089c393c                png_create_struct_2
                0x00000000089c3778                png_memset_check
                0x00000000089c385c                png_malloc
                0x00000000089c39cc                png_create_struct
                0x00000000089c37ec                png_destroy_struct_2
                0x00000000089c3788                png_memcpy_check
                0x00000000089c37b8                png_free
                0x00000000089c3770                png_get_mem_ptr
                0x00000000089c38fc                png_malloc_warn
                0x00000000089c383c                png_malloc_default
 .text          0x00000000089c39d8     0x2234 c:/pspsdk/bin/../lib/gcc/psp/4.3.5/../../../../psp/lib\libpng.a(pngread.o)
                0x00000000089c39e0                png_read_destroy
                0x00000000089c39d8                png_set_read_status_fn
                0x00000000089c5904                png_read_init
                0x00000000089c5bfc                png_create_read_struct
                0x00000000089c550c                png_read_init_3
                0x00000000089c5268                png_read_png
                0x00000000089c43a8                png_start_read_image
                0x00000000089c57ac                png_read_init_2
                0x00000000089c4c08                png_read_info
                0x00000000089c3d1c                png_destroy_read_struct
                0x00000000089c4b98                png_read_update_info
                0x00000000089c49e0                png_read_image
                0x00000000089c43c8                png_read_row
                0x00000000089c5918                png_create_read_struct_2
                0x00000000089c4a8c                png_read_rows
                0x00000000089c3e30                png_read_end
 .text          0x00000000089c5c0c       0xe8 c:/pspsdk/bin/../lib/gcc/psp/4.3.5/../../../../psp/lib\libpng.a(pngrio.o)
                0x00000000089c5c0c                png_set_read_fn
                0x00000000089c5cd8                png_read_data
                0x00000000089c5c78                png_default_read_data
 .text          0x00000000089c5cf4     0x6bc0 c:/pspsdk/bin/../lib/gcc/psp/4.3.5/../../../../psp/lib\libpng.a(pngrtran.o)
                0x00000000089c6840                png_do_read_filler
                0x00000000089cbf60                png_set_dither
                0x00000000089c5e2c                png_set_gray_1_2_4_to_8
                0x00000000089c5e5c                png_set_read_user_transform_fn
                0x00000000089c5d04                png_set_strip_alpha
                0x00000000089c5cf4                png_set_strip_16
                0x00000000089c8750                png_build_gamma_table
                0x00000000089c62f4                png_do_unshift
                0x00000000089c8490                png_do_dither
                0x00000000089c6e4c                png_do_rgb_to_gray
                0x00000000089cb664                png_set_rgb_to_gray
                0x00000000089c5e4c                png_set_gray_to_rgb
                0x00000000089c6c1c                png_do_gray_to_rgb
                0x00000000089cb4cc                png_set_rgb_to_gray_fixed
                0x00000000089cb9e0                png_do_read_transformations
                0x00000000089cb87c                png_set_crc_action
                0x00000000089c5e1c                png_set_palette_to_rgb
                0x00000000089c65a8                png_do_read_swap_alpha
                0x00000000089c76cc                png_do_gamma
                0x00000000089c5e0c                png_set_expand
                0x00000000089c5e74                png_read_transform_info
                0x00000000089c92c0                png_init_read_transformations
                0x00000000089c7f54                png_do_expand
                0x00000000089c5e3c                png_set_tRNS_to_alpha
                0x00000000089c6718                png_do_read_invert_alpha
                0x00000000089c7638                png_build_grayscale_palette
                0x00000000089c8630                png_do_read_intrapixel
                0x00000000089c6530                png_do_chop
                0x00000000089cb76c                png_set_background
                0x00000000089c6174                png_do_unpack
                0x00000000089c7c2c                png_do_expand_palette
                0x00000000089c5d18                png_set_gamma
                0x00000000089ca210                png_do_background
 .text          0x00000000089cc8b4     0x4ae8 c:/pspsdk/bin/../lib/gcc/psp/4.3.5/../../../../psp/lib\libpng.a(pngrutil.o)
                0x00000000089d0208                png_handle_sRGB
                0x00000000089ce008                png_read_finish_row
                0x00000000089d11b0                png_handle_IHDR
                0x00000000089ccd10                png_crc_error
                0x00000000089cc90c                png_get_uint_16
                0x00000000089cd93c                png_check_chunk_name
                0x00000000089cc924                png_get_uint_31
                0x00000000089ccdc0                png_read_filter_row
                0x00000000089cc990                png_read_start_row
                0x00000000089cf3a8                png_handle_pHYs
                0x00000000089cc8b4                png_get_uint_32
                0x00000000089cdf90                png_handle_IEND
                0x00000000089cf534                png_handle_hIST
                0x00000000089d0d78                png_handle_gAMA
                0x00000000089ce9d8                png_handle_tIME
                0x00000000089cf944                png_handle_tRNS
                0x00000000089d0f70                png_handle_PLTE
                0x00000000089cf21c                png_handle_oFFs
                0x00000000089cf6f0                png_handle_bKGD
                0x00000000089ceb40                png_handle_sCAL
                0x00000000089cff3c                png_handle_iCCP
                0x00000000089ce580                png_handle_zTXt
                0x00000000089cede4                png_handle_pCAL
                0x00000000089ce3b0                png_handle_unknown
                0x00000000089cde38                png_crc_read
                0x00000000089d0be0                png_handle_sBIT
                0x00000000089cd500                png_combine_row
                0x00000000089cfb98                png_handle_sPLT
                0x00000000089cde80                png_crc_finish
                0x00000000089d0474                png_handle_cHRM
                0x00000000089cd9f8                png_decompress_chunk
                0x00000000089cd040                png_do_read_interlace
                0x00000000089cc8e0                png_get_int_32
                0x00000000089ce800                png_handle_tEXt
 .text          0x00000000089d139c     0x2158 c:/pspsdk/bin/../lib/gcc/psp/4.3.5/../../../../psp/lib\libpng.a(pngset.o)
                0x00000000089d1908                png_set_sBIT
                0x00000000089d1c90                png_set_cHRM_fixed
                0x00000000089d1b58                png_set_gAMA
                0x00000000089d145c                png_set_unknown_chunk_location
                0x00000000089d14cc                png_permit_mng_features
                0x00000000089d3008                png_set_text
                0x00000000089d1a88                png_set_gAMA_fixed
                0x00000000089d1940                png_set_bKGD
                0x00000000089d139c                png_set_oFFs
                0x00000000089d3048                png_set_IHDR
                0x00000000089d1610                png_set_keep_unknown_chunks
                0x00000000089d17d4                png_set_tRNS
                0x00000000089d1518                png_set_asm_flags
                0x00000000089d1534                png_set_mmx_thresholds
                0x00000000089d2b1c                png_set_pCAL
                0x00000000089d26a4                png_set_unknown_chunks
                0x00000000089d3438                png_set_PLTE
                0x00000000089d14f4                png_set_invalid
                0x00000000089d2d34                png_set_sPLT
                0x00000000089d207c                png_set_cHRM
                0x00000000089d13cc                png_set_sCAL
                0x00000000089d2eb0                png_set_iCCP
                0x00000000089d14a0                png_permit_empty_plte
                0x00000000089d288c                png_set_text_2
                0x00000000089d154c                png_set_compression_buffer_size
                0x00000000089d14e8                png_set_read_user_chunk_fn
                0x00000000089d1994                png_set_hIST
                0x00000000089d1540                png_set_user_limits
                0x00000000089d2574                png_set_sRGB_gAMA_and_cHRM
                0x00000000089d1404                png_set_pHYs
                0x00000000089d1434                png_set_sRGB
                0x00000000089d18bc                png_set_tIME
                0x00000000089d15a8                png_set_rows
 .text          0x00000000089d34f4      0x81c c:/pspsdk/bin/../lib/gcc/psp/4.3.5/../../../../psp/lib\libpng.a(pngtrans.o)
                0x00000000089d3640                png_set_add_alpha
                0x00000000089d3848                png_do_strip_filler
                0x00000000089d35c8                png_set_filler
                0x00000000089d359c                png_set_interlace_handling
                0x00000000089d376c                png_do_swap
                0x00000000089d3528                png_set_packing
                0x00000000089d3674                png_set_swap_alpha
                0x00000000089d3cf8                png_set_user_transform_info
                0x00000000089d34f4                png_set_bgr
                0x00000000089d3504                png_set_swap
                0x00000000089d3bbc                png_do_bgr
                0x00000000089d3550                png_set_packswap
                0x00000000089d369c                png_set_invert_mono
                0x00000000089d37c0                png_do_packswap
                0x00000000089d36ac                png_do_invert
                0x00000000089d3688                png_set_invert_alpha
                0x00000000089d3d08                png_get_user_transform_ptr
                0x00000000089d3574                png_set_shift
 .text          0x00000000089d3d10      0x140 c:/pspsdk/bin/../lib/gcc/psp/4.3.5/../../../../psp/lib\libpng.a(pngwio.o)
                0x00000000089d3dd4                png_default_write_data
                0x00000000089d3db8                png_default_flush
                0x00000000089d3d2c                png_set_write_fn
                0x00000000089d3d10                png_flush
                0x00000000089d3e34                png_write_data
 .text          0x00000000089d3e50     0x2118 c:/pspsdk/bin/../lib/gcc/psp/4.3.5/../../../../psp/lib\libpng.a(pngwrite.o)
                0x00000000089d3ed8                png_set_write_status_fn
                0x00000000089d3e9c                png_set_compression_level
                0x00000000089d517c                png_create_write_struct_2
                0x00000000089d5010                png_write_init_2
                0x00000000089d3eb0                png_set_compression_mem_level
                0x00000000089d4d5c                png_write_rows
                0x00000000089d3f48                png_set_compression_window_bits
                0x00000000089d3e8c                png_set_flush
                0x00000000089d53c4                png_create_write_struct
                0x00000000089d5688                png_write_info_before_PLTE
                0x00000000089d4a54                png_write_row
                0x00000000089d59b0                png_write_info
                0x00000000089d4e60                png_write_init_3
                0x00000000089d5438                png_write_end
                0x00000000089d5dec                png_write_png
                0x00000000089d4468                png_set_filter
                0x00000000089d3ee0                png_set_write_user_transform_fn
                0x00000000089d46b0                png_write_destroy
                0x00000000089d53d4                png_convert_from_time_t
                0x00000000089d4dc0                png_write_image
                0x00000000089d3ef8                png_set_compression_method
                0x00000000089d4004                png_set_filter_heuristics
                0x00000000089d4960                png_write_flush
                0x00000000089d3ec4                png_set_compression_strategy
                0x00000000089d4864                png_destroy_write_struct
                0x00000000089d3e50                png_convert_from_struct_tm
                0x00000000089d5168                png_write_init
 .text          0x00000000089d5f68      0xaa0 c:/pspsdk/bin/../lib/gcc/psp/4.3.5/../../../../psp/lib\libpng.a(pngwtran.o)
                0x00000000089d5f68                png_do_pack
                0x00000000089d65f0                png_do_write_invert_alpha
                0x00000000089d6158                png_do_shift
                0x00000000089d681c                png_do_write_transformations
                0x00000000089d6490                png_do_write_swap_alpha
                0x00000000089d66fc                png_do_write_intrapixel
 .text          0x00000000089d6a08     0x42c8 c:/pspsdk/bin/../lib/gcc/psp/4.3.5/../../../../psp/lib\libpng.a(pngwutil.o)
                0x00000000089d9360                png_write_gAMA_fixed
                0x00000000089d81b4                png_write_iCCP
                0x00000000089d73c0                png_check_keyword
                0x00000000089d9304                png_write_sRGB
                0x00000000089d7920                png_write_sCAL
                0x00000000089da884                png_write_IHDR
                0x00000000089d7c14                png_write_tEXt
                0x00000000089d76dc                png_write_chunk_end
                0x00000000089d8c00                png_write_cHRM
                0x00000000089d6a28                png_save_int_32
                0x00000000089d89b8                png_write_cHRM_fixed
                0x00000000089d6e04                png_write_start_row
                0x00000000089d7d30                png_write_zTXt
                0x00000000089d8328                png_write_PLTE
                0x00000000089d86f0                png_write_bKGD
                0x00000000089d9214                png_write_sBIT
                0x00000000089d988c                png_write_filtered_row
                0x00000000089d7f84                png_write_sPLT
                0x00000000089d9998                png_write_find_filter
                0x00000000089d9478                png_write_IDAT
                0x00000000089d6a48                png_save_uint_16
                0x00000000089d6a08                png_save_uint_32
                0x00000000089d771c                png_write_chunk_data
                0x00000000089d84e4                png_write_tIME
                0x00000000089d8490                png_write_chunk
                0x00000000089d78a0                png_write_chunk_start
                0x00000000089d7ebc                png_write_hIST
                0x00000000089d95f8                png_write_finish_row
                0x00000000089d9438                png_write_IEND
                0x00000000089d7a14                png_write_pCAL
                0x00000000089d8644                png_write_oFFs
                0x00000000089d93a8                png_write_gAMA
                0x00000000089d6a58                png_do_write_interlace
                0x00000000089d8598                png_write_pHYs
                0x00000000089d7674                png_write_sig
                0x00000000089d885c                png_write_tRNS
 .text          0x00000000089dacd0      0xefc c:/pspsdk/bin/../lib/gcc/psp/4.3.5/../../../../psp/lib\libpng.a(pngget.o)
                0x00000000089db760                png_get_sBIT
                0x00000000089db2b4                png_get_cHRM_fixed
                0x00000000089db0e0                png_get_bKGD
                0x00000000089db4f4                png_get_hIST
                0x00000000089dadd4                png_get_interlace_type
                0x00000000089db028                png_get_x_offset_pixels
                0x00000000089db4cc                png_get_sPLT
                0x00000000089dacf4                png_get_rowbytes
                0x00000000089db460                png_get_iCCP
                0x00000000089db900                png_get_rgb_to_gray_status
                0x00000000089dadb4                png_get_filter_type
                0x00000000089db800                png_get_tIME
                0x00000000089dafe8                png_get_y_offset_microns
                0x00000000089dad54                png_get_image_height
                0x00000000089db59c                png_get_pCAL
                0x00000000089dad34                png_get_image_width
                0x00000000089db960                png_get_asm_flagmask
                0x00000000089dae14                png_get_x_pixels_per_meter
                0x00000000089db41c                png_get_sRGB
                0x00000000089db0a0                png_get_channels
                0x00000000089db9c0                png_get_user_width_max
                0x00000000089db36c                png_get_gAMA
                0x00000000089db064                png_get_y_offset_pixels
                0x00000000089db930                png_get_compression_buffer_size
                0x00000000089dacd0                png_get_valid
                0x00000000089dadf4                png_get_compression_type
                0x00000000089dafa8                png_get_x_offset_microns
                0x00000000089dad14                png_get_rows
                0x00000000089db538                png_get_oFFs
                0x00000000089dad74                png_get_bit_depth
                0x00000000089db9d8                png_get_user_height_max
                0x00000000089dad94                png_get_color_type
                0x00000000089db714                png_get_PLTE
                0x00000000089dae94                png_get_pixels_per_meter
                0x00000000089db9f0                png_get_IHDR
                0x00000000089db3d8                png_get_gAMA_fixed
                0x00000000089db9a8                png_get_mmx_rowbytes_threshold
                0x00000000089db0c0                png_get_signature
                0x00000000089db990                png_get_mmx_bitdepth_threshold
                0x00000000089db7a0                png_get_text
                0x00000000089db64c                png_get_sCAL
                0x00000000089db120                png_get_cHRM
                0x00000000089db840                png_get_tRNS
                0x00000000089db6a8                png_get_pHYs
                0x00000000089db970                png_get_mmx_flagmask
                0x00000000089db948                png_get_asm_flags
                0x00000000089dae54                png_get_y_pixels_per_meter
                0x00000000089db8d8                png_get_unknown_chunks
                0x00000000089daee4                png_get_pixel_aspect_ratio
                0x00000000089db918                png_get_user_chunk_ptr
 .text          0x00000000089dbbcc      0x3d4 c:/pspsdk/bin/../lib/gcc/psp/4.3.5/../../../../psp/lib\libz.a(adler32.o)
                0x00000000089dbbcc                adler32
                0x00000000089dbf90                adler32_combine
                0x00000000089dbf98                adler32_combine64
 .text          0x00000000089dbfa0       0xd8 c:/pspsdk/bin/../lib/gcc/psp/4.3.5/../../../../psp/lib\libz.a(compress.o)
                0x00000000089dbfc0                compress2
                0x00000000089dbfa0                compressBound
                0x00000000089dc070                compress
 .text          0x00000000089dc078      0xc40 c:/pspsdk/bin/../lib/gcc/psp/4.3.5/../../../../psp/lib\libz.a(crc32.o)
                0x00000000089dc084                crc32
                0x00000000089dcca8                crc32_combine
                0x00000000089dccb0                crc32_combine64
                0x00000000089dc078                get_crc_table
 .text          0x00000000089dccb8     0x278c c:/pspsdk/bin/../lib/gcc/psp/4.3.5/../../../../psp/lib\libz.a(inflate.o)
                0x00000000089dd310                inflateCopy
                0x00000000089dd28c                inflateUndermine
                0x00000000089dcd38                inflateReset2
                0x00000000089dd824                inflate
                0x00000000089dd254                inflateSyncPoint
                0x00000000089dd008                inflateGetHeader
                0x00000000089dcf0c                inflateInit_
                0x00000000089dd2b8                inflateMark
                0x00000000089dcf1c                inflatePrime
                0x00000000089dccb8                inflateReset
                0x00000000089dd040                inflateSync
                0x00000000089dd6ec                inflateSetDictionary
                0x00000000089dcf94                inflateEnd
                0x00000000089dce18                inflateInit2_
 .text          0x00000000089df444      0x698 c:/pspsdk/bin/../lib/gcc/psp/4.3.5/../../../../psp/lib\libz.a(inftrees.o)
                0x00000000089df444                inflate_table
 .text          0x00000000089dfadc     0x20f8 c:/pspsdk/bin/../lib/gcc/psp/4.3.5/../../../../psp/lib\libz.a(trees.o)
                0x00000000089e14d4                _tr_flush_block
                0x00000000089e0a0c                _tr_stored_block
                0x00000000089dfadc                _tr_init
                0x00000000089e0f48                _tr_tally
                0x00000000089e0ba0                _tr_align
 .text          0x00000000089e1bd4       0xd8 c:/pspsdk/bin/../lib/gcc/psp/4.3.5/../../../../psp/lib\libz.a(uncompr.o)
                0x00000000089e1bd4                uncompress
 .text          0x00000000089e1cac       0x48 c:/pspsdk/bin/../lib/gcc/psp/4.3.5/../../../../psp/lib\libz.a(zutil.o)
                0x00000000089e1cac                zlibVersion
                0x00000000089e1cb8                zlibCompileFlags
                0x00000000089e1ce0                zcfree
                0x00000000089e1cc0                zError
                0x00000000089e1ce8                zcalloc
 .text          0x00000000089e1cf4      0x5b8 c:/pspsdk/bin/../lib/gcc/psp/4.3.5/../../../../psp/lib\libz.a(inffast.o)
                0x00000000089e1cf4                inflate_fast
 .text          0x00000000089e22ac      0x6ec c:/pspsdk/bin/../lib/gcc/psp/4.3.5/../../../../psp/lib\libjpeg.a(jdapimin.o)
                0x00000000089e2864                jpeg_abort_decompress
                0x00000000089e286c                jpeg_destroy_decompress
                0x00000000089e2874                jpeg_CreateDecompress
                0x00000000089e2620                jpeg_has_multiple_scans
                0x00000000089e22ac                jpeg_consume_input
                0x00000000089e25c4                jpeg_input_complete
                0x00000000089e279c                jpeg_read_header
                0x00000000089e267c                jpeg_finish_decompress
 .text          0x00000000089e2998      0x694 c:/pspsdk/bin/../lib/gcc/psp/4.3.5/../../../../psp/lib\libjpeg.a(jdapistd.o)
                0x00000000089e2aac                jpeg_read_scanlines
                0x00000000089e2eb0                jpeg_start_decompress
                0x00000000089e2bb4                jpeg_read_raw_data
                0x00000000089e2dc4                jpeg_finish_output
                0x00000000089e2d34                jpeg_start_output
 .text          0x00000000089e302c      0x358 c:/pspsdk/bin/../lib/gcc/psp/4.3.5/../../../../psp/lib\libjpeg.a(jdatasrc.o)
                0x00000000089e31f4                jpeg_mem_src
                0x00000000089e3130                jpeg_stdio_src
 .text          0x00000000089e3384      0xa78 c:/pspsdk/bin/../lib/gcc/psp/4.3.5/../../../../psp/lib\libjpeg.a(jdmaster.o)
                0x00000000089e3a4c                jinit_master_decompress
                0x00000000089e3774                jpeg_calc_output_dimensions
                0x00000000089e36b8                jpeg_new_colormap
 .text          0x00000000089e3dfc      0xd7c c:/pspsdk/bin/../lib/gcc/psp/4.3.5/../../../../psp/lib\libjpeg.a(jdinput.o)
                0x00000000089e3e70                jinit_input_controller
                0x00000000089e3ee8                jpeg_core_output_dimensions
 .text          0x00000000089e4b78     0x2a00 c:/pspsdk/bin/../lib/gcc/psp/4.3.5/../../../../psp/lib\libjpeg.a(jdmarker.o)
                0x00000000089e60e0                jpeg_set_marker_processor
                0x00000000089e5d14                jpeg_resync_to_restart
                0x00000000089e5f04                jinit_marker_reader
                0x00000000089e5fc4                jpeg_save_markers
 .text          0x00000000089e7578     0x2794 c:/pspsdk/bin/../lib/gcc/psp/4.3.5/../../../../psp/lib\libjpeg.a(jdhuff.o)
                0x00000000089e9158                jinit_huff_decoder
 .text          0x00000000089e9d0c      0x978 c:/pspsdk/bin/../lib/gcc/psp/4.3.5/../../../../psp/lib\libjpeg.a(jdmainct.o)
                0x00000000089ea434                jinit_d_main_controller
 .text          0x00000000089ea684     0x14f0 c:/pspsdk/bin/../lib/gcc/psp/4.3.5/../../../../psp/lib\libjpeg.a(jdcoefct.o)
                0x00000000089eadd0                jinit_d_coef_controller
 .text          0x00000000089ebb74      0x550 c:/pspsdk/bin/../lib/gcc/psp/4.3.5/../../../../psp/lib\libjpeg.a(jdpostct.o)
                0x00000000089ebfbc                jinit_d_post_controller
 .text          0x00000000089ec0c4      0x7e0 c:/pspsdk/bin/../lib/gcc/psp/4.3.5/../../../../psp/lib\libjpeg.a(jddctmgr.o)
                0x00000000089ec7dc                jinit_inverse_dct
 .text          0x00000000089ec8a4      0x4a0 c:/pspsdk/bin/../lib/gcc/psp/4.3.5/../../../../psp/lib\libjpeg.a(jidctfst.o)
                0x00000000089ec8a4                jpeg_idct_ifast
 .text          0x00000000089ecd44      0x42c c:/pspsdk/bin/../lib/gcc/psp/4.3.5/../../../../psp/lib\libjpeg.a(jidctflt.o)
                0x00000000089ecd44                jpeg_idct_float
 .text          0x00000000089ed170     0x799c c:/pspsdk/bin/../lib/gcc/psp/4.3.5/../../../../psp/lib\libjpeg.a(jidctint.o)
                0x00000000089ef8c0                jpeg_idct_13x13
                0x00000000089f475c                jpeg_idct_3x6
                0x00000000089f4014                jpeg_idct_5x10
                0x00000000089ee39c                jpeg_idct_1x1
                0x00000000089ed170                jpeg_idct_islow
                0x00000000089eecb8                jpeg_idct_11x11
                0x00000000089f06d4                jpeg_idct_15x15
                0x00000000089f30bc                jpeg_idct_8x16
                0x00000000089f1d24                jpeg_idct_14x7
                0x00000000089f1638                jpeg_idct_16x8
                0x00000000089f43a4                jpeg_idct_4x8
                0x00000000089f3c0c                jpeg_idct_6x12
                0x00000000089f2f30                jpeg_idct_4x2
                0x00000000089f0060                jpeg_idct_14x14
                0x00000000089ee194                jpeg_idct_3x3
                0x00000000089edaf0                jpeg_idct_6x6
                0x00000000089f4964                jpeg_idct_2x4
                0x00000000089f0df0                jpeg_idct_16x16
                0x00000000089ef360                jpeg_idct_12x12
                0x00000000089edd80                jpeg_idct_5x5
                0x00000000089ee804                jpeg_idct_10x10
                0x00000000089ee2d8                jpeg_idct_2x2
                0x00000000089f2288                jpeg_idct_12x6
                0x00000000089f36f8                jpeg_idct_7x14
                0x00000000089f2d48                jpeg_idct_6x3
                0x00000000089ed6ec                jpeg_idct_7x7
                0x00000000089f4aa0                jpeg_idct_1x2
                0x00000000089f2a34                jpeg_idct_8x4
                0x00000000089f3058                jpeg_idct_2x1
                0x00000000089edfd8                jpeg_idct_4x4
                0x00000000089f2698                jpeg_idct_10x5
                0x00000000089ee3d4                jpeg_idct_9x9
 .text          0x00000000089f4b0c      0x674 c:/pspsdk/bin/../lib/gcc/psp/4.3.5/../../../../psp/lib\libjpeg.a(jdsample.o)
                0x00000000089f4d24                jinit_upsampler
 .text          0x00000000089f5180      0x78c c:/pspsdk/bin/../lib/gcc/psp/4.3.5/../../../../psp/lib\libjpeg.a(jdcolor.o)
                0x00000000089f5664                jinit_color_deconverter
 .text          0x00000000089f590c      0xf94 c:/pspsdk/bin/../lib/gcc/psp/4.3.5/../../../../psp/lib\libjpeg.a(jquant1.o)
                0x00000000089f5d84                jinit_1pass_quantizer
 .text          0x00000000089f68a0     0x1978 c:/pspsdk/bin/../lib/gcc/psp/4.3.5/../../../../psp/lib\libjpeg.a(jquant2.o)
                0x00000000089f7e44                jinit_2pass_quantizer
 .text          0x00000000089f8218      0x830 c:/pspsdk/bin/../lib/gcc/psp/4.3.5/../../../../psp/lib\libjpeg.a(jdmerge.o)
                0x00000000089f8760                jinit_merged_upsampler
 .text          0x00000000089f8a48       0xf4 c:/pspsdk/bin/../lib/gcc/psp/4.3.5/../../../../psp/lib\libjpeg.a(jcomapi.o)
                0x00000000089f8aa8                jpeg_destroy
                0x00000000089f8b10                jpeg_alloc_huff_table
                0x00000000089f8a48                jpeg_abort
                0x00000000089f8ae4                jpeg_alloc_quant_table
 .text          0x00000000089f8b3c       0xcc c:/pspsdk/bin/../lib/gcc/psp/4.3.5/../../../../psp/lib\libjpeg.a(jutils.o)
                0x00000000089f8b58                jround_up
                0x00000000089f8b3c                jdiv_round_up
                0x00000000089f8b98                jcopy_sample_rows
                0x00000000089f8b78                jzero_far
                0x00000000089f8b84                jcopy_block_row
 .text          0x00000000089f8c08      0x274 c:/pspsdk/bin/../lib/gcc/psp/4.3.5/../../../../psp/lib\libjpeg.a(jerror.o)
                0x00000000089f8ca0                jpeg_std_error
 .text          0x00000000089f8e7c     0x155c c:/pspsdk/bin/../lib/gcc/psp/4.3.5/../../../../psp/lib\libjpeg.a(jmemmgr.o)
                0x00000000089f94e8                jinit_memory_mgr
 .text          0x00000000089fa3d8       0x4c c:/pspsdk/bin/../lib/gcc/psp/4.3.5/../../../../psp/lib\libjpeg.a(jmemnobs.o)
                0x00000000089fa41c                jpeg_get_small
                0x00000000089fa3f4                jpeg_mem_init
                0x00000000089fa3e0                jpeg_open_backing_store
                0x00000000089fa3fc                jpeg_mem_term
                0x00000000089fa3d8                jpeg_mem_available
                0x00000000089fa414                jpeg_get_large
                0x00000000089fa404                jpeg_free_large
                0x00000000089fa40c                jpeg_free_small
 .text          0x00000000089fa424     0x1730 c:/pspsdk/bin/../lib/gcc/psp/4.3.5/../../../../psp/lib\libjpeg.a(jdarith.o)
                0x00000000089fa798                jinit_arith_decoder
 .text          0x00000000089fbb54      0x178 c:/pspsdk/psp/sdk/lib\libpspsdk.a(loadmodule.o)
                0x00000000089fbcc0                pspSdkLoadStartModule
                0x00000000089fbb54                pspSdkLoadStartModuleWithArgs
 .text          0x00000000089fbccc       0x20 c:/pspsdk/psp/sdk/lib\libpspgu.a(sceGuAlphaFunc.o)
                0x00000000089fbccc                sceGuAlphaFunc
 .text          0x00000000089fbcec       0x3c c:/pspsdk/psp/sdk/lib\libpspgu.a(sceGuAmbientColor.o)
                0x00000000089fbcec                sceGuAmbientColor
 .text          0x00000000089fbd28       0x68 c:/pspsdk/psp/sdk/lib\libpspgu.a(sceGuBlendFunc.o)
                0x00000000089fbd28                sceGuBlendFunc
 .text          0x00000000089fbd90      0x224 c:/pspsdk/psp/sdk/lib\libpspgu.a(sceGuClear.o)
                0x00000000089fbd90                sceGuClear
 .text          0x00000000089fbfb4       0x28 c:/pspsdk/psp/sdk/lib\libpspgu.a(sceGuClearColor.o)
                0x00000000089fbfb4                sceGuClearColor
 .text          0x00000000089fbfdc       0x5c c:/pspsdk/psp/sdk/lib\libpspgu.a(sceGuClutLoad.o)
                0x00000000089fbfdc                sceGuClutLoad
 .text          0x00000000089fc038       0x20 c:/pspsdk/psp/sdk/lib\libpspgu.a(sceGuClutMode.o)
                0x00000000089fc038                sceGuClutMode
 .text          0x00000000089fc058       0x58 c:/pspsdk/psp/sdk/lib\libpspgu.a(sceGuColorFunc.o)
                0x00000000089fc058                sceGuColorFunc
 .text          0x00000000089fc0b0       0x74 c:/pspsdk/psp/sdk/lib\libpspgu.a(sceGuDepthBuffer.o)
                0x00000000089fc0b0                sceGuDepthBuffer
 .text          0x00000000089fc124        0xc c:/pspsdk/psp/sdk/lib\libpspgu.a(sceGuDepthFunc.o)
                0x00000000089fc124                sceGuDepthFunc
 .text          0x00000000089fc130       0xd0 c:/pspsdk/psp/sdk/lib\libpspgu.a(sceGuDepthRange.o)
                0x00000000089fc130                sceGuDepthRange
 .text          0x00000000089fc200      0x298 c:/pspsdk/psp/sdk/lib\libpspgu.a(sceGuDisable.o)
                0x00000000089fc200                sceGuDisable
 .text          0x00000000089fc498      0x120 c:/pspsdk/psp/sdk/lib\libpspgu.a(sceGuDispBuffer.o)
                0x00000000089fc498                drawRegion
                0x00000000089fc508                sceGuDispBuffer
 .text          0x00000000089fc5b8       0x84 c:/pspsdk/psp/sdk/lib\libpspgu.a(sceGuDisplay.o)
                0x00000000089fc5b8                sceGuDisplay
 .text          0x00000000089fc63c       0xbc c:/pspsdk/psp/sdk/lib\libpspgu.a(sceGuDrawArray.o)
                0x00000000089fc63c                sceGuDrawArray
 .text          0x00000000089fc6f8       0xe4 c:/pspsdk/psp/sdk/lib\libpspgu.a(sceGuDrawBuffer.o)
                0x00000000089fc6f8                sceGuDrawBuffer
 .text          0x00000000089fc7dc      0x2a8 c:/pspsdk/psp/sdk/lib\libpspgu.a(sceGuEnable.o)
                0x00000000089fc7dc                sceGuEnable
 .text          0x00000000089fca84      0x1b8 c:/pspsdk/psp/sdk/lib\libpspgu.a(sceGuFinish.o)
                0x00000000089fcb60                sceGuFinish
                0x00000000089fca84                sceGuFinishId
 .text          0x00000000089fcc3c       0x18 c:/pspsdk/psp/sdk/lib\libpspgu.a(sceGuFrontFace.o)
                0x00000000089fcc3c                sceGuFrontFace
 .text          0x00000000089fcc54       0x9c c:/pspsdk/psp/sdk/lib\libpspgu.a(sceGuGetMemory.o)
                0x00000000089fcc54                sceGuGetMemory
 .text          0x00000000089fccf0       0xc4 c:/pspsdk/psp/sdk/lib\libpspgu.a(sceGuInit.o)
                0x00000000089fccf0                sceGuInit
 .text          0x00000000089fcdb4       0x38 c:/pspsdk/psp/sdk/lib\libpspgu.a(sceGuOffset.o)
                0x00000000089fcdb4                sceGuOffset
 .text          0x00000000089fcdec       0x90 c:/pspsdk/psp/sdk/lib\libpspgu.a(sceGuScissor.o)
                0x00000000089fcdec                sceGuScissor
 .text          0x00000000089fce7c       0x1c c:/pspsdk/psp/sdk/lib\libpspgu.a(sceGuShadeModel.o)
                0x00000000089fce7c                sceGuShadeModel
 .text          0x00000000089fce98      0x15c c:/pspsdk/psp/sdk/lib\libpspgu.a(sceGuStart.o)
                0x00000000089fce98                sceGuStart
 .text          0x00000000089fcff4       0x20 c:/pspsdk/psp/sdk/lib\libpspgu.a(sceGuStencilFunc.o)
                0x00000000089fcff4                sceGuStencilFunc
 .text          0x00000000089fd014       0x18 c:/pspsdk/psp/sdk/lib\libpspgu.a(sceGuStencilOp.o)
                0x00000000089fd014                sceGuStencilOp
 .text          0x00000000089fd02c       0xc8 c:/pspsdk/psp/sdk/lib\libpspgu.a(sceGuSwapBuffers.o)
                0x00000000089fd02c                guSwapBuffersBehaviour
                0x00000000089fd038                guSwapBuffersCallback
                0x00000000089fd044                sceGuSwapBuffers
 .text          0x00000000089fd0f4       0x40 c:/pspsdk/psp/sdk/lib\libpspgu.a(sceGuSync.o)
                0x00000000089fd0f4                sceGuSync
 .text          0x00000000089fd134       0x34 c:/pspsdk/psp/sdk/lib\libpspgu.a(sceGuTerm.o)
                0x00000000089fd134                sceGuTerm
 .text          0x00000000089fd168       0x18 c:/pspsdk/psp/sdk/lib\libpspgu.a(sceGuTexEnvColor.o)
                0x00000000089fd168                sceGuTexEnvColor
 .text          0x00000000089fd180       0x10 c:/pspsdk/psp/sdk/lib\libpspgu.a(sceGuTexFilter.o)
                0x00000000089fd180                sceGuTexFilter
 .text          0x00000000089fd190       0x3c c:/pspsdk/psp/sdk/lib\libpspgu.a(sceGuTexFunc.o)
                0x00000000089fd190                sceGuTexFunc
 .text          0x00000000089fd1cc       0xe0 c:/pspsdk/psp/sdk/lib\libpspgu.a(sceGuTexImage.o)
                0x00000000089fd1e0                sceGuTexImage
                0x00000000089fd1cc                getExp
 .text          0x00000000089fd2ac       0x68 c:/pspsdk/psp/sdk/lib\libpspgu.a(sceGuTexMode.o)
                0x00000000089fd2ac                sceGuTexMode
 .text          0x00000000089fd314       0x30 c:/pspsdk/psp/sdk/lib\libpspgu.a(sceGuTexOffset.o)
                0x00000000089fd314                sceGuTexOffset
 .text          0x00000000089fd344       0x30 c:/pspsdk/psp/sdk/lib\libpspgu.a(sceGuTexScale.o)
                0x00000000089fd344                sceGuTexScale
 .text          0x00000000089fd374       0x10 c:/pspsdk/psp/sdk/lib\libpspgu.a(sceGuTexWrap.o)
                0x00000000089fd374                sceGuTexWrap
 .text          0x00000000089fd384       0x74 c:/pspsdk/psp/sdk/lib\libpspgu.a(sceGuViewport.o)
                0x00000000089fd384                sceGuViewport
 .text          0x00000000089fd3f8       0xc0 c:/pspsdk/psp/sdk/lib\libpspgu.a(sendCommand.o)
                0x00000000089fd3f8                sendCommandi
                0x00000000089fd460                sendCommandiStall
                0x00000000089fd428                sendCommandf
 .text          0x00000000089fd4b8       0x1c c:/pspsdk/psp/sdk/lib\libpspgu.a(callbackFin.o)
                0x00000000089fd4b8                callbackFin
 .text          0x00000000089fd4d4       0x58 c:/pspsdk/psp/sdk/lib\libpspgu.a(callbackSig.o)
                0x00000000089fd4d4                callbackSig
 .text          0x00000000089fd52c       0xec c:/pspsdk/psp/sdk/lib\libpspgu.a(resetValues.o)
                0x00000000089fd52c                resetValues
 .text          0x00000000089fd618        0xc c:/pspsdk/psp/sdk/lib\libpspgu.a(sceGuColorMaterial.o)
                0x00000000089fd618                sceGuColorMaterial
 .text          0x00000000089fd624       0x10 c:/pspsdk/psp/sdk/lib\libpspgu.a(sceGuPatchDivide.o)
                0x00000000089fd624                sceGuPatchDivide
 .text          0x00000000089fd634      0x11c c:/pspsdk/psp/sdk/lib\libpspgu.a(sceGuSetDither.o)
                0x00000000089fd634                sceGuSetDither
 .text          0x00000000089fd750        0x8 c:/pspsdk/psp/sdk/lib\libpspgu.a(sceGuSpecular.o)
                0x00000000089fd750                sceGuSpecular
 .text          0x00000000089fd758        0xc c:/pspsdk/psp/sdk/lib\libpspgu.a(sceGuTexFlush.o)
                0x00000000089fd758                sceGuTexFlush
 .text._ZdlPv   0x00000000089fd764       0x18 c:/pspsdk/bin/../lib/gcc/psp/4.3.5/../../../../psp/lib\libstdc++.a(del_op.o)
                0x00000000089fd764                operator delete(void*)
 .text._ZdaPv   0x00000000089fd77c        0x8 c:/pspsdk/bin/../lib/gcc/psp/4.3.5/../../../../psp/lib\libstdc++.a(del_opv.o)
                0x00000000089fd77c                operator delete[](void*)
 .text._Znwj    0x00000000089fd784       0xb4 c:/pspsdk/bin/../lib/gcc/psp/4.3.5/../../../../psp/lib\libstdc++.a(new_op.o)
                0x00000000089fd784                operator new(unsigned int)
 .text._Znaj    0x00000000089fd838       0x38 c:/pspsdk/bin/../lib/gcc/psp/4.3.5/../../../../psp/lib\libstdc++.a(new_opv.o)
                0x00000000089fd838                operator new[](unsigned int)
 .text._GLOBAL__I___cxa_allocate_exception
                0x00000000089fd870        0x8 c:/pspsdk/bin/../lib/gcc/psp/4.3.5/../../../../psp/lib\libstdc++.a(eh_alloc.o)
 .text.__cxa_free_exception
                0x00000000089fd878       0x4c c:/pspsdk/bin/../lib/gcc/psp/4.3.5/../../../../psp/lib\libstdc++.a(eh_alloc.o)
                0x00000000089fd878                __cxa_free_exception
 .text.__cxa_allocate_exception
                0x00000000089fd8c4       0xe4 c:/pspsdk/bin/../lib/gcc/psp/4.3.5/../../../../psp/lib\libstdc++.a(eh_alloc.o)
                0x00000000089fd8c4                __cxa_allocate_exception
 .text.__cxa_get_globals_fast
                0x00000000089fd9a8        0xc c:/pspsdk/bin/../lib/gcc/psp/4.3.5/../../../../psp/lib\libstdc++.a(eh_globals.o)
                0x00000000089fd9a8                __cxa_get_globals_fast
 .text.__cxa_get_globals
                0x00000000089fd9b4        0xc c:/pspsdk/bin/../lib/gcc/psp/4.3.5/../../../../psp/lib\libstdc++.a(eh_globals.o)
                0x00000000089fd9b4                __cxa_get_globals
 .text._ZL16get_adjusted_ptrPKSt9type_infoS1_PPv
                0x00000000089fd9c0       0xb4 c:/pspsdk/bin/../lib/gcc/psp/4.3.5/../../../../psp/lib\libstdc++.a(eh_personality.o)
 .text._ZL21base_of_encoded_valuehP15_Unwind_Context
                0x00000000089fda74       0xa0 c:/pspsdk/bin/../lib/gcc/psp/4.3.5/../../../../psp/lib\libstdc++.a(eh_personality.o)
 .text._ZL28read_encoded_value_with_basehjPKhPj
                0x00000000089fdb14      0x16c c:/pspsdk/bin/../lib/gcc/psp/4.3.5/../../../../psp/lib\libstdc++.a(eh_personality.o)
 .text._ZL17parse_lsda_headerP15_Unwind_ContextPKhP16lsda_header_info
                0x00000000089fdc80      0x134 c:/pspsdk/bin/../lib/gcc/psp/4.3.5/../../../../psp/lib\libstdc++.a(eh_personality.o)
 .text._ZL15get_ttype_entryP16lsda_header_infom
                0x00000000089fddb4       0xf8 c:/pspsdk/bin/../lib/gcc/psp/4.3.5/../../../../psp/lib\libstdc++.a(eh_personality.o)
 .text._ZL20check_exception_specP16lsda_header_infoPKSt9type_infoPvl
                0x00000000089fdeac       0xc0 c:/pspsdk/bin/../lib/gcc/psp/4.3.5/../../../../psp/lib\libstdc++.a(eh_personality.o)
 .text.__cxa_call_unexpected
                0x00000000089fdf6c       0xf0 c:/pspsdk/bin/../lib/gcc/psp/4.3.5/../../../../psp/lib\libstdc++.a(eh_personality.o)
                0x00000000089fdf6c                __cxa_call_unexpected
 .text.__gxx_personality_v0
                0x00000000089fe05c      0x5c8 c:/pspsdk/bin/../lib/gcc/psp/4.3.5/../../../../psp/lib\libstdc++.a(eh_personality.o)
                0x00000000089fe05c                __gxx_personality_v0
 .text._ZSt13set_terminatePFvvE
                0x00000000089fe624       0x10 c:/pspsdk/bin/../lib/gcc/psp/4.3.5/../../../../psp/lib\libstdc++.a(eh_terminate.o)
                0x00000000089fe624                std::set_terminate(void (*)())
 .text._ZSt14set_unexpectedPFvvE
                0x00000000089fe634       0x10 c:/pspsdk/bin/../lib/gcc/psp/4.3.5/../../../../psp/lib\libstdc++.a(eh_terminate.o)
                0x00000000089fe634                std::set_unexpected(void (*)())
 .text._ZN10__cxxabiv111__terminateEPFvvE
                0x00000000089fe644       0x38 c:/pspsdk/bin/../lib/gcc/psp/4.3.5/../../../../psp/lib\libstdc++.a(eh_terminate.o)
                0x00000000089fe644                __cxxabiv1::__terminate(void (*)())
 .text._ZSt9terminatev
                0x00000000089fe67c       0x18 c:/pspsdk/bin/../lib/gcc/psp/4.3.5/../../../../psp/lib\libstdc++.a(eh_terminate.o)
                0x00000000089fe67c                std::terminate()
 .text._ZN10__cxxabiv112__unexpectedEPFvvE
                0x00000000089fe694       0x18 c:/pspsdk/bin/../lib/gcc/psp/4.3.5/../../../../psp/lib\libstdc++.a(eh_terminate.o)
                0x00000000089fe694                __cxxabiv1::__unexpected(void (*)())
 .text._ZSt10unexpectedv
                0x00000000089fe6ac       0x18 c:/pspsdk/bin/../lib/gcc/psp/4.3.5/../../../../psp/lib\libstdc++.a(eh_terminate.o)
                0x00000000089fe6ac                std::unexpected()
 .text.__cxa_rethrow
                0x00000000089fe6c4       0x80 c:/pspsdk/bin/../lib/gcc/psp/4.3.5/../../../../psp/lib\libstdc++.a(eh_throw.o)
                0x00000000089fe6c4                __cxa_rethrow
 .text.__cxa_throw
                0x00000000089fe744       0x70 c:/pspsdk/bin/../lib/gcc/psp/4.3.5/../../../../psp/lib\libstdc++.a(eh_throw.o)
                0x00000000089fe744                __cxa_throw
 .text._ZL23__gxx_exception_cleanup19_Unwind_Reason_CodeP17_Unwind_Exception
                0x00000000089fe7b4       0x5c c:/pspsdk/bin/../lib/gcc/psp/4.3.5/../../../../psp/lib\libstdc++.a(eh_throw.o)
 .text._ZSt15set_new_handlerPFvvE
                0x00000000089fe810       0x10 c:/pspsdk/bin/../lib/gcc/psp/4.3.5/../../../../psp/lib\libstdc++.a(new_handler.o)
                0x00000000089fe810                std::set_new_handler(void (*)())
 .text._ZNKSt9bad_alloc4whatEv
                0x00000000089fe820        0xc c:/pspsdk/bin/../lib/gcc/psp/4.3.5/../../../../psp/lib\libstdc++.a(new_handler.o)
                0x00000000089fe820                std::bad_alloc::what() const
 .text._ZNSt9bad_allocD1Ev
                0x00000000089fe82c       0x10 c:/pspsdk/bin/../lib/gcc/psp/4.3.5/../../../../psp/lib\libstdc++.a(new_handler.o)
                0x00000000089fe82c                std::bad_alloc::~bad_alloc()
 .text._ZNSt9bad_allocD2Ev
                0x00000000089fe83c       0x10 c:/pspsdk/bin/../lib/gcc/psp/4.3.5/../../../../psp/lib\libstdc++.a(new_handler.o)
                0x00000000089fe83c                std::bad_alloc::~bad_alloc()
 .text._ZNSt9bad_allocD0Ev
                0x00000000089fe84c       0x34 c:/pspsdk/bin/../lib/gcc/psp/4.3.5/../../../../psp/lib\libstdc++.a(new_handler.o)
                0x00000000089fe84c                std::bad_alloc::~bad_alloc()
 .text._ZNK10__cxxabiv120__si_class_type_info20__do_find_public_srcEiPKvPKNS_17__class_type_infoES2_
                0x00000000089fe880       0x30 c:/pspsdk/bin/../lib/gcc/psp/4.3.5/../../../../psp/lib\libstdc++.a(si_class_type_info.o)
                0x00000000089fe880                __cxxabiv1::__si_class_type_info::__do_find_public_src(int, void const*, __cxxabiv1::__class_type_info const*, void const*) const
 .text._ZNK10__cxxabiv120__si_class_type_info12__do_dyncastEiNS_17__class_type_info10__sub_kindEPKS1_PKvS4_S6_RNS1_16__dyncast_resultE
                0x00000000089fe8b0       0x7c c:/pspsdk/bin/../lib/gcc/psp/4.3.5/../../../../psp/lib\libstdc++.a(si_class_type_info.o)
                0x00000000089fe8b0                __cxxabiv1::__si_class_type_info::__do_dyncast(int, __cxxabiv1::__class_type_info::__sub_kind, __cxxabiv1::__class_type_info const*, void const*, __cxxabiv1::__class_type_info const*, void const*, __cxxabiv1::__class_type_info::__dyncast_result&) const
 .text._ZNK10__cxxabiv120__si_class_type_info11__do_upcastEPKNS_17__class_type_infoEPKvRNS1_15__upcast_resultE
                0x00000000089fe92c       0x80 c:/pspsdk/bin/../lib/gcc/psp/4.3.5/../../../../psp/lib\libstdc++.a(si_class_type_info.o)
                0x00000000089fe92c                __cxxabiv1::__si_class_type_info::__do_upcast(__cxxabiv1::__class_type_info const*, void const*, __cxxabiv1::__class_type_info::__upcast_result&) const
 .text._ZN10__cxxabiv120__si_class_type_infoD1Ev
                0x00000000089fe9ac       0x10 c:/pspsdk/bin/../lib/gcc/psp/4.3.5/../../../../psp/lib\libstdc++.a(si_class_type_info.o)
                0x00000000089fe9ac                __cxxabiv1::__si_class_type_info::~__si_class_type_info()
 .text._ZN10__cxxabiv120__si_class_type_infoD2Ev
                0x00000000089fe9bc       0x10 c:/pspsdk/bin/../lib/gcc/psp/4.3.5/../../../../psp/lib\libstdc++.a(si_class_type_info.o)
                0x00000000089fe9bc                __cxxabiv1::__si_class_type_info::~__si_class_type_info()
 .text._ZN10__cxxabiv120__si_class_type_infoD0Ev
                0x00000000089fe9cc       0x34 c:/pspsdk/bin/../lib/gcc/psp/4.3.5/../../../../psp/lib\libstdc++.a(si_class_type_info.o)
                0x00000000089fe9cc                __cxxabiv1::__si_class_type_info::~__si_class_type_info()
 .text._ZNSt9type_infoD2Ev
                0x00000000089fea00       0x10 c:/pspsdk/bin/../lib/gcc/psp/4.3.5/../../../../psp/lib\libstdc++.a(tinfo.o)
                0x00000000089fea00                std::type_info::~type_info()
 .text._ZNSt9type_infoD1Ev
                0x00000000089fea10       0x10 c:/pspsdk/bin/../lib/gcc/psp/4.3.5/../../../../psp/lib\libstdc++.a(tinfo.o)
                0x00000000089fea10                std::type_info::~type_info()
 .text._ZNKSt9type_info14__is_pointer_pEv
                0x00000000089fea20        0x8 c:/pspsdk/bin/../lib/gcc/psp/4.3.5/../../../../psp/lib\libstdc++.a(tinfo.o)
                0x00000000089fea20                std::type_info::__is_pointer_p() const
 .text._ZNKSt9type_info15__is_function_pEv
                0x00000000089fea28        0x8 c:/pspsdk/bin/../lib/gcc/psp/4.3.5/../../../../psp/lib\libstdc++.a(tinfo.o)
                0x00000000089fea28                std::type_info::__is_function_p() const
 .text._ZNKSt9type_info10__do_catchEPKS_PPvj
                0x00000000089fea30       0x14 c:/pspsdk/bin/../lib/gcc/psp/4.3.5/../../../../psp/lib\libstdc++.a(tinfo.o)
                0x00000000089fea30                std::type_info::__do_catch(std::type_info const*, void**, unsigned int) const
 .text._ZNKSt9type_info11__do_upcastEPKN10__cxxabiv117__class_type_infoEPPv
                0x00000000089fea44        0x8 c:/pspsdk/bin/../lib/gcc/psp/4.3.5/../../../../psp/lib\libstdc++.a(tinfo.o)
                0x00000000089fea44                std::type_info::__do_upcast(__cxxabiv1::__class_type_info const*, void**) const
 .text._ZNSt9type_infoD0Ev
                0x00000000089fea4c       0x10 c:/pspsdk/bin/../lib/gcc/psp/4.3.5/../../../../psp/lib\libstdc++.a(tinfo.o)
                0x00000000089fea4c                std::type_info::~type_info()
 .text._ZN9__gnu_cxx27__verbose_terminate_handlerEv
                0x00000000089fea5c      0x1d4 c:/pspsdk/bin/../lib/gcc/psp/4.3.5/../../../../psp/lib\libstdc++.a(vterminate.o)
                0x00000000089fea5c                __gnu_cxx::__verbose_terminate_handler()
 .text._ZNK10__cxxabiv117__class_type_info10__do_catchEPKSt9type_infoPPvj
                0x00000000089fec30       0x3c c:/pspsdk/bin/../lib/gcc/psp/4.3.5/../../../../psp/lib\libstdc++.a(class_type_info.o)
                0x00000000089fec30                __cxxabiv1::__class_type_info::__do_catch(std::type_info const*, void**, unsigned int) const
 .text._ZNK10__cxxabiv117__class_type_info11__do_upcastEPKS0_PPv
                0x00000000089fec6c       0x7c c:/pspsdk/bin/../lib/gcc/psp/4.3.5/../../../../psp/lib\libstdc++.a(class_type_info.o)
                0x00000000089fec6c                __cxxabiv1::__class_type_info::__do_upcast(__cxxabiv1::__class_type_info const*, void**) const
 .text._ZNK10__cxxabiv117__class_type_info20__do_find_public_srcEiPKvPKS0_S2_
                0x00000000089fece8       0x14 c:/pspsdk/bin/../lib/gcc/psp/4.3.5/../../../../psp/lib\libstdc++.a(class_type_info.o)
                0x00000000089fece8                __cxxabiv1::__class_type_info::__do_find_public_src(int, void const*, __cxxabiv1::__class_type_info const*, void const*) const
 .text._ZNK10__cxxabiv117__class_type_info12__do_dyncastEiNS0_10__sub_kindEPKS0_PKvS3_S5_RNS0_16__dyncast_resultE
                0x00000000089fecfc       0x40 c:/pspsdk/bin/../lib/gcc/psp/4.3.5/../../../../psp/lib\libstdc++.a(class_type_info.o)
                0x00000000089fecfc                __cxxabiv1::__class_type_info::__do_dyncast(int, __cxxabiv1::__class_type_info::__sub_kind, __cxxabiv1::__class_type_info const*, void const*, __cxxabiv1::__class_type_info const*, void const*, __cxxabiv1::__class_type_info::__dyncast_result&) const
 .text._ZNK10__cxxabiv117__class_type_info11__do_upcastEPKS0_PKvRNS0_15__upcast_resultE
                0x00000000089fed3c       0x30 c:/pspsdk/bin/../lib/gcc/psp/4.3.5/../../../../psp/lib\libstdc++.a(class_type_info.o)
                0x00000000089fed3c                __cxxabiv1::__class_type_info::__do_upcast(__cxxabiv1::__class_type_info const*, void const*, __cxxabiv1::__class_type_info::__upcast_result&) const
 .text._ZN10__cxxabiv117__class_type_infoD1Ev
                0x00000000089fed6c       0x10 c:/pspsdk/bin/../lib/gcc/psp/4.3.5/../../../../psp/lib\libstdc++.a(class_type_info.o)
                0x00000000089fed6c                __cxxabiv1::__class_type_info::~__class_type_info()
 .text._ZN10__cxxabiv117__class_type_infoD2Ev
                0x00000000089fed7c       0x10 c:/pspsdk/bin/../lib/gcc/psp/4.3.5/../../../../psp/lib\libstdc++.a(class_type_info.o)
                0x00000000089fed7c                __cxxabiv1::__class_type_info::~__class_type_info()
 .text._ZN10__cxxabiv117__class_type_infoD0Ev
                0x00000000089fed8c       0x34 c:/pspsdk/bin/../lib/gcc/psp/4.3.5/../../../../psp/lib\libstdc++.a(class_type_info.o)
                0x00000000089fed8c                __cxxabiv1::__class_type_info::~__class_type_info()
 .text          0x00000000089fedc0     0x7dc4 c:/pspsdk/bin/../lib/gcc/psp/4.3.5/../../../../psp/lib\libstdc++.a(cp-demangle.o)
                0x0000000008a06920                __cxa_demangle
                0x0000000008a06ae8                __gcclibcxx_demangle_callback
 .text.__cxa_call_terminate
                0x0000000008a06b84       0x50 c:/pspsdk/bin/../lib/gcc/psp/4.3.5/../../../../psp/lib\libstdc++.a(eh_call.o)
                0x0000000008a06b84                __cxa_call_terminate
 .text.__cxa_get_exception_ptr
                0x0000000008a06bd4        0x8 c:/pspsdk/bin/../lib/gcc/psp/4.3.5/../../../../psp/lib\libstdc++.a(eh_catch.o)
                0x0000000008a06bd4                __cxa_get_exception_ptr
 .text._ZSt18uncaught_exceptionv
                0x0000000008a06bdc       0x24 c:/pspsdk/bin/../lib/gcc/psp/4.3.5/../../../../psp/lib\libstdc++.a(eh_catch.o)
                0x0000000008a06bdc                std::uncaught_exception()
 .text.__cxa_end_catch
                0x0000000008a06c00       0xb4 c:/pspsdk/bin/../lib/gcc/psp/4.3.5/../../../../psp/lib\libstdc++.a(eh_catch.o)
                0x0000000008a06c00                __cxa_end_catch
 .text.__cxa_begin_catch
                0x0000000008a06cb4       0xcc c:/pspsdk/bin/../lib/gcc/psp/4.3.5/../../../../psp/lib\libstdc++.a(eh_catch.o)
                0x0000000008a06cb4                __cxa_begin_catch
 .text._ZNSt9exceptionD2Ev
                0x0000000008a06d80       0x10 c:/pspsdk/bin/../lib/gcc/psp/4.3.5/../../../../psp/lib\libstdc++.a(eh_exception.o)
                0x0000000008a06d80                std::exception::~exception()
 .text._ZNSt9exceptionD1Ev
                0x0000000008a06d90       0x10 c:/pspsdk/bin/../lib/gcc/psp/4.3.5/../../../../psp/lib\libstdc++.a(eh_exception.o)
                0x0000000008a06d90                std::exception::~exception()
 .text._ZNSt13bad_exceptionD2Ev
                0x0000000008a06da0       0x10 c:/pspsdk/bin/../lib/gcc/psp/4.3.5/../../../../psp/lib\libstdc++.a(eh_exception.o)
                0x0000000008a06da0                std::bad_exception::~bad_exception()
 .text._ZNSt13bad_exceptionD1Ev
                0x0000000008a06db0       0x10 c:/pspsdk/bin/../lib/gcc/psp/4.3.5/../../../../psp/lib\libstdc++.a(eh_exception.o)
                0x0000000008a06db0                std::bad_exception::~bad_exception()
 .text._ZN10__cxxabiv115__forced_unwindD2Ev
                0x0000000008a06dc0       0x10 c:/pspsdk/bin/../lib/gcc/psp/4.3.5/../../../../psp/lib\libstdc++.a(eh_exception.o)
                0x0000000008a06dc0                __cxxabiv1::__forced_unwind::~__forced_unwind()
 .text._ZN10__cxxabiv115__forced_unwindD1Ev
                0x0000000008a06dd0       0x10 c:/pspsdk/bin/../lib/gcc/psp/4.3.5/../../../../psp/lib\libstdc++.a(eh_exception.o)
                0x0000000008a06dd0                __cxxabiv1::__forced_unwind::~__forced_unwind()
 .text._ZN10__cxxabiv119__foreign_exceptionD2Ev
                0x0000000008a06de0       0x10 c:/pspsdk/bin/../lib/gcc/psp/4.3.5/../../../../psp/lib\libstdc++.a(eh_exception.o)
                0x0000000008a06de0                __cxxabiv1::__foreign_exception::~__foreign_exception()
 .text._ZN10__cxxabiv119__foreign_exceptionD1Ev
                0x0000000008a06df0       0x10 c:/pspsdk/bin/../lib/gcc/psp/4.3.5/../../../../psp/lib\libstdc++.a(eh_exception.o)
                0x0000000008a06df0                __cxxabiv1::__foreign_exception::~__foreign_exception()
 .text._ZNKSt9exception4whatEv
                0x0000000008a06e00        0xc c:/pspsdk/bin/../lib/gcc/psp/4.3.5/../../../../psp/lib\libstdc++.a(eh_exception.o)
                0x0000000008a06e00                std::exception::what() const
 .text._ZNKSt13bad_exception4whatEv
                0x0000000008a06e0c        0xc c:/pspsdk/bin/../lib/gcc/psp/4.3.5/../../../../psp/lib\libstdc++.a(eh_exception.o)
                0x0000000008a06e0c                std::bad_exception::what() const
 .text._ZN10__cxxabiv119__foreign_exceptionD0Ev
                0x0000000008a06e18       0x10 c:/pspsdk/bin/../lib/gcc/psp/4.3.5/../../../../psp/lib\libstdc++.a(eh_exception.o)
                0x0000000008a06e18                __cxxabiv1::__foreign_exception::~__foreign_exception()
 .text._ZN10__cxxabiv115__forced_unwindD0Ev
                0x0000000008a06e28       0x10 c:/pspsdk/bin/../lib/gcc/psp/4.3.5/../../../../psp/lib\libstdc++.a(eh_exception.o)
                0x0000000008a06e28                __cxxabiv1::__forced_unwind::~__forced_unwind()
 .text._ZNSt9exceptionD0Ev
                0x0000000008a06e38       0x10 c:/pspsdk/bin/../lib/gcc/psp/4.3.5/../../../../psp/lib\libstdc++.a(eh_exception.o)
                0x0000000008a06e38                std::exception::~exception()
 .text._ZNSt13bad_exceptionD0Ev
                0x0000000008a06e48       0x10 c:/pspsdk/bin/../lib/gcc/psp/4.3.5/../../../../psp/lib\libstdc++.a(eh_exception.o)
                0x0000000008a06e48                std::bad_exception::~bad_exception()
 .text.__cxa_current_exception_type
                0x0000000008a06e58       0x28 c:/pspsdk/bin/../lib/gcc/psp/4.3.5/../../../../psp/lib\libstdc++.a(eh_type.o)
                0x0000000008a06e58                __cxa_current_exception_type
 .text.__cxa_pure_virtual
                0x0000000008a06e80       0x24 c:/pspsdk/bin/../lib/gcc/psp/4.3.5/../../../../psp/lib\libstdc++.a(pure.o)
                0x0000000008a06e80                __cxa_pure_virtual
 .text          0x0000000008a06ea4      0x130 c:/pspsdk/bin/../lib/gcc/psp/4.3.5/../../../../psp/lib\libm.a(lib_a-s_ceil.o)
                0x0000000008a06ea4                ceil
 .text          0x0000000008a06fd4      0x14c c:/pspsdk/bin/../lib/gcc/psp/4.3.5/../../../../psp/lib\libm.a(lib_a-s_floor.o)
                0x0000000008a06fd4                floor
 .text          0x0000000008a07120        0x8 c:/pspsdk/bin/../lib/gcc/psp/4.3.5/../../../../psp/lib\libm.a(lib_a-s_log.o)
                0x0000000008a07120                log
 .text          0x0000000008a07128        0x8 c:/pspsdk/bin/../lib/gcc/psp/4.3.5/../../../../psp/lib\libm.a(lib_a-s_log10.o)
                0x0000000008a07128                log10
 .text          0x0000000008a07130      0x4e0 c:/pspsdk/bin/../lib/gcc/psp/4.3.5/../../../../psp/lib\libm.a(lib_a-s_logarithm.o)
                0x0000000008a07130                logarithm
 .text          0x0000000008a07610      0x118 c:/pspsdk/bin/../lib/gcc/psp/4.3.5/../../../../psp/lib\libm.a(lib_a-s_modf.o)
                0x0000000008a07610                modf
 .text          0x0000000008a07728      0x3ec c:/pspsdk/bin/../lib/gcc/psp/4.3.5/../../../../psp/lib\libm.a(lib_a-s_pow.o)
                0x0000000008a07728                pow
 .text          0x0000000008a07b14        0x8 c:/pspsdk/bin/../lib/gcc/psp/4.3.5/../../../../psp/lib\libm.a(lib_a-s_sin.o)
                0x0000000008a07b14                sin
 .text          0x0000000008a07b1c      0x500 c:/pspsdk/bin/../lib/gcc/psp/4.3.5/../../../../psp/lib\libm.a(lib_a-s_sine.o)
                0x0000000008a07b1c                sine
 .text          0x0000000008a0801c      0x38c c:/pspsdk/bin/../lib/gcc/psp/4.3.5/../../../../psp/lib\libm.a(lib_a-s_sqrt.o)
                0x0000000008a0801c                sqrt
 .text          0x0000000008a083a8      0x494 c:/pspsdk/bin/../lib/gcc/psp/4.3.5/../../../../psp/lib\libm.a(lib_a-s_exp.o)
                0x0000000008a083a8                exp
 .text          0x0000000008a0883c       0xe0 c:/pspsdk/bin/../lib/gcc/psp/4.3.5/../../../../psp/lib\libm.a(lib_a-s_fabs.o)
                0x0000000008a0883c                fabs
 .text          0x0000000008a0891c       0xa8 c:/pspsdk/bin/../lib/gcc/psp/4.3.5/../../../../psp/lib\libm.a(lib_a-s_fpclassify.o)
                0x0000000008a0891c                __fpclassifyd
 .text          0x0000000008a089c4       0xb0 c:/pspsdk/bin/../lib/gcc/psp/4.3.5/../../../../psp/lib\libm.a(lib_a-s_frexp.o)
                0x0000000008a089c4                frexp
 .text          0x0000000008a08a74        0xc c:/pspsdk/bin/../lib/gcc/psp/4.3.5/../../../../psp/lib\libm.a(lib_a-s_ispos.o)
                0x0000000008a08a74                ispos
 .text          0x0000000008a08a80      0x15c c:/pspsdk/bin/../lib/gcc/psp/4.3.5/../../../../psp/lib\libm.a(lib_a-s_ldexp.o)
                0x0000000008a08a80                ldexp
 .text          0x0000000008a08bdc       0xa4 c:/pspsdk/bin/../lib/gcc/psp/4.3.5/../../../../psp/lib\libm.a(lib_a-s_numtest.o)
                0x0000000008a08bdc                numtest
 .text          0x0000000008a08c80       0x50 c:/pspsdk/bin/../lib/gcc/psp/4.3.5/../../../../psp/lib\libc.a(fprintf.o)
                0x0000000008a08c80                fprintf
 .text          0x0000000008a08cd0       0x18 c:/pspsdk/bin/../lib/gcc/psp/4.3.5/../../../../psp/lib\libc.a(lib_a-abort.o)
                0x0000000008a08cd0                abort
 .text          0x0000000008a08ce8       0x14 c:/pspsdk/bin/../lib/gcc/psp/4.3.5/../../../../psp/lib\libc.a(lib_a-atexit.o)
                0x0000000008a08ce8                atexit
 .text          0x0000000008a08cfc        0x8 c:/pspsdk/bin/../lib/gcc/psp/4.3.5/../../../../psp/lib\libc.a(lib_a-atof.o)
                0x0000000008a08cfc                atof
 .text          0x0000000008a08d04       0x18 c:/pspsdk/bin/../lib/gcc/psp/4.3.5/../../../../psp/lib\libc.a(lib_a-atoi.o)
                0x0000000008a08d04                _atoi_r
                0x0000000008a08d10                atoi
 .text          0x0000000008a08d1c       0x18 c:/pspsdk/bin/../lib/gcc/psp/4.3.5/../../../../psp/lib\libc.a(lib_a-calloc.o)
                0x0000000008a08d1c                calloc
 .text          0x0000000008a08d34       0xb8 c:/pspsdk/bin/../lib/gcc/psp/4.3.5/../../../../psp/lib\libc.a(lib_a-callocr.o)
                0x0000000008a08d34                _calloc_r
 .text          0x0000000008a08dec       0x10 c:/pspsdk/bin/../lib/gcc/psp/4.3.5/../../../../psp/lib\libc.a(lib_a-errno.o)
                0x0000000008a08dec                __errno
 .text          0x0000000008a08dfc       0x3c c:/pspsdk/bin/../lib/gcc/psp/4.3.5/../../../../psp/lib\libc.a(lib_a-exit.o)
                0x0000000008a08dfc                exit
 .text          0x0000000008a08e38      0x14c c:/pspsdk/bin/../lib/gcc/psp/4.3.5/../../../../psp/lib\libc.a(lib_a-fclose.o)
                0x0000000008a08e38                _fclose_r
                0x0000000008a08f70                fclose
 .text          0x0000000008a08f84      0x13c c:/pspsdk/bin/../lib/gcc/psp/4.3.5/../../../../psp/lib\libc.a(lib_a-fdopen.o)
                0x0000000008a08f84                _fdopen_r
                0x0000000008a090a8                fdopen
 .text          0x0000000008a090c0      0x2b8 c:/pspsdk/bin/../lib/gcc/psp/4.3.5/../../../../psp/lib\libc.a(lib_a-fflush.o)
                0x0000000008a09348                fflush
                0x0000000008a090c0                _fflush_r
 .text          0x0000000008a09378      0x150 c:/pspsdk/bin/../lib/gcc/psp/4.3.5/../../../../psp/lib\libc.a(lib_a-fgetc.o)
                0x0000000008a09378                _fgetc_r
                0x0000000008a09408                fgetc
 .text          0x0000000008a094c8      0x210 c:/pspsdk/bin/../lib/gcc/psp/4.3.5/../../../../psp/lib\libc.a(lib_a-fgets.o)
                0x0000000008a096b8                fgets
                0x0000000008a094c8                _fgets_r
 .text          0x0000000008a096d8      0x314 c:/pspsdk/bin/../lib/gcc/psp/4.3.5/../../../../psp/lib\libc.a(lib_a-findfp.o)
                0x0000000008a097e8                __sinit
                0x0000000008a09880                __sfmoreglue
                0x0000000008a09748                _cleanup
                0x0000000008a09738                _cleanup_r
                0x0000000008a09720                __fp_lock_all
                0x0000000008a096d8                __sfp_lock_acquire
                0x0000000008a098ec                __sfp
                0x0000000008a096f0                __sinit_lock_release
                0x0000000008a09708                __fp_unlock_all
                0x0000000008a096e0                __sfp_lock_release
                0x0000000008a096e8                __sinit_lock_acquire
 .text          0x0000000008a099ec       0xa8 c:/pspsdk/bin/../lib/gcc/psp/4.3.5/../../../../psp/lib\libc.a(lib_a-flags.o)
                0x0000000008a099ec                __sflags
 .text          0x0000000008a09a94      0x54c c:/pspsdk/bin/../lib/gcc/psp/4.3.5/../../../../psp/lib\libc.a(lib_a-fmemopen.o)
                0x0000000008a09b58                _fmemopen_r
                0x0000000008a09d7c                fmemopen
 .text          0x0000000008a09fe0      0x114 c:/pspsdk/bin/../lib/gcc/psp/4.3.5/../../../../psp/lib\libc.a(lib_a-fopen.o)
                0x0000000008a0a0dc                fopen
                0x0000000008a09fe0                _fopen_r
 .text          0x0000000008a0a0f4       0xbc c:/pspsdk/bin/../lib/gcc/psp/4.3.5/../../../../psp/lib\libc.a(lib_a-fputc.o)
                0x0000000008a0a154                _fputc_r
                0x0000000008a0a0f4                fputc
 .text          0x0000000008a0a1b0       0xb8 c:/pspsdk/bin/../lib/gcc/psp/4.3.5/../../../../psp/lib\libc.a(lib_a-fputs.o)
                0x0000000008a0a1b0                _fputs_r
                0x0000000008a0a250                fputs
 .text          0x0000000008a0a268      0x34c c:/pspsdk/bin/../lib/gcc/psp/4.3.5/../../../../psp/lib\libc.a(lib_a-fread.o)
                0x0000000008a0a58c                fread
                0x0000000008a0a268                _fread_r
 .text          0x0000000008a0a5b4      0x404 c:/pspsdk/bin/../lib/gcc/psp/4.3.5/../../../../psp/lib\libc.a(lib_a-freer.o)
                0x0000000008a0a6d4                _free_r
                0x0000000008a0a5b4                _malloc_trim_r
 .text          0x0000000008a0a9b8      0x508 c:/pspsdk/bin/../lib/gcc/psp/4.3.5/../../../../psp/lib\libc.a(lib_a-fseek.o)
                0x0000000008a0aea0                fseek
                0x0000000008a0a9b8                _fseek_r
 .text          0x0000000008a0aec0       0x6c c:/pspsdk/bin/../lib/gcc/psp/4.3.5/../../../../psp/lib\libc.a(lib_a-fstatr.o)
                0x0000000008a0aec0                _fstat_r
 .text          0x0000000008a0af2c      0x12c c:/pspsdk/bin/../lib/gcc/psp/4.3.5/../../../../psp/lib\libc.a(lib_a-ftell.o)
                0x0000000008a0b044                ftell
                0x0000000008a0af2c                _ftell_r
 .text          0x0000000008a0b058      0x4e8 c:/pspsdk/bin/../lib/gcc/psp/4.3.5/../../../../psp/lib\libc.a(lib_a-fvwrite.o)
                0x0000000008a0b058                __sfvwrite_r
 .text          0x0000000008a0b540      0x1ec c:/pspsdk/bin/../lib/gcc/psp/4.3.5/../../../../psp/lib\libc.a(lib_a-fwalk.o)
                0x0000000008a0b640                _fwalk
                0x0000000008a0b540                _fwalk_reent
 .text          0x0000000008a0b72c      0x10c c:/pspsdk/bin/../lib/gcc/psp/4.3.5/../../../../psp/lib\libc.a(lib_a-fwrite.o)
                0x0000000008a0b72c                _fwrite_r
                0x0000000008a0b810                fwrite
 .text          0x0000000008a0b838       0x40 c:/pspsdk/bin/../lib/gcc/psp/4.3.5/../../../../psp/lib\libc.a(lib_a-getenv.o)
                0x0000000008a0b838                getenv
                0x0000000008a0b860                _findenv
 .text          0x0000000008a0b878      0x158 c:/pspsdk/bin/../lib/gcc/psp/4.3.5/../../../../psp/lib\libc.a(lib_a-getenv_r.o)
                0x0000000008a0b878                _findenv_r
                0x0000000008a0b9b4                _getenv_r
 .text          0x0000000008a0b9d0       0x10 c:/pspsdk/bin/../lib/gcc/psp/4.3.5/../../../../psp/lib\libc.a(lib_a-gmtime.o)
                0x0000000008a0b9d0                gmtime
 .text          0x0000000008a0b9e0        0x8 c:/pspsdk/bin/../lib/gcc/psp/4.3.5/../../../../psp/lib\libc.a(lib_a-gmtime_r.o)
                0x0000000008a0b9e0                gmtime_r
 .text          0x0000000008a0b9e8       0x94 c:/pspsdk/bin/../lib/gcc/psp/4.3.5/../../../../psp/lib\libc.a(lib_a-iprintf.o)
                0x0000000008a0b9e8                _iprintf_r
                0x0000000008a0ba2c                iprintf
 .text          0x0000000008a0ba7c       0x10 c:/pspsdk/bin/../lib/gcc/psp/4.3.5/../../../../psp/lib\libc.a(lib_a-lcltime.o)
                0x0000000008a0ba7c                localtime
 .text          0x0000000008a0ba8c        0x8 c:/pspsdk/bin/../lib/gcc/psp/4.3.5/../../../../psp/lib\libc.a(lib_a-lcltime_r.o)
                0x0000000008a0ba8c                localtime_r
 .text          0x0000000008a0ba94      0x1a0 c:/pspsdk/bin/../lib/gcc/psp/4.3.5/../../../../psp/lib\libc.a(lib_a-makebuf.o)
                0x0000000008a0ba94                __smakebuf_r
 .text          0x0000000008a0bc34       0x18 c:/pspsdk/bin/../lib/gcc/psp/4.3.5/../../../../psp/lib\libc.a(lib_a-malign.o)
                0x0000000008a0bc34                memalign
 .text          0x0000000008a0bc4c      0x1b4 c:/pspsdk/bin/../lib/gcc/psp/4.3.5/../../../../psp/lib\libc.a(lib_a-malignr.o)
                0x0000000008a0bc4c                _memalign_r
 .text          0x0000000008a0be00       0x28 c:/pspsdk/bin/../lib/gcc/psp/4.3.5/../../../../psp/lib\libc.a(lib_a-malloc.o)
                0x0000000008a0be14                malloc
                0x0000000008a0be00                free
 .text          0x0000000008a0be28      0x83c c:/pspsdk/bin/../lib/gcc/psp/4.3.5/../../../../psp/lib\libc.a(lib_a-mallocr.o)
                0x0000000008a0be28                _malloc_r
 .text          0x0000000008a0c664      0x100 c:/pspsdk/bin/../lib/gcc/psp/4.3.5/../../../../psp/lib\libc.a(lib_a-memchr.o)
                0x0000000008a0c664                memchr
 .text          0x0000000008a0c764       0x98 c:/pspsdk/bin/../lib/gcc/psp/4.3.5/../../../../psp/lib\libc.a(lib_a-memcmp.o)
                0x0000000008a0c764                memcmp
 .text          0x0000000008a0c7fc      0x150 c:/pspsdk/bin/../lib/gcc/psp/4.3.5/../../../../psp/lib\libc.a(lib_a-memcpy.o)
                0x0000000008a0c7fc                memcpy
 .text          0x0000000008a0c94c      0x158 c:/pspsdk/bin/../lib/gcc/psp/4.3.5/../../../../psp/lib\libc.a(lib_a-memmove.o)
                0x0000000008a0c94c                memmove
 .text          0x0000000008a0caa4       0xec c:/pspsdk/bin/../lib/gcc/psp/4.3.5/../../../../psp/lib\libc.a(lib_a-memset.o)
                0x0000000008a0caa4                memset
 .text          0x0000000008a0cb90      0x808 c:/pspsdk/bin/../lib/gcc/psp/4.3.5/../../../../psp/lib\libc.a(lib_a-mktm_r.o)
                0x0000000008a0cb90                __tzcalc_limits
                0x0000000008a0ce0c                _mktm_r
 .text          0x0000000008a0d398       0x10 c:/pspsdk/bin/../lib/gcc/psp/4.3.5/../../../../psp/lib\libc.a(lib_a-mlock.o)
                0x0000000008a0d3a0                __malloc_unlock
                0x0000000008a0d398                __malloc_lock
 .text          0x0000000008a0d3a8       0x70 c:/pspsdk/bin/../lib/gcc/psp/4.3.5/../../../../psp/lib\libc.a(lib_a-openr.o)
                0x0000000008a0d3a8                _open_r
 .text          0x0000000008a0d418      0x204 c:/pspsdk/bin/../lib/gcc/psp/4.3.5/../../../../psp/lib\libc.a(lib_a-putc.o)
                0x0000000008a0d518                _putc_r
                0x0000000008a0d418                putc
 .text          0x0000000008a0d61c       0x90 c:/pspsdk/bin/../lib/gcc/psp/4.3.5/../../../../psp/lib\libc.a(lib_a-rand.o)
                0x0000000008a0d630                rand
                0x0000000008a0d61c                srand
 .text          0x0000000008a0d6ac       0x18 c:/pspsdk/bin/../lib/gcc/psp/4.3.5/../../../../psp/lib\libc.a(lib_a-realloc.o)
                0x0000000008a0d6ac                realloc
 .text          0x0000000008a0d6c4      0x5c0 c:/pspsdk/bin/../lib/gcc/psp/4.3.5/../../../../psp/lib\libc.a(lib_a-reallocr.o)
                0x0000000008a0d6c4                _realloc_r
 .text          0x0000000008a0dc84      0x22c c:/pspsdk/bin/../lib/gcc/psp/4.3.5/../../../../psp/lib\libc.a(lib_a-reent.o)
                0x0000000008a0dd40                cleanup_glue
                0x0000000008a0dd84                _reclaim_reent
                0x0000000008a0dc84                _wrapup_reent
 .text          0x0000000008a0deb0      0x228 c:/pspsdk/bin/../lib/gcc/psp/4.3.5/../../../../psp/lib\libc.a(lib_a-refill.o)
                0x0000000008a0deb0                __srefill_r
 .text          0x0000000008a0e0d8       0xa0 c:/pspsdk/bin/../lib/gcc/psp/4.3.5/../../../../psp/lib\libc.a(lib_a-rget.o)
                0x0000000008a0e164                __srget
                0x0000000008a0e0d8                __srget_r
 .text          0x0000000008a0e178       0x5c c:/pspsdk/bin/../lib/gcc/psp/4.3.5/../../../../psp/lib\libc.a(lib_a-sbrkr.o)
                0x0000000008a0e178                _sbrk_r
 .text          0x0000000008a0e1d4       0xdc c:/pspsdk/bin/../lib/gcc/psp/4.3.5/../../../../psp/lib\libc.a(lib_a-setjmp.o)
                0x0000000008a0e23c                longjmp
                0x0000000008a0e1d4                setjmp
 .text          0x0000000008a0e2b0      0x2e4 c:/pspsdk/bin/../lib/gcc/psp/4.3.5/../../../../psp/lib\libc.a(lib_a-signal.o)
                0x0000000008a0e4dc                _signal_r
                0x0000000008a0e2b0                _raise_r
                0x0000000008a0e408                __sigtramp_r
                0x0000000008a0e57c                signal
                0x0000000008a0e3f8                _init_signal
                0x0000000008a0e390                _init_signal_r
                0x0000000008a0e4c8                __sigtramp
                0x0000000008a0e37c                raise
 .text          0x0000000008a0e594       0x74 c:/pspsdk/bin/../lib/gcc/psp/4.3.5/../../../../psp/lib\libc.a(lib_a-signalr.o)
                0x0000000008a0e59c                _kill_r
                0x0000000008a0e594                _getpid_r
 .text          0x0000000008a0e608      0x18c c:/pspsdk/bin/../lib/gcc/psp/4.3.5/../../../../psp/lib\libc.a(lib_a-snprintf.o)
                0x0000000008a0e608                snprintf
                0x0000000008a0e6d0                _snprintf_r
 .text          0x0000000008a0e794       0xf0 c:/pspsdk/bin/../lib/gcc/psp/4.3.5/../../../../psp/lib\libc.a(lib_a-sprintf.o)
                0x0000000008a0e814                _sprintf_r
                0x0000000008a0e794                sprintf
 .text          0x0000000008a0e884      0x128 c:/pspsdk/bin/../lib/gcc/psp/4.3.5/../../../../psp/lib\libc.a(lib_a-sscanf.o)
                0x0000000008a0e91c                sscanf
                0x0000000008a0e884                _sscanf_r
 .text          0x0000000008a0e9ac      0x15c c:/pspsdk/bin/../lib/gcc/psp/4.3.5/../../../../psp/lib\libc.a(lib_a-stdio.o)
                0x0000000008a0e9bc                __sseek
                0x0000000008a0e9ac                __seofread
                0x0000000008a0eaa4                __sread
                0x0000000008a0e9b4                __sclose
                0x0000000008a0ea24                __swrite
 .text          0x0000000008a0eb08       0x98 c:/pspsdk/bin/../lib/gcc/psp/4.3.5/../../../../psp/lib\libc.a(lib_a-strcasecmp.o)
                0x0000000008a0eb08                strcasecmp
 .text          0x0000000008a0eba0       0xa4 c:/pspsdk/bin/../lib/gcc/psp/4.3.5/../../../../psp/lib\libc.a(lib_a-strcat.o)
                0x0000000008a0eba0                strcat
 .text          0x0000000008a0ec44      0x1dc c:/pspsdk/bin/../lib/gcc/psp/4.3.5/../../../../psp/lib\libc.a(lib_a-strchr.o)
                0x0000000008a0ec44                strchr
 .text          0x0000000008a0ee20       0x7c c:/pspsdk/bin/../lib/gcc/psp/4.3.5/../../../../psp/lib\libc.a(lib_a-strcmp.o)
                0x0000000008a0ee20                strcmp
 .text          0x0000000008a0ee9c       0x8c c:/pspsdk/bin/../lib/gcc/psp/4.3.5/../../../../psp/lib\libc.a(lib_a-strcpy.o)
                0x0000000008a0ee9c                strcpy
 .text          0x0000000008a0ef28      0x5a4 c:/pspsdk/bin/../lib/gcc/psp/4.3.5/../../../../psp/lib\libc.a(lib_a-strerror.o)
                0x0000000008a0ef28                strerror
 .text          0x0000000008a0f4cc       0x1c c:/pspsdk/bin/../lib/gcc/psp/4.3.5/../../../../psp/lib\libc.a(lib_a-strlen.o)
                0x0000000008a0f4cc                strlen
 .text          0x0000000008a0f4e8      0x118 c:/pspsdk/bin/../lib/gcc/psp/4.3.5/../../../../psp/lib\libc.a(lib_a-strncmp.o)
                0x0000000008a0f4e8                strncmp
 .text          0x0000000008a0f600      0x1e4 c:/pspsdk/bin/../lib/gcc/psp/4.3.5/../../../../psp/lib\libc.a(lib_a-strncpy.o)
                0x0000000008a0f600                strncpy
 .text          0x0000000008a0f7e4       0x68 c:/pspsdk/bin/../lib/gcc/psp/4.3.5/../../../../psp/lib\libc.a(lib_a-strrchr.o)
                0x0000000008a0f7e4                strrchr
 .text          0x0000000008a0f84c     0x173c c:/pspsdk/bin/../lib/gcc/psp/4.3.5/../../../../psp/lib\libc.a(lib_a-strtod.o)
                0x0000000008a0f84c                _strtod_r
                0x0000000008a10f70                strtod
                0x0000000008a10ef8                strtof
 .text          0x0000000008a10f88      0x230 c:/pspsdk/bin/../lib/gcc/psp/4.3.5/../../../../psp/lib\libc.a(lib_a-strtol.o)
                0x0000000008a11198                strtol
                0x0000000008a10f88                _strtol_r
 .text          0x0000000008a111b8     0x1f14 c:/pspsdk/bin/../lib/gcc/psp/4.3.5/../../../../psp/lib\libc.a(lib_a-svfprintf.o)
                0x0000000008a111b8                _svfprintf_r
 .text          0x0000000008a130cc     0x13d4 c:/pspsdk/bin/../lib/gcc/psp/4.3.5/../../../../psp/lib\libc.a(lib_a-svfscanf.o)
                0x0000000008a130cc                __ssvfscanf_r
 .text          0x0000000008a144a0       0x18 c:/pspsdk/bin/../lib/gcc/psp/4.3.5/../../../../psp/lib\libc.a(lib_a-sysgettod.o)
                0x0000000008a144a0                gettimeofday
 .text          0x0000000008a144b8       0x20 c:/pspsdk/bin/../lib/gcc/psp/4.3.5/../../../../psp/lib\libc.a(lib_a-syswrite.o)
                0x0000000008a144b8                write
 .text          0x0000000008a144d8       0x64 c:/pspsdk/bin/../lib/gcc/psp/4.3.5/../../../../psp/lib\libc.a(lib_a-time.o)
                0x0000000008a144d8                time
 .text          0x0000000008a1453c       0x10 c:/pspsdk/bin/../lib/gcc/psp/4.3.5/../../../../psp/lib\libc.a(lib_a-tzlock.o)
                0x0000000008a14544                __tz_unlock
                0x0000000008a1453c                __tz_lock
 .text          0x0000000008a1454c        0x8 c:/pspsdk/bin/../lib/gcc/psp/4.3.5/../../../../psp/lib\libc.a(lib_a-u_strerr.o)
                0x0000000008a1454c                _user_strerror
 .text          0x0000000008a14554      0x308 c:/pspsdk/bin/../lib/gcc/psp/4.3.5/../../../../psp/lib\libc.a(lib_a-ungetc.o)
                0x0000000008a14844                ungetc
                0x0000000008a14554                __submore
                0x0000000008a1466c                _ungetc_r
 .text          0x0000000008a1485c     0x1240 c:/pspsdk/bin/../lib/gcc/psp/4.3.5/../../../../psp/lib\libc.a(lib_a-vfiprintf.o)
                0x0000000008a15a7c                vfiprintf
                0x0000000008a1498c                _vfiprintf_r
                0x0000000008a1485c                __sprint_r
 .text          0x0000000008a15a9c      0x10c c:/pspsdk/bin/../lib/gcc/psp/4.3.5/../../../../psp/lib\libc.a(lib_a-vsnprintf.o)
                0x0000000008a15b80                vsnprintf
                0x0000000008a15a9c                _vsnprintf_r
 .text          0x0000000008a15ba8      0x188 c:/pspsdk/bin/../lib/gcc/psp/4.3.5/../../../../psp/lib\libc.a(lib_a-wbuf.o)
                0x0000000008a15ba8                __swbuf_r
                0x0000000008a15d18                __swbuf
 .text          0x0000000008a15d30       0x70 c:/pspsdk/bin/../lib/gcc/psp/4.3.5/../../../../psp/lib\libc.a(lib_a-writer.o)
                0x0000000008a15d30                _write_r
 .text          0x0000000008a15da0      0x164 c:/pspsdk/bin/../lib/gcc/psp/4.3.5/../../../../psp/lib\libc.a(lib_a-wsetup.o)
                0x0000000008a15da0                __swsetup_r
 .text          0x0000000008a15f04     0x1608 c:/pspsdk/bin/../lib/gcc/psp/4.3.5/../../../../psp/lib\libc.a(vxprintf.o)
                0x0000000008a15f04                vxprintf
 .text          0x0000000008a1750c       0x10 c:/pspsdk/bin/../lib/gcc/psp/4.3.5/../../../../psp/lib\libc.a(__fout.o)
                0x0000000008a1750c                __fout
 .text          0x0000000008a1751c       0x7c c:/pspsdk/bin/../lib/gcc/psp/4.3.5/../../../../psp/lib\libc.a(_exit.o)
                0x0000000008a1751c                __psp_libc_init
                0x0000000008a1753c                _exit
 .text          0x0000000008a17598      0x184 c:/pspsdk/bin/../lib/gcc/psp/4.3.5/../../../../psp/lib\libc.a(_fstat.o)
                0x0000000008a17598                _fstat
 .text          0x0000000008a1771c       0x28 c:/pspsdk/bin/../lib/gcc/psp/4.3.5/../../../../psp/lib\libc.a(_getpid.o)
                0x0000000008a1771c                _getpid
 .text          0x0000000008a17744       0x28 c:/pspsdk/bin/../lib/gcc/psp/4.3.5/../../../../psp/lib\libc.a(_kill.o)
                0x0000000008a17744                _kill
 .text          0x0000000008a1776c      0x15c c:/pspsdk/bin/../lib/gcc/psp/4.3.5/../../../../psp/lib\libc.a(_open.o)
                0x0000000008a1776c                _open
 .text          0x0000000008a178c8      0x164 c:/pspsdk/bin/../lib/gcc/psp/4.3.5/../../../../psp/lib\libc.a(_sbrk.o)
                0x0000000008a178c8                __psp_free_heap
                0x0000000008a178e8                _sbrk
 .text          0x0000000008a17a2c       0xd4 c:/pspsdk/bin/../lib/gcc/psp/4.3.5/../../../../psp/lib\libc.a(_write.o)
                0x0000000008a17a2c                _write
 .text          0x0000000008a17b00      0x370 c:/pspsdk/bin/../lib/gcc/psp/4.3.5/../../../../psp/lib\libc.a(fdman.o)
                0x0000000008a17d98                __psp_fdman_init
                0x0000000008a17b00                __psp_fdman_release_descriptor
                0x0000000008a17ce0                __psp_fdman_get_new_descriptor
                0x0000000008a17bc4                __psp_fdman_get_dup_descriptor
 .text          0x0000000008a17e70       0xc4 c:/pspsdk/bin/../lib/gcc/psp/4.3.5/../../../../psp/lib\libc.a(interrupt.o)
                0x0000000008a17e70                pspDisableInterrupts
                0x0000000008a17ed4                pspEnableInterrupts
 .text          0x0000000008a17f34       0xd8 c:/pspsdk/bin/../lib/gcc/psp/4.3.5/../../../../psp/lib\libc.a(isatty.o)
                0x0000000008a17f94                _isatty_r
                0x0000000008a17f34                isatty
 .text          0x0000000008a1800c      0x144 c:/pspsdk/bin/../lib/gcc/psp/4.3.5/../../../../psp/lib\libc.a(lib_a-__atexit.o)
                0x0000000008a1800c                __register_exitproc
 .text          0x0000000008a18150      0x18c c:/pspsdk/bin/../lib/gcc/psp/4.3.5/../../../../psp/lib\libc.a(lib_a-__call_atexit.o)
                0x0000000008a18150                __call_exitprocs
 .text          0x0000000008a182dc       0x68 c:/pspsdk/bin/../lib/gcc/psp/4.3.5/../../../../psp/lib\libc.a(lib_a-closer.o)
                0x0000000008a182dc                _close_r
 .text          0x0000000008a18344     0x1900 c:/pspsdk/bin/../lib/gcc/psp/4.3.5/../../../../psp/lib\libc.a(lib_a-dtoa.o)
                0x0000000008a185d4                _dtoa_r
 .text          0x0000000008a19c44       0x10 c:/pspsdk/bin/../lib/gcc/psp/4.3.5/../../../../psp/lib\libc.a(lib_a-envlock.o)
                0x0000000008a19c4c                __env_unlock
                0x0000000008a19c44                __env_lock
 .text          0x0000000008a19c54       0x70 c:/pspsdk/bin/../lib/gcc/psp/4.3.5/../../../../psp/lib\libc.a(lib_a-fcntlr.o)
                0x0000000008a19c54                _fcntl_r
 .text          0x0000000008a19cc4      0x260 c:/pspsdk/bin/../lib/gcc/psp/4.3.5/../../../../psp/lib\libc.a(lib_a-fputwc.o)
                0x0000000008a19cc4                _fputwc_r
                0x0000000008a19ec4                fputwc
 .text          0x0000000008a19f24      0xb38 c:/pspsdk/bin/../lib/gcc/psp/4.3.5/../../../../psp/lib\libc.a(lib_a-gdtoa-gethex.o)
                0x0000000008a19f24                __hexdig_init
                0x0000000008a1a0ec                __gethex
 .text          0x0000000008a1aa5c      0x2e8 c:/pspsdk/bin/../lib/gcc/psp/4.3.5/../../../../psp/lib\libc.a(lib_a-gdtoa-hexnan.o)
                0x0000000008a1aa5c                __hexnan
 .text          0x0000000008a1ad44       0x6c c:/pspsdk/bin/../lib/gcc/psp/4.3.5/../../../../psp/lib\libc.a(lib_a-gettimeofdayr.o)
                0x0000000008a1ad44                _gettimeofday_r
 .text          0x0000000008a1adb0       0x10 c:/pspsdk/bin/../lib/gcc/psp/4.3.5/../../../../psp/lib\libc.a(lib_a-gettzinfo.o)
                0x0000000008a1adb0                __gettzinfo
 .text          0x0000000008a1adc0       0x18 c:/pspsdk/bin/../lib/gcc/psp/4.3.5/../../../../psp/lib\libc.a(lib_a-isdigit.o)
                0x0000000008a1adc0                isdigit
 .text          0x0000000008a1add8       0x2c c:/pspsdk/bin/../lib/gcc/psp/4.3.5/../../../../psp/lib\libc.a(lib_a-iswspace.o)
                0x0000000008a1add8                iswspace
 .text          0x0000000008a1ae04       0xdc c:/pspsdk/bin/../lib/gcc/psp/4.3.5/../../../../psp/lib\libc.a(lib_a-locale.o)
                0x0000000008a1ae4c                _setlocale_r
                0x0000000008a1ae04                __locale_charset
                0x0000000008a1ae2c                _localeconv_r
                0x0000000008a1aec8                setlocale
                0x0000000008a1ae24                __locale_cjk_lang
                0x0000000008a1ae3c                localeconv
                0x0000000008a1ae14                __locale_msgcharset
 .text          0x0000000008a1aee0       0x70 c:/pspsdk/bin/../lib/gcc/psp/4.3.5/../../../../psp/lib\libc.a(lib_a-lseekr.o)
                0x0000000008a1aee0                _lseek_r
 .text          0x0000000008a1af50      0x214 c:/pspsdk/bin/../lib/gcc/psp/4.3.5/../../../../psp/lib\libc.a(lib_a-mbrtowc.o)
                0x0000000008a1af50                mbrtowc
                0x0000000008a1b064                _mbrtowc_r
 .text          0x0000000008a1b164       0xb8 c:/pspsdk/bin/../lib/gcc/psp/4.3.5/../../../../psp/lib\libc.a(lib_a-mbtowc_r.o)
                0x0000000008a1b1a0                _mbtowc_r
                0x0000000008a1b164                __ascii_mbtowc
 .text          0x0000000008a1b21c     0x1224 c:/pspsdk/bin/../lib/gcc/psp/4.3.5/../../../../psp/lib\libc.a(lib_a-mprec.o)
                0x0000000008a1b6a8                _mprec_log10
                0x0000000008a1b7f8                __any_on
                0x0000000008a1b8a0                _Balloc
                0x0000000008a1b5e4                __ratio
                0x0000000008a1c078                __i2b
                0x0000000008a1b480                __b2d
                0x0000000008a1c304                __s2b
                0x0000000008a1b39c                __mcmp
                0x0000000008a1b248                __hi0bits
                0x0000000008a1c1d0                __pow5mult
                0x0000000008a1bcbc                __lshift
                0x0000000008a1be30                __multiply
                0x0000000008a1b950                __d2b
                0x0000000008a1b764                __copybits
                0x0000000008a1b40c                __ulp
                0x0000000008a1bac4                __mdiff
                0x0000000008a1b2cc                __lo0bits
                0x0000000008a1c0ac                __multadd
                0x0000000008a1b21c                _Bfree
 .text          0x0000000008a1c440       0x70 c:/pspsdk/bin/../lib/gcc/psp/4.3.5/../../../../psp/lib\libc.a(lib_a-readr.o)
                0x0000000008a1c440                _read_r
 .text          0x0000000008a1c4b0       0xd4 c:/pspsdk/bin/../lib/gcc/psp/4.3.5/../../../../psp/lib\libc.a(lib_a-sccl.o)
                0x0000000008a1c4b0                __sccl
 .text          0x0000000008a1c584       0x10 c:/pspsdk/bin/../lib/gcc/psp/4.3.5/../../../../psp/lib\libc.a(lib_a-sf_nan.o)
                0x0000000008a1c584                nanf
 .text          0x0000000008a1c594       0x14 c:/pspsdk/bin/../lib/gcc/psp/4.3.5/../../../../psp/lib\libc.a(lib_a-strdup.o)
                0x0000000008a1c594                strdup
 .text          0x0000000008a1c5a8       0x68 c:/pspsdk/bin/../lib/gcc/psp/4.3.5/../../../../psp/lib\libc.a(lib_a-strdup_r.o)
                0x0000000008a1c5a8                _strdup_r
 .text          0x0000000008a1c610      0x328 c:/pspsdk/bin/../lib/gcc/psp/4.3.5/../../../../psp/lib\libc.a(lib_a-strtoll_r.o)
                0x0000000008a1c610                _strtoll_r
 .text          0x0000000008a1c938      0x230 c:/pspsdk/bin/../lib/gcc/psp/4.3.5/../../../../psp/lib\libc.a(lib_a-strtoul.o)
                0x0000000008a1cb48                strtoul
                0x0000000008a1c938                _strtoul_r
 .text          0x0000000008a1cb68      0x324 c:/pspsdk/bin/../lib/gcc/psp/4.3.5/../../../../psp/lib\libc.a(lib_a-strtoull_r.o)
                0x0000000008a1cb68                _strtoull_r
 .text          0x0000000008a1ce8c     0x120c c:/pspsdk/bin/../lib/gcc/psp/4.3.5/../../../../psp/lib\libc.a(lib_a-svfiprintf.o)
                0x0000000008a1ce8c                __ssprint_r
                0x0000000008a1d0d4                _svfiprintf_r
 .text          0x0000000008a1e098     0x10a4 c:/pspsdk/bin/../lib/gcc/psp/4.3.5/../../../../psp/lib\libc.a(lib_a-svfiscanf.o)
                0x0000000008a1e124                _sfread_r
                0x0000000008a1e098                __ssrefill_r
                0x0000000008a1e284                _sungetc_r
                0x0000000008a1e38c                __ssvfiscanf_r
 .text          0x0000000008a1f13c       0x18 c:/pspsdk/bin/../lib/gcc/psp/4.3.5/../../../../psp/lib\libc.a(lib_a-sysstat.o)
                0x0000000008a1f13c                stat
 .text          0x0000000008a1f154      0x1dc c:/pspsdk/bin/../lib/gcc/psp/4.3.5/../../../../psp/lib\libc.a(lib_a-wcrtomb.o)
                0x0000000008a1f24c                _wcrtomb_r
                0x0000000008a1f154                wcrtomb
 .text          0x0000000008a1f330       0xa0 c:/pspsdk/bin/../lib/gcc/psp/4.3.5/../../../../psp/lib\libc.a(lib_a-wctomb_r.o)
                0x0000000008a1f330                __ascii_wctomb
                0x0000000008a1f364                _wctomb_r
 .text          0x0000000008a1f3d0      0x57c c:/pspsdk/bin/../lib/gcc/psp/4.3.5/../../../../psp/lib\libc.a(pipe.o)
                0x0000000008a1f49c                __psp_pipe_write
                0x0000000008a1f544                __psp_pipe_read
                0x0000000008a1f6b0                pipe
                0x0000000008a1f3d0                __psp_pipe_nonblocking_write
                0x0000000008a1f7cc                __psp_pipe_peekmsgsize
                0x0000000008a1f850                __psp_pipe_nonblocking_read
                0x0000000008a1f5ec                __psp_pipe_close
 .text          0x0000000008a1f94c      0x684 c:/pspsdk/bin/../lib/gcc/psp/4.3.5/../../../../psp/lib\libc.a(pspcwd.o)
                0x0000000008a1f94c                __psp_get_drive
                0x0000000008a1ff84                __psp_init_cwd
                0x0000000008a1fa38                __psp_path_normalize
                0x0000000008a1f9e4                __psp_safe_strcat
                0x0000000008a1f9ac                __psp_safe_strcpy
                0x0000000008a1fd24                __psp_path_absolute
 .text          0x0000000008a1ffd0       0x48 c:/pspsdk/bin/../lib/gcc/psp/4.3.5/../../../../psp/lib\libc.a(__psp_set_errno.o)
                0x0000000008a1ffd0                __psp_set_errno
 .text          0x0000000008a20018      0x100 c:/pspsdk/bin/../lib/gcc/psp/4.3.5/../../../../psp/lib\libc.a(_close.o)
                0x0000000008a20018                _close
 .text          0x0000000008a20118      0x118 c:/pspsdk/bin/../lib/gcc/psp/4.3.5/../../../../psp/lib\libc.a(_fcntl.o)
                0x0000000008a20118                _fcntl
 .text          0x0000000008a20230       0xc4 c:/pspsdk/bin/../lib/gcc/psp/4.3.5/../../../../psp/lib\libc.a(_gettimeofday.o)
                0x0000000008a20230                _gettimeofday
 .text          0x0000000008a202f4       0x78 c:/pspsdk/bin/../lib/gcc/psp/4.3.5/../../../../psp/lib\libc.a(_lseek.o)
                0x0000000008a202f4                _lseek
 .text          0x0000000008a2036c       0xd4 c:/pspsdk/bin/../lib/gcc/psp/4.3.5/../../../../psp/lib\libc.a(_read.o)
                0x0000000008a2036c                _read
 .text          0x0000000008a20440       0x8c c:/pspsdk/bin/../lib/gcc/psp/4.3.5/../../../../psp/lib\libc.a(chdir.o)
                0x0000000008a20440                chdir
 .text          0x0000000008a204cc       0x6c c:/pspsdk/bin/../lib/gcc/psp/4.3.5/../../../../psp/lib\libc.a(lib_a-statr.o)
                0x0000000008a204cc                _stat_r
 .text          0x0000000008a20538      0x1c4 c:/pspsdk/bin/../lib/gcc/psp/4.3.5/../../../../psp/lib\libc.a(setsockopt.o)
                0x0000000008a20538                setsockopt
                0x0000000008a20660                getsockopt
 .text          0x0000000008a206fc      0x24c c:/pspsdk/bin/../lib/gcc/psp/4.3.5/../../../../psp/lib\libc.a(_stat.o)
                0x0000000008a206fc                _stat
 .text          0x0000000008a20948      0x780 c:/pspsdk/bin/../lib/gcc/psp/4.3.5/../../../../psp/lib\libc.a(lib_a-mktime.o)
                0x0000000008a20cd0                mktime
 .text          0x0000000008a210c8       0x7c c:/pspsdk/bin/../lib/gcc/psp/4.3.5/../../../../psp/lib\libc.a(lib_a-div.o)
                0x0000000008a210c8                div
 .text          0x0000000008a21144       0x94 c:/pspsdk/bin/../lib/gcc/psp/4.3.5\libgcc.a(_fixunsdfsi.o)
                0x0000000008a21144                __fixunsdfsi
 .text          0x0000000008a211d8      0x5f8 c:/pspsdk/bin/../lib/gcc/psp/4.3.5\libgcc.a(_udivdi3.o)
                0x0000000008a211d8                __udivdi3
 .text          0x0000000008a217d0      0x688 c:/pspsdk/bin/../lib/gcc/psp/4.3.5\libgcc.a(_umoddi3.o)
                0x0000000008a217d0                __umoddi3
 .text          0x0000000008a21e58       0x40 c:/pspsdk/bin/../lib/gcc/psp/4.3.5\libgcc.a(_sf_to_df.o)
                0x0000000008a21e58                __extendsfdf2
 .text          0x0000000008a21e98      0x54c c:/pspsdk/bin/../lib/gcc/psp/4.3.5\libgcc.a(_addsub_df.o)
                0x0000000008a22378                __adddf3
                0x0000000008a22300                __subdf3
 .text          0x0000000008a223e4      0x2f4 c:/pspsdk/bin/../lib/gcc/psp/4.3.5\libgcc.a(_mul_df.o)
                0x0000000008a223e4                __muldf3
 .text          0x0000000008a226d8      0x264 c:/pspsdk/bin/../lib/gcc/psp/4.3.5\libgcc.a(_div_df.o)
                0x0000000008a226d8                __divdf3
 .text          0x0000000008a2293c       0x90 c:/pspsdk/bin/../lib/gcc/psp/4.3.5\libgcc.a(_eq_df.o)
                0x0000000008a2293c                __eqdf2
 .text          0x0000000008a229cc       0x90 c:/pspsdk/bin/../lib/gcc/psp/4.3.5\libgcc.a(_ne_df.o)
                0x0000000008a229cc                __nedf2
 .text          0x0000000008a22a5c       0x84 c:/pspsdk/bin/../lib/gcc/psp/4.3.5\libgcc.a(_gt_df.o)
                0x0000000008a22a5c                __gtdf2
 .text          0x0000000008a22ae0       0x84 c:/pspsdk/bin/../lib/gcc/psp/4.3.5\libgcc.a(_ge_df.o)
                0x0000000008a22ae0                __gedf2
 .text          0x0000000008a22b64       0x90 c:/pspsdk/bin/../lib/gcc/psp/4.3.5\libgcc.a(_lt_df.o)
                0x0000000008a22b64                __ltdf2
 .text          0x0000000008a22bf4       0x90 c:/pspsdk/bin/../lib/gcc/psp/4.3.5\libgcc.a(_le_df.o)
                0x0000000008a22bf4                __ledf2
 .text          0x0000000008a22c84       0xb4 c:/pspsdk/bin/../lib/gcc/psp/4.3.5\libgcc.a(_si_to_df.o)
                0x0000000008a22c84                __floatsidf
 .text          0x0000000008a22d38       0xd0 c:/pspsdk/bin/../lib/gcc/psp/4.3.5\libgcc.a(_df_to_si.o)
                0x0000000008a22d38                __fixdfsi
 .text          0x0000000008a22e08       0x30 c:/pspsdk/bin/../lib/gcc/psp/4.3.5\libgcc.a(_make_df.o)
                0x0000000008a22e08                __make_dp
 .text          0x0000000008a22e38       0x60 c:/pspsdk/bin/../lib/gcc/psp/4.3.5\libgcc.a(_df_to_sf.o)
                0x0000000008a22e38                __truncdfsf2
 .text          0x0000000008a22e98       0xf4 c:/pspsdk/bin/../lib/gcc/psp/4.3.5\libgcc.a(_usi_to_df.o)
                0x0000000008a22e98                __floatunsidf
 .text          0x0000000008a22f8c     0x33c4 c:/pspsdk/bin/../lib/gcc/psp/4.3.5\libgcc.a(unwind-dw2.o)
                0x0000000008a22ff4                _Unwind_GetIPInfo
                0x0000000008a22fec                _Unwind_GetIP
                0x0000000008a261c4                _Unwind_Resume_or_Rethrow
                0x0000000008a23018                _Unwind_GetRegionStart
                0x0000000008a25820                _Unwind_Backtrace
                0x0000000008a22fe4                _Unwind_GetCFA
                0x0000000008a25e98                __frame_state_for
                0x0000000008a25d04                _Unwind_Resume
                0x0000000008a23030                _Unwind_DeleteException
                0x0000000008a25f84                _Unwind_RaiseException
                0x0000000008a23008                _Unwind_SetIP
                0x0000000008a23028                _Unwind_GetTextRelBase
                0x0000000008a23188                _Unwind_FindEnclosingFunction
                0x0000000008a23010                _Unwind_GetLanguageSpecificData
                0x0000000008a25a88                _Unwind_ForcedUnwind
                0x0000000008a2304c                _Unwind_SetGR
                0x0000000008a230c8                _Unwind_GetGR
                0x0000000008a23020                _Unwind_GetDataRelBase
 .text          0x0000000008a26350     0x1840 c:/pspsdk/bin/../lib/gcc/psp/4.3.5\libgcc.a(unwind-dw2-fde.o)
                0x0000000008a27870                _Unwind_Find_FDE
                0x0000000008a27078                __register_frame
                0x0000000008a27020                __register_frame_table
                0x0000000008a26350                __register_frame_info_bases
                0x0000000008a27b54                __deregister_frame_info
                0x0000000008a27a6c                __deregister_frame_info_bases
                0x0000000008a263e0                __register_frame_info_table_bases
                0x0000000008a27b5c                __deregister_frame
                0x0000000008a26414                __register_frame_info_table
                0x0000000008a26398                __register_frame_info
 .text          0x0000000008a27b90       0x48 c:/pspsdk/bin/../lib/gcc/psp/4.3.5\libgcc.a(_ucmpdi2.o)
                0x0000000008a27b90                __ucmpdi2
 .text          0x0000000008a27bd8       0xb8 c:/pspsdk/bin/../lib/gcc/psp/4.3.5\libgcc.a(_unpack_sf.o)
                0x0000000008a27bd8                __unpack_f
 .text          0x0000000008a27c90       0x2c c:/pspsdk/bin/../lib/gcc/psp/4.3.5\libgcc.a(_make_sf.o)
                0x0000000008a27c90                __make_fp
 .text          0x0000000008a27cbc      0x32c c:/pspsdk/bin/../lib/gcc/psp/4.3.5\libgcc.a(_pack_df.o)
                0x0000000008a27cbc                __pack_d
 .text          0x0000000008a27fe8       0xf8 c:/pspsdk/bin/../lib/gcc/psp/4.3.5\libgcc.a(_unpack_df.o)
                0x0000000008a27fe8                __unpack_d
 .text          0x0000000008a280e0      0x12c c:/pspsdk/bin/../lib/gcc/psp/4.3.5\libgcc.a(_fpcmp_parts_df.o)
                0x0000000008a280e0                __fpcmp_parts_d
 .text          0x0000000008a2820c      0x1e8 c:/pspsdk/bin/../lib/gcc/psp/4.3.5\libgcc.a(_pack_sf.o)
                0x0000000008a2820c                __pack_f
 .text          0x0000000008a283f4       0x64 c:/pspsdk/bin/../lib/gcc/psp/4.3.5/crtend.o
 *(.text.*personality*)
 *(.gnu.warning)
 *(.mips16.fn.*)
 *(.mips16.call.*)

.fini           0x0000000008a28458       0x1c
 *(.fini)
 .fini          0x0000000008a28458        0x8 c:/pspsdk/bin/../lib/gcc/psp/4.3.5/crti.o
                0x0000000008a28458                _fini
 .fini          0x0000000008a28460        0x8 c:/pspsdk/bin/../lib/gcc/psp/4.3.5/crtbegin.o
 .fini          0x0000000008a28468        0xc c:/pspsdk/bin/../lib/gcc/psp/4.3.5/crtn.o

.sceStub.text   0x0000000008a28474      0x330
 *(.sceStub.text)
 .sceStub.text  0x0000000008a28474       0x10 c:/pspsdk/bin/../lib/gcc/psp/4.3.5/../../../../psp/lib\libosl.a(stub.o)
                0x0000000008a28474                sceDmacMemcpy
                0x0000000008a2847c                sceDmacTryMemcpy
 .sceStub.text  0x0000000008a28484        0x8 c:/pspsdk/psp/sdk/lib\libpsphprm.a(sceHprm_0003.o)
                0x0000000008a28484                sceHprmIsRemoteExist
 .sceStub.text  0x0000000008a2848c        0x8 c:/pspsdk/psp/sdk/lib\libpsphprm.a(sceHprm_0004.o)
                0x0000000008a2848c                sceHprmIsHeadphoneExist
 .sceStub.text  0x0000000008a28494        0x8 c:/pspsdk/psp/sdk/lib\libpsphprm.a(sceHprm_0006.o)
                0x0000000008a28494                sceHprmPeekCurrentKey
 .sceStub.text  0x0000000008a2849c        0x8 c:/pspsdk/psp/sdk/lib\libpspctrl.a(sceCtrl_0001.o)
                0x0000000008a2849c                sceCtrlSetSamplingCycle
 .sceStub.text  0x0000000008a284a4        0x8 c:/pspsdk/psp/sdk/lib\libpspctrl.a(sceCtrl_0003.o)
                0x0000000008a284a4                sceCtrlSetSamplingMode
 .sceStub.text  0x0000000008a284ac        0x8 c:/pspsdk/psp/sdk/lib\libpspctrl.a(sceCtrl_0005.o)
                0x0000000008a284ac                sceCtrlPeekBufferPositive
 .sceStub.text  0x0000000008a284b4        0x8 c:/pspsdk/psp/sdk/lib\libpsppower.a(scePower_0003.o)
                0x0000000008a284b4                scePowerTick
 .sceStub.text  0x0000000008a284bc        0x8 c:/pspsdk/psp/sdk/lib\libpsppower.a(scePower_0010.o)
                0x0000000008a284bc                scePowerIsPowerOnline
 .sceStub.text  0x0000000008a284c4        0x8 c:/pspsdk/psp/sdk/lib\libpsppower.a(scePower_0011.o)
                0x0000000008a284c4                scePowerIsBatteryExist
 .sceStub.text  0x0000000008a284cc        0x8 c:/pspsdk/psp/sdk/lib\libpsppower.a(scePower_0012.o)
                0x0000000008a284cc                scePowerIsBatteryCharging
 .sceStub.text  0x0000000008a284d4        0x8 c:/pspsdk/psp/sdk/lib\libpsppower.a(scePower_0014.o)
                0x0000000008a284d4                scePowerIsLowBattery
 .sceStub.text  0x0000000008a284dc        0x8 c:/pspsdk/psp/sdk/lib\libpsppower.a(scePower_0018.o)
                0x0000000008a284dc                scePowerGetBatteryLifePercent
 .sceStub.text  0x0000000008a284e4        0x8 c:/pspsdk/psp/sdk/lib\libpsppower.a(scePower_0019.o)
                0x0000000008a284e4                scePowerGetBatteryLifeTime
 .sceStub.text  0x0000000008a284ec        0x8 c:/pspsdk/psp/sdk/lib\libpsppower.a(scePower_0020.o)
                0x0000000008a284ec                scePowerGetBatteryTemp
 .sceStub.text  0x0000000008a284f4        0x8 c:/pspsdk/psp/sdk/lib\libpsppower.a(scePower_0026.o)
                0x0000000008a284f4                scePowerLock
 .sceStub.text  0x0000000008a284fc        0x8 c:/pspsdk/psp/sdk/lib\libpsppower.a(scePower_0027.o)
                0x0000000008a284fc                scePowerUnlock
 .sceStub.text  0x0000000008a28504        0x8 c:/pspsdk/psp/sdk/lib\libpsppower.a(scePower_0035.o)
                0x0000000008a28504                scePowerRegisterCallback
 .sceStub.text  0x0000000008a2850c        0x8 c:/pspsdk/psp/sdk/lib\libpsppower.a(scePower_0046.o)
                0x0000000008a2850c                scePowerSetClockFrequency
 .sceStub.text  0x0000000008a28514        0x8 c:/pspsdk/psp/sdk/lib\libpspusb.a(sceUsb_0001.o)
                0x0000000008a28514                sceUsbStart
 .sceStub.text  0x0000000008a2851c        0x8 c:/pspsdk/psp/sdk/lib\libpspusb.a(sceUsb_0002.o)
                0x0000000008a2851c                sceUsbStop
 .sceStub.text  0x0000000008a28524        0x8 c:/pspsdk/psp/sdk/lib\libpspusb.a(sceUsb_0003.o)
                0x0000000008a28524                sceUsbGetState
 .sceStub.text  0x0000000008a2852c        0x8 c:/pspsdk/psp/sdk/lib\libpspusb.a(sceUsb_0006.o)
                0x0000000008a2852c                sceUsbActivate
 .sceStub.text  0x0000000008a28534        0x8 c:/pspsdk/psp/sdk/lib\libpspusb.a(sceUsb_0007.o)
                0x0000000008a28534                sceUsbDeactivate
 .sceStub.text  0x0000000008a2853c        0x8 c:/pspsdk/psp/sdk/lib\libpspusbstor.a(sceUsbstorBoot_0001.o)
                0x0000000008a2853c                sceUsbstorBootSetCapacity
 .sceStub.text  0x0000000008a28544        0x8 c:/pspsdk/psp/sdk/lib\libpspaudio.a(sceAudio_0002.o)
                0x0000000008a28544                sceAudioOutputBlocking
 .sceStub.text  0x0000000008a2854c        0x8 c:/pspsdk/psp/sdk/lib\libpspaudio.a(sceAudio_0004.o)
                0x0000000008a2854c                sceAudioOutputPannedBlocking
 .sceStub.text  0x0000000008a28554        0x8 c:/pspsdk/psp/sdk/lib\libpspaudio.a(sceAudio_0005.o)
                0x0000000008a28554                sceAudioChReserve
 .sceStub.text  0x0000000008a2855c        0x8 c:/pspsdk/psp/sdk/lib\libpspaudio.a(sceAudio_0007.o)
                0x0000000008a2855c                sceAudioChRelease
 .sceStub.text  0x0000000008a28564        0x8 c:/pspsdk/psp/sdk/lib\libpspaudio.a(sceAudio_0010.o)
                0x0000000008a28564                sceAudioChangeChannelConfig
 .sceStub.text  0x0000000008a2856c        0x8 c:/pspsdk/psp/sdk/lib\libpspdisplay.a(sceDisplay_0001.o)
                0x0000000008a2856c                sceDisplaySetMode
 .sceStub.text  0x0000000008a28574        0x8 c:/pspsdk/psp/sdk/lib\libpspdisplay.a(sceDisplay_0006.o)
                0x0000000008a28574                sceDisplaySetFrameBuf
 .sceStub.text  0x0000000008a2857c        0x8 c:/pspsdk/psp/sdk/lib\libpspdisplay.a(sceDisplay_0014.o)
                0x0000000008a2857c                sceDisplayWaitVblankStart
 .sceStub.text  0x0000000008a28584        0x8 c:/pspsdk/psp/sdk/lib\libpspge.a(sceGe_user_0002.o)
                0x0000000008a28584                sceGeEdramGetAddr
 .sceStub.text  0x0000000008a2858c        0x8 c:/pspsdk/psp/sdk/lib\libpspge.a(sceGe_user_0008.o)
                0x0000000008a2858c                sceGeListEnQueue
 .sceStub.text  0x0000000008a28594        0x8 c:/pspsdk/psp/sdk/lib\libpspge.a(sceGe_user_0011.o)
                0x0000000008a28594                sceGeListUpdateStallAddr
 .sceStub.text  0x0000000008a2859c        0x8 c:/pspsdk/psp/sdk/lib\libpspge.a(sceGe_user_0012.o)
                0x0000000008a2859c                sceGeListSync
 .sceStub.text  0x0000000008a285a4        0x8 c:/pspsdk/psp/sdk/lib\libpspge.a(sceGe_user_0013.o)
                0x0000000008a285a4                sceGeDrawSync
 .sceStub.text  0x0000000008a285ac        0x8 c:/pspsdk/psp/sdk/lib\libpspge.a(sceGe_user_0016.o)
                0x0000000008a285ac                sceGeSetCallback
 .sceStub.text  0x0000000008a285b4        0x8 c:/pspsdk/psp/sdk/lib\libpspge.a(sceGe_user_0017.o)
                0x0000000008a285b4                sceGeUnsetCallback
 .sceStub.text  0x0000000008a285bc        0x8 c:/pspsdk/psp/sdk/lib\libpspnet_inet.a(sceNetInet_0010.o)
                0x0000000008a285bc                sceNetInetGetsockopt
 .sceStub.text  0x0000000008a285c4        0x8 c:/pspsdk/psp/sdk/lib\libpspnet_inet.a(sceNetInet_0020.o)
                0x0000000008a285c4                sceNetInetSetsockopt
 .sceStub.text  0x0000000008a285cc        0x8 c:/pspsdk/psp/sdk/lib\libpspnet_inet.a(sceNetInet_0024.o)
                0x0000000008a285cc                sceNetInetGetErrno
 .sceStub.text  0x0000000008a285d4        0x8 c:/pspsdk/psp/sdk/lib\libpsputility.a(sceUtility_0031.o)
                0x0000000008a285d4                sceUtilityGetSystemParamInt
 .sceStub.text  0x0000000008a285dc        0x8 c:/pspsdk/psp/sdk/lib\libpspuser.a(IoFileMgrForUser_0007.o)
                0x0000000008a285dc                sceIoClose
 .sceStub.text  0x0000000008a285e4        0x8 c:/pspsdk/psp/sdk/lib\libpspuser.a(IoFileMgrForUser_0009.o)
                0x0000000008a285e4                sceIoOpen
 .sceStub.text  0x0000000008a285ec        0x8 c:/pspsdk/psp/sdk/lib\libpspuser.a(IoFileMgrForUser_0011.o)
                0x0000000008a285ec                sceIoRead
 .sceStub.text  0x0000000008a285f4        0x8 c:/pspsdk/psp/sdk/lib\libpspuser.a(IoFileMgrForUser_0013.o)
                0x0000000008a285f4                sceIoWrite
 .sceStub.text  0x0000000008a285fc        0x8 c:/pspsdk/psp/sdk/lib\libpspuser.a(IoFileMgrForUser_0015.o)
                0x0000000008a285fc                sceIoLseek
 .sceStub.text  0x0000000008a28604        0x8 c:/pspsdk/psp/sdk/lib\libpspuser.a(IoFileMgrForUser_0017.o)
                0x0000000008a28604                sceIoLseek32
 .sceStub.text  0x0000000008a2860c        0x8 c:/pspsdk/psp/sdk/lib\libpspuser.a(IoFileMgrForUser_0021.o)
                0x0000000008a2860c                sceIoDopen
 .sceStub.text  0x0000000008a28614        0x8 c:/pspsdk/psp/sdk/lib\libpspuser.a(IoFileMgrForUser_0022.o)
                0x0000000008a28614                sceIoDread
 .sceStub.text  0x0000000008a2861c        0x8 c:/pspsdk/psp/sdk/lib\libpspuser.a(IoFileMgrForUser_0023.o)
                0x0000000008a2861c                sceIoDclose
 .sceStub.text  0x0000000008a28624        0x8 c:/pspsdk/psp/sdk/lib\libpspuser.a(IoFileMgrForUser_0024.o)
                0x0000000008a28624                sceIoRemove
 .sceStub.text  0x0000000008a2862c        0x8 c:/pspsdk/psp/sdk/lib\libpspuser.a(IoFileMgrForUser_0025.o)
                0x0000000008a2862c                sceIoMkdir
 .sceStub.text  0x0000000008a28634        0x8 c:/pspsdk/psp/sdk/lib\libpspuser.a(IoFileMgrForUser_0027.o)
                0x0000000008a28634                sceIoChdir
 .sceStub.text  0x0000000008a2863c        0x8 c:/pspsdk/psp/sdk/lib\libpspuser.a(IoFileMgrForUser_0029.o)
                0x0000000008a2863c                sceIoGetstat
 .sceStub.text  0x0000000008a28644        0x8 c:/pspsdk/psp/sdk/lib\libpspuser.a(IoFileMgrForUser_0032.o)
                0x0000000008a28644                sceIoDevctl
 .sceStub.text  0x0000000008a2864c        0x8 c:/pspsdk/psp/sdk/lib\libpspuser.a(ModuleMgrForUser_0002.o)
                0x0000000008a2864c                sceKernelLoadModule
 .sceStub.text  0x0000000008a28654        0x8 c:/pspsdk/psp/sdk/lib\libpspuser.a(ModuleMgrForUser_0005.o)
                0x0000000008a28654                sceKernelStartModule
 .sceStub.text  0x0000000008a2865c        0x8 c:/pspsdk/psp/sdk/lib\libpspuser.a(ModuleMgrForUser_0006.o)
                0x0000000008a2865c                sceKernelStopModule
 .sceStub.text  0x0000000008a28664        0x8 c:/pspsdk/psp/sdk/lib\libpspuser.a(ModuleMgrForUser_0007.o)
                0x0000000008a28664                sceKernelUnloadModule
 .sceStub.text  0x0000000008a2866c        0x8 c:/pspsdk/psp/sdk/lib\libpspuser.a(ModuleMgrForUser_0008.o)
                0x0000000008a2866c                sceKernelSelfStopUnloadModule
 .sceStub.text  0x0000000008a28674        0x8 c:/pspsdk/psp/sdk/lib\libpspuser.a(StdioForUser_0007.o)
                0x0000000008a28674                sceKernelStdin
 .sceStub.text  0x0000000008a2867c        0x8 c:/pspsdk/psp/sdk/lib\libpspuser.a(StdioForUser_0008.o)
                0x0000000008a2867c                sceKernelStdout
 .sceStub.text  0x0000000008a28684        0x8 c:/pspsdk/psp/sdk/lib\libpspuser.a(StdioForUser_0009.o)
                0x0000000008a28684                sceKernelStderr
 .sceStub.text  0x0000000008a2868c        0x8 c:/pspsdk/psp/sdk/lib\libpspuser.a(SysMemUserForUser_0001.o)
                0x0000000008a2868c                sceKernelMaxFreeMemSize
 .sceStub.text  0x0000000008a28694        0x8 c:/pspsdk/psp/sdk/lib\libpspuser.a(SysMemUserForUser_0003.o)
                0x0000000008a28694                sceKernelAllocPartitionMemory
 .sceStub.text  0x0000000008a2869c        0x8 c:/pspsdk/psp/sdk/lib\libpspuser.a(SysMemUserForUser_0004.o)
                0x0000000008a2869c                sceKernelFreePartitionMemory
 .sceStub.text  0x0000000008a286a4        0x8 c:/pspsdk/psp/sdk/lib\libpspuser.a(SysMemUserForUser_0005.o)
                0x0000000008a286a4                sceKernelGetBlockHeadAddr
 .sceStub.text  0x0000000008a286ac        0x8 c:/pspsdk/psp/sdk/lib\libpspuser.a(ThreadManForUser_0005.o)
                0x0000000008a286ac                sceKernelCreateCallback
 .sceStub.text  0x0000000008a286b4        0x8 c:/pspsdk/psp/sdk/lib\libpspuser.a(ThreadManForUser_0007.o)
                0x0000000008a286b4                sceKernelNotifyCallback
 .sceStub.text  0x0000000008a286bc        0x8 c:/pspsdk/psp/sdk/lib\libpspuser.a(ThreadManForUser_0013.o)
                0x0000000008a286bc                sceKernelSleepThreadCB
 .sceStub.text  0x0000000008a286c4        0x8 c:/pspsdk/psp/sdk/lib\libpspuser.a(ThreadManForUser_0018.o)
                0x0000000008a286c4                sceKernelWaitThreadEnd
 .sceStub.text  0x0000000008a286cc        0x8 c:/pspsdk/psp/sdk/lib\libpspuser.a(ThreadManForUser_0020.o)
                0x0000000008a286cc                sceKernelDelayThread
 .sceStub.text  0x0000000008a286d4        0x8 c:/pspsdk/psp/sdk/lib\libpspuser.a(ThreadManForUser_0032.o)
                0x0000000008a286d4                sceKernelCreateEventFlag
 .sceStub.text  0x0000000008a286dc        0x8 c:/pspsdk/psp/sdk/lib\libpspuser.a(ThreadManForUser_0033.o)
                0x0000000008a286dc                sceKernelDeleteEventFlag
 .sceStub.text  0x0000000008a286e4        0x8 c:/pspsdk/psp/sdk/lib\libpspuser.a(ThreadManForUser_0034.o)
                0x0000000008a286e4                sceKernelSetEventFlag
 .sceStub.text  0x0000000008a286ec        0x8 c:/pspsdk/psp/sdk/lib\libpspuser.a(ThreadManForUser_0049.o)
                0x0000000008a286ec                sceKernelCreateMsgPipe
 .sceStub.text  0x0000000008a286f4        0x8 c:/pspsdk/psp/sdk/lib\libpspuser.a(ThreadManForUser_0050.o)
                0x0000000008a286f4                sceKernelDeleteMsgPipe
 .sceStub.text  0x0000000008a286fc        0x8 c:/pspsdk/psp/sdk/lib\libpspuser.a(ThreadManForUser_0051.o)
                0x0000000008a286fc                sceKernelSendMsgPipe
 .sceStub.text  0x0000000008a28704        0x8 c:/pspsdk/psp/sdk/lib\libpspuser.a(ThreadManForUser_0053.o)
                0x0000000008a28704                sceKernelTrySendMsgPipe
 .sceStub.text  0x0000000008a2870c        0x8 c:/pspsdk/psp/sdk/lib\libpspuser.a(ThreadManForUser_0054.o)
                0x0000000008a2870c                sceKernelReceiveMsgPipe
 .sceStub.text  0x0000000008a28714        0x8 c:/pspsdk/psp/sdk/lib\libpspuser.a(ThreadManForUser_0056.o)
                0x0000000008a28714                sceKernelTryReceiveMsgPipe
 .sceStub.text  0x0000000008a2871c        0x8 c:/pspsdk/psp/sdk/lib\libpspuser.a(ThreadManForUser_0058.o)
                0x0000000008a2871c                sceKernelReferMsgPipeStatus
 .sceStub.text  0x0000000008a28724        0x8 c:/pspsdk/psp/sdk/lib\libpspuser.a(ThreadManForUser_0101.o)
                0x0000000008a28724                sceKernelCreateThread
 .sceStub.text  0x0000000008a2872c        0x8 c:/pspsdk/psp/sdk/lib\libpspuser.a(ThreadManForUser_0102.o)
                0x0000000008a2872c                sceKernelDeleteThread
 .sceStub.text  0x0000000008a28734        0x8 c:/pspsdk/psp/sdk/lib\libpspuser.a(ThreadManForUser_0103.o)
                0x0000000008a28734                sceKernelStartThread
 .sceStub.text  0x0000000008a2873c        0x8 c:/pspsdk/psp/sdk/lib\libpspuser.a(ThreadManForUser_0105.o)
                0x0000000008a2873c                sceKernelExitThread
 .sceStub.text  0x0000000008a28744        0x8 c:/pspsdk/psp/sdk/lib\libpspuser.a(ThreadManForUser_0106.o)
                0x0000000008a28744                sceKernelExitDeleteThread
 .sceStub.text  0x0000000008a2874c        0x8 c:/pspsdk/psp/sdk/lib\libpspuser.a(UtilsForUser_0014.o)
                0x0000000008a2874c                sceKernelLibcClock
 .sceStub.text  0x0000000008a28754        0x8 c:/pspsdk/psp/sdk/lib\libpspuser.a(UtilsForUser_0015.o)
                0x0000000008a28754                sceKernelLibcTime
 .sceStub.text  0x0000000008a2875c        0x8 c:/pspsdk/psp/sdk/lib\libpspuser.a(UtilsForUser_0016.o)
                0x0000000008a2875c                sceKernelLibcGettimeofday
 .sceStub.text  0x0000000008a28764        0x8 c:/pspsdk/psp/sdk/lib\libpspuser.a(UtilsForUser_0017.o)
                0x0000000008a28764                sceKernelDcacheWritebackAll
 .sceStub.text  0x0000000008a2876c        0x8 c:/pspsdk/psp/sdk/lib\libpspuser.a(UtilsForUser_0018.o)
                0x0000000008a2876c                sceKernelDcacheWritebackInvalidateAll
 .sceStub.text  0x0000000008a28774        0x8 c:/pspsdk/psp/sdk/lib\libpspuser.a(UtilsForUser_0019.o)
                0x0000000008a28774                sceKernelDcacheWritebackRange
 .sceStub.text  0x0000000008a2877c        0x8 c:/pspsdk/psp/sdk/lib\libpspuser.a(UtilsForUser_0020.o)
                0x0000000008a2877c                sceKernelDcacheWritebackInvalidateRange
 .sceStub.text  0x0000000008a28784        0x8 c:/pspsdk/psp/sdk/lib\libpspuser.a(InterruptManager_0001.o)
                0x0000000008a28784                sceKernelRegisterSubIntrHandler
 .sceStub.text  0x0000000008a2878c        0x8 c:/pspsdk/psp/sdk/lib\libpspuser.a(InterruptManager_0003.o)
                0x0000000008a2878c                sceKernelEnableSubIntr
 .sceStub.text  0x0000000008a28794        0x8 c:/pspsdk/psp/sdk/lib\libpspuser.a(LoadExecForUser_0003.o)
                0x0000000008a28794                sceKernelExitGame
 .sceStub.text  0x0000000008a2879c        0x8 c:/pspsdk/psp/sdk/lib\libpspuser.a(LoadExecForUser_0004.o)
                0x0000000008a2879c                sceKernelRegisterExitCallback
 *(SORT(.sceStub.text.*))
                0x0000000008a287a4                PROVIDE (__etext, .)
                0x0000000008a287a4                PROVIDE (_etext, .)
                0x0000000008a287a4                PROVIDE (etext, .)

.lib.ent.top    0x0000000008a287a4        0x4
 *(.lib.ent.top)
 .lib.ent.top   0x0000000008a287a4        0x4 psp/main.o

.lib.ent        0x0000000008a287a8       0x10
 *(.lib.ent)
 .lib.ent       0x0000000008a287a8       0x10 c:/pspsdk/bin/../lib/gcc/psp/4.3.5/../../../../psp/lib/crt0.o

.lib.ent.btm    0x0000000008a287b8        0x4
 *(.lib.ent.btm)
 .lib.ent.btm   0x0000000008a287b8        0x4 psp/main.o

.lib.stub.top   0x0000000008a287bc        0x4
 *(.lib.stub.top)
 .lib.stub.top  0x0000000008a287bc        0x4 psp/main.o

.lib.stub       0x0000000008a287c0      0x17c
 *(.lib.stub)
 .lib.stub      0x0000000008a287c0       0x14 c:/pspsdk/bin/../lib/gcc/psp/4.3.5/../../../../psp/lib\libosl.a(stub.o)
 .lib.stub      0x0000000008a287d4       0x14 c:/pspsdk/psp/sdk/lib\libpsphprm.a(sceHprm_0000.o)
                0x0000000008a287d4                __stub_module_sceHprm
 .lib.stub      0x0000000008a287e8       0x14 c:/pspsdk/psp/sdk/lib\libpspctrl.a(sceCtrl_0000.o)
                0x0000000008a287e8                __stub_module_sceCtrl
 .lib.stub      0x0000000008a287fc       0x14 c:/pspsdk/psp/sdk/lib\libpsppower.a(scePower_0000.o)
                0x0000000008a287fc                __stub_module_scePower
 .lib.stub      0x0000000008a28810       0x14 c:/pspsdk/psp/sdk/lib\libpspusb.a(sceUsb_0000.o)
                0x0000000008a28810                __stub_module_sceUsb
 .lib.stub      0x0000000008a28824       0x14 c:/pspsdk/psp/sdk/lib\libpspusbstor.a(sceUsbstorBoot_0000.o)
                0x0000000008a28824                __stub_module_sceUsbstorBoot
 .lib.stub      0x0000000008a28838       0x14 c:/pspsdk/psp/sdk/lib\libpspaudio.a(sceAudio_0000.o)
                0x0000000008a28838                __stub_module_sceAudio
 .lib.stub      0x0000000008a2884c       0x14 c:/pspsdk/psp/sdk/lib\libpspdisplay.a(sceDisplay_0000.o)
                0x0000000008a2884c                __stub_module_sceDisplay
 .lib.stub      0x0000000008a28860       0x14 c:/pspsdk/psp/sdk/lib\libpspge.a(sceGe_user_0000.o)
                0x0000000008a28860                __stub_module_sceGe_user
 .lib.stub      0x0000000008a28874       0x14 c:/pspsdk/psp/sdk/lib\libpspnet_inet.a(sceNetInet_0000.o)
                0x0000000008a28874                __stub_module_sceNetInet
 .lib.stub      0x0000000008a28888       0x14 c:/pspsdk/psp/sdk/lib\libpsputility.a(sceUtility_0000.o)
                0x0000000008a28888                __stub_module_sceUtility
 .lib.stub      0x0000000008a2889c       0x14 c:/pspsdk/psp/sdk/lib\libpspuser.a(IoFileMgrForUser_0000.o)
                0x0000000008a2889c                __stub_module_IoFileMgrForUser
 .lib.stub      0x0000000008a288b0       0x14 c:/pspsdk/psp/sdk/lib\libpspuser.a(ModuleMgrForUser_0000.o)
                0x0000000008a288b0                __stub_module_ModuleMgrForUser
 .lib.stub      0x0000000008a288c4       0x14 c:/pspsdk/psp/sdk/lib\libpspuser.a(StdioForUser_0000.o)
                0x0000000008a288c4                __stub_module_StdioForUser
 .lib.stub      0x0000000008a288d8       0x14 c:/pspsdk/psp/sdk/lib\libpspuser.a(SysMemUserForUser_0000.o)
                0x0000000008a288d8                __stub_module_SysMemUserForUser
 .lib.stub      0x0000000008a288ec       0x14 c:/pspsdk/psp/sdk/lib\libpspuser.a(ThreadManForUser_0000.o)
                0x0000000008a288ec                __stub_module_ThreadManForUser
 .lib.stub      0x0000000008a28900       0x14 c:/pspsdk/psp/sdk/lib\libpspuser.a(UtilsForUser_0000.o)
                0x0000000008a28900                __stub_module_UtilsForUser
 .lib.stub      0x0000000008a28914       0x14 c:/pspsdk/psp/sdk/lib\libpspuser.a(InterruptManager_0000.o)
                0x0000000008a28914                __stub_module_InterruptManager
 .lib.stub      0x0000000008a28928       0x14 c:/pspsdk/psp/sdk/lib\libpspuser.a(LoadExecForUser_0000.o)
                0x0000000008a28928                __stub_module_LoadExecForUser

.lib.stub.btm   0x0000000008a2893c        0x4
 *(.lib.stub.btm)
 .lib.stub.btm  0x0000000008a2893c        0x4 psp/main.o

.rodata.sceModuleInfo
                0x0000000008a28940       0x40
 *(.rodata.sceModuleInfo)
 .rodata.sceModuleInfo
                0x0000000008a28940       0x40 psp/main.o
                0x0000000008a28940                module_info

.rodata.sceResident
                0x0000000008a28980      0x168
 *(.rodata.sceResident)
 .rodata.sceResident
                0x0000000008a28980       0x10 c:/pspsdk/bin/../lib/gcc/psp/4.3.5/../../../../psp/lib/crt0.o
 .rodata.sceResident
                0x0000000008a28990        0xc c:/pspsdk/bin/../lib/gcc/psp/4.3.5/../../../../psp/lib\libosl.a(stub.o)
 .rodata.sceResident
                0x0000000008a2899c        0xc c:/pspsdk/psp/sdk/lib\libpsphprm.a(sceHprm_0000.o)
 .rodata.sceResident
                0x0000000008a289a8        0xc c:/pspsdk/psp/sdk/lib\libpspctrl.a(sceCtrl_0000.o)
 .rodata.sceResident
                0x0000000008a289b4       0x10 c:/pspsdk/psp/sdk/lib\libpsppower.a(scePower_0000.o)
 .rodata.sceResident
                0x0000000008a289c4        0xc c:/pspsdk/psp/sdk/lib\libpspusb.a(sceUsb_0000.o)
 .rodata.sceResident
                0x0000000008a289d0       0x14 c:/pspsdk/psp/sdk/lib\libpspusbstor.a(sceUsbstorBoot_0000.o)
 .rodata.sceResident
                0x0000000008a289e4       0x10 c:/pspsdk/psp/sdk/lib\libpspaudio.a(sceAudio_0000.o)
 .rodata.sceResident
                0x0000000008a289f4       0x10 c:/pspsdk/psp/sdk/lib\libpspdisplay.a(sceDisplay_0000.o)
 .rodata.sceResident
                0x0000000008a28a04       0x10 c:/pspsdk/psp/sdk/lib\libpspge.a(sceGe_user_0000.o)
 .rodata.sceResident
                0x0000000008a28a14       0x10 c:/pspsdk/psp/sdk/lib\libpspnet_inet.a(sceNetInet_0000.o)
 .rodata.sceResident
                0x0000000008a28a24       0x10 c:/pspsdk/psp/sdk/lib\libpsputility.a(sceUtility_0000.o)
 .rodata.sceResident
                0x0000000008a28a34       0x18 c:/pspsdk/psp/sdk/lib\libpspuser.a(IoFileMgrForUser_0000.o)
 .rodata.sceResident
                0x0000000008a28a4c       0x18 c:/pspsdk/psp/sdk/lib\libpspuser.a(ModuleMgrForUser_0000.o)
 .rodata.sceResident
                0x0000000008a28a64       0x14 c:/pspsdk/psp/sdk/lib\libpspuser.a(StdioForUser_0000.o)
 .rodata.sceResident
                0x0000000008a28a78       0x18 c:/pspsdk/psp/sdk/lib\libpspuser.a(SysMemUserForUser_0000.o)
 .rodata.sceResident
                0x0000000008a28a90       0x18 c:/pspsdk/psp/sdk/lib\libpspuser.a(ThreadManForUser_0000.o)
 .rodata.sceResident
                0x0000000008a28aa8       0x14 c:/pspsdk/psp/sdk/lib\libpspuser.a(UtilsForUser_0000.o)
 .rodata.sceResident
                0x0000000008a28abc       0x18 c:/pspsdk/psp/sdk/lib\libpspuser.a(InterruptManager_0000.o)
 .rodata.sceResident
                0x0000000008a28ad4       0x14 c:/pspsdk/psp/sdk/lib\libpspuser.a(LoadExecForUser_0000.o)

.rodata.sceNid  0x0000000008a28ae8      0x198
 *(.rodata.sceNid)
 .rodata.sceNid
                0x0000000008a28ae8        0x8 c:/pspsdk/bin/../lib/gcc/psp/4.3.5/../../../../psp/lib\libosl.a(stub.o)
 .rodata.sceNid
                0x0000000008a28af0        0x4 c:/pspsdk/psp/sdk/lib\libpsphprm.a(sceHprm_0003.o)
 .rodata.sceNid
                0x0000000008a28af4        0x4 c:/pspsdk/psp/sdk/lib\libpsphprm.a(sceHprm_0004.o)
 .rodata.sceNid
                0x0000000008a28af8        0x4 c:/pspsdk/psp/sdk/lib\libpsphprm.a(sceHprm_0006.o)
 .rodata.sceNid
                0x0000000008a28afc        0x4 c:/pspsdk/psp/sdk/lib\libpspctrl.a(sceCtrl_0001.o)
 .rodata.sceNid
                0x0000000008a28b00        0x4 c:/pspsdk/psp/sdk/lib\libpspctrl.a(sceCtrl_0003.o)
 .rodata.sceNid
                0x0000000008a28b04        0x4 c:/pspsdk/psp/sdk/lib\libpspctrl.a(sceCtrl_0005.o)
 .rodata.sceNid
                0x0000000008a28b08        0x4 c:/pspsdk/psp/sdk/lib\libpsppower.a(scePower_0003.o)
 .rodata.sceNid
                0x0000000008a28b0c        0x4 c:/pspsdk/psp/sdk/lib\libpsppower.a(scePower_0010.o)
 .rodata.sceNid
                0x0000000008a28b10        0x4 c:/pspsdk/psp/sdk/lib\libpsppower.a(scePower_0011.o)
 .rodata.sceNid
                0x0000000008a28b14        0x4 c:/pspsdk/psp/sdk/lib\libpsppower.a(scePower_0012.o)
 .rodata.sceNid
                0x0000000008a28b18        0x4 c:/pspsdk/psp/sdk/lib\libpsppower.a(scePower_0014.o)
 .rodata.sceNid
                0x0000000008a28b1c        0x4 c:/pspsdk/psp/sdk/lib\libpsppower.a(scePower_0018.o)
 .rodata.sceNid
                0x0000000008a28b20        0x4 c:/pspsdk/psp/sdk/lib\libpsppower.a(scePower_0019.o)
 .rodata.sceNid
                0x0000000008a28b24        0x4 c:/pspsdk/psp/sdk/lib\libpsppower.a(scePower_0020.o)
 .rodata.sceNid
                0x0000000008a28b28        0x4 c:/pspsdk/psp/sdk/lib\libpsppower.a(scePower_0026.o)
 .rodata.sceNid
                0x0000000008a28b2c        0x4 c:/pspsdk/psp/sdk/lib\libpsppower.a(scePower_0027.o)
 .rodata.sceNid
                0x0000000008a28b30        0x4 c:/pspsdk/psp/sdk/lib\libpsppower.a(scePower_0035.o)
 .rodata.sceNid
                0x0000000008a28b34        0x4 c:/pspsdk/psp/sdk/lib\libpsppower.a(scePower_0046.o)
 .rodata.sceNid
                0x0000000008a28b38        0x4 c:/pspsdk/psp/sdk/lib\libpspusb.a(sceUsb_0001.o)
 .rodata.sceNid
                0x0000000008a28b3c        0x4 c:/pspsdk/psp/sdk/lib\libpspusb.a(sceUsb_0002.o)
 .rodata.sceNid
                0x0000000008a28b40        0x4 c:/pspsdk/psp/sdk/lib\libpspusb.a(sceUsb_0003.o)
 .rodata.sceNid
                0x0000000008a28b44        0x4 c:/pspsdk/psp/sdk/lib\libpspusb.a(sceUsb_0006.o)
 .rodata.sceNid
                0x0000000008a28b48        0x4 c:/pspsdk/psp/sdk/lib\libpspusb.a(sceUsb_0007.o)
 .rodata.sceNid
                0x0000000008a28b4c        0x4 c:/pspsdk/psp/sdk/lib\libpspusbstor.a(sceUsbstorBoot_0001.o)
 .rodata.sceNid
                0x0000000008a28b50        0x4 c:/pspsdk/psp/sdk/lib\libpspaudio.a(sceAudio_0002.o)
 .rodata.sceNid
                0x0000000008a28b54        0x4 c:/pspsdk/psp/sdk/lib\libpspaudio.a(sceAudio_0004.o)
 .rodata.sceNid
                0x0000000008a28b58        0x4 c:/pspsdk/psp/sdk/lib\libpspaudio.a(sceAudio_0005.o)
 .rodata.sceNid
                0x0000000008a28b5c        0x4 c:/pspsdk/psp/sdk/lib\libpspaudio.a(sceAudio_0007.o)
 .rodata.sceNid
                0x0000000008a28b60        0x4 c:/pspsdk/psp/sdk/lib\libpspaudio.a(sceAudio_0010.o)
 .rodata.sceNid
                0x0000000008a28b64        0x4 c:/pspsdk/psp/sdk/lib\libpspdisplay.a(sceDisplay_0001.o)
 .rodata.sceNid
                0x0000000008a28b68        0x4 c:/pspsdk/psp/sdk/lib\libpspdisplay.a(sceDisplay_0006.o)
 .rodata.sceNid
                0x0000000008a28b6c        0x4 c:/pspsdk/psp/sdk/lib\libpspdisplay.a(sceDisplay_0014.o)
 .rodata.sceNid
                0x0000000008a28b70        0x4 c:/pspsdk/psp/sdk/lib\libpspge.a(sceGe_user_0002.o)
 .rodata.sceNid
                0x0000000008a28b74        0x4 c:/pspsdk/psp/sdk/lib\libpspge.a(sceGe_user_0008.o)
 .rodata.sceNid
                0x0000000008a28b78        0x4 c:/pspsdk/psp/sdk/lib\libpspge.a(sceGe_user_0011.o)
 .rodata.sceNid
                0x0000000008a28b7c        0x4 c:/pspsdk/psp/sdk/lib\libpspge.a(sceGe_user_0012.o)
 .rodata.sceNid
                0x0000000008a28b80        0x4 c:/pspsdk/psp/sdk/lib\libpspge.a(sceGe_user_0013.o)
 .rodata.sceNid
                0x0000000008a28b84        0x4 c:/pspsdk/psp/sdk/lib\libpspge.a(sceGe_user_0016.o)
 .rodata.sceNid
                0x0000000008a28b88        0x4 c:/pspsdk/psp/sdk/lib\libpspge.a(sceGe_user_0017.o)
 .rodata.sceNid
                0x0000000008a28b8c        0x4 c:/pspsdk/psp/sdk/lib\libpspnet_inet.a(sceNetInet_0010.o)
 .rodata.sceNid
                0x0000000008a28b90        0x4 c:/pspsdk/psp/sdk/lib\libpspnet_inet.a(sceNetInet_0020.o)
 .rodata.sceNid
                0x0000000008a28b94        0x4 c:/pspsdk/psp/sdk/lib\libpspnet_inet.a(sceNetInet_0024.o)
 .rodata.sceNid
                0x0000000008a28b98        0x4 c:/pspsdk/psp/sdk/lib\libpsputility.a(sceUtility_0031.o)
 .rodata.sceNid
                0x0000000008a28b9c        0x4 c:/pspsdk/psp/sdk/lib\libpspuser.a(IoFileMgrForUser_0007.o)
 .rodata.sceNid
                0x0000000008a28ba0        0x4 c:/pspsdk/psp/sdk/lib\libpspuser.a(IoFileMgrForUser_0009.o)
 .rodata.sceNid
                0x0000000008a28ba4        0x4 c:/pspsdk/psp/sdk/lib\libpspuser.a(IoFileMgrForUser_0011.o)
 .rodata.sceNid
                0x0000000008a28ba8        0x4 c:/pspsdk/psp/sdk/lib\libpspuser.a(IoFileMgrForUser_0013.o)
 .rodata.sceNid
                0x0000000008a28bac        0x4 c:/pspsdk/psp/sdk/lib\libpspuser.a(IoFileMgrForUser_0015.o)
 .rodata.sceNid
                0x0000000008a28bb0        0x4 c:/pspsdk/psp/sdk/lib\libpspuser.a(IoFileMgrForUser_0017.o)
 .rodata.sceNid
                0x0000000008a28bb4        0x4 c:/pspsdk/psp/sdk/lib\libpspuser.a(IoFileMgrForUser_0021.o)
 .rodata.sceNid
                0x0000000008a28bb8        0x4 c:/pspsdk/psp/sdk/lib\libpspuser.a(IoFileMgrForUser_0022.o)
 .rodata.sceNid
                0x0000000008a28bbc        0x4 c:/pspsdk/psp/sdk/lib\libpspuser.a(IoFileMgrForUser_0023.o)
 .rodata.sceNid
                0x0000000008a28bc0        0x4 c:/pspsdk/psp/sdk/lib\libpspuser.a(IoFileMgrForUser_0024.o)
 .rodata.sceNid
                0x0000000008a28bc4        0x4 c:/pspsdk/psp/sdk/lib\libpspuser.a(IoFileMgrForUser_0025.o)
 .rodata.sceNid
                0x0000000008a28bc8        0x4 c:/pspsdk/psp/sdk/lib\libpspuser.a(IoFileMgrForUser_0027.o)
 .rodata.sceNid
                0x0000000008a28bcc        0x4 c:/pspsdk/psp/sdk/lib\libpspuser.a(IoFileMgrForUser_0029.o)
 .rodata.sceNid
                0x0000000008a28bd0        0x4 c:/pspsdk/psp/sdk/lib\libpspuser.a(IoFileMgrForUser_0032.o)
 .rodata.sceNid
                0x0000000008a28bd4        0x4 c:/pspsdk/psp/sdk/lib\libpspuser.a(ModuleMgrForUser_0002.o)
 .rodata.sceNid
                0x0000000008a28bd8        0x4 c:/pspsdk/psp/sdk/lib\libpspuser.a(ModuleMgrForUser_0005.o)
 .rodata.sceNid
                0x0000000008a28bdc        0x4 c:/pspsdk/psp/sdk/lib\libpspuser.a(ModuleMgrForUser_0006.o)
 .rodata.sceNid
                0x0000000008a28be0        0x4 c:/pspsdk/psp/sdk/lib\libpspuser.a(ModuleMgrForUser_0007.o)
 .rodata.sceNid
                0x0000000008a28be4        0x4 c:/pspsdk/psp/sdk/lib\libpspuser.a(ModuleMgrForUser_0008.o)
 .rodata.sceNid
                0x0000000008a28be8        0x4 c:/pspsdk/psp/sdk/lib\libpspuser.a(StdioForUser_0007.o)
 .rodata.sceNid
                0x0000000008a28bec        0x4 c:/pspsdk/psp/sdk/lib\libpspuser.a(StdioForUser_0008.o)
 .rodata.sceNid
                0x0000000008a28bf0        0x4 c:/pspsdk/psp/sdk/lib\libpspuser.a(StdioForUser_0009.o)
 .rodata.sceNid
                0x0000000008a28bf4        0x4 c:/pspsdk/psp/sdk/lib\libpspuser.a(SysMemUserForUser_0001.o)
 .rodata.sceNid
                0x0000000008a28bf8        0x4 c:/pspsdk/psp/sdk/lib\libpspuser.a(SysMemUserForUser_0003.o)
 .rodata.sceNid
                0x0000000008a28bfc        0x4 c:/pspsdk/psp/sdk/lib\libpspuser.a(SysMemUserForUser_0004.o)
 .rodata.sceNid
                0x0000000008a28c00        0x4 c:/pspsdk/psp/sdk/lib\libpspuser.a(SysMemUserForUser_0005.o)
 .rodata.sceNid
                0x0000000008a28c04        0x4 c:/pspsdk/psp/sdk/lib\libpspuser.a(ThreadManForUser_0005.o)
 .rodata.sceNid
                0x0000000008a28c08        0x4 c:/pspsdk/psp/sdk/lib\libpspuser.a(ThreadManForUser_0007.o)
 .rodata.sceNid
                0x0000000008a28c0c        0x4 c:/pspsdk/psp/sdk/lib\libpspuser.a(ThreadManForUser_0013.o)
 .rodata.sceNid
                0x0000000008a28c10        0x4 c:/pspsdk/psp/sdk/lib\libpspuser.a(ThreadManForUser_0018.o)
 .rodata.sceNid
                0x0000000008a28c14        0x4 c:/pspsdk/psp/sdk/lib\libpspuser.a(ThreadManForUser_0020.o)
 .rodata.sceNid
                0x0000000008a28c18        0x4 c:/pspsdk/psp/sdk/lib\libpspuser.a(ThreadManForUser_0032.o)
 .rodata.sceNid
                0x0000000008a28c1c        0x4 c:/pspsdk/psp/sdk/lib\libpspuser.a(ThreadManForUser_0033.o)
 .rodata.sceNid
                0x0000000008a28c20        0x4 c:/pspsdk/psp/sdk/lib\libpspuser.a(ThreadManForUser_0034.o)
 .rodata.sceNid
                0x0000000008a28c24        0x4 c:/pspsdk/psp/sdk/lib\libpspuser.a(ThreadManForUser_0049.o)
 .rodata.sceNid
                0x0000000008a28c28        0x4 c:/pspsdk/psp/sdk/lib\libpspuser.a(ThreadManForUser_0050.o)
 .rodata.sceNid
                0x0000000008a28c2c        0x4 c:/pspsdk/psp/sdk/lib\libpspuser.a(ThreadManForUser_0051.o)
 .rodata.sceNid
                0x0000000008a28c30        0x4 c:/pspsdk/psp/sdk/lib\libpspuser.a(ThreadManForUser_0053.o)
 .rodata.sceNid
                0x0000000008a28c34        0x4 c:/pspsdk/psp/sdk/lib\libpspuser.a(ThreadManForUser_0054.o)
 .rodata.sceNid
                0x0000000008a28c38        0x4 c:/pspsdk/psp/sdk/lib\libpspuser.a(ThreadManForUser_0056.o)
 .rodata.sceNid
                0x0000000008a28c3c        0x4 c:/pspsdk/psp/sdk/lib\libpspuser.a(ThreadManForUser_0058.o)
 .rodata.sceNid
                0x0000000008a28c40        0x4 c:/pspsdk/psp/sdk/lib\libpspuser.a(ThreadManForUser_0101.o)
 .rodata.sceNid
                0x0000000008a28c44        0x4 c:/pspsdk/psp/sdk/lib\libpspuser.a(ThreadManForUser_0102.o)
 .rodata.sceNid
                0x0000000008a28c48        0x4 c:/pspsdk/psp/sdk/lib\libpspuser.a(ThreadManForUser_0103.o)
 .rodata.sceNid
                0x0000000008a28c4c        0x4 c:/pspsdk/psp/sdk/lib\libpspuser.a(ThreadManForUser_0105.o)
 .rodata.sceNid
                0x0000000008a28c50        0x4 c:/pspsdk/psp/sdk/lib\libpspuser.a(ThreadManForUser_0106.o)
 .rodata.sceNid
                0x0000000008a28c54        0x4 c:/pspsdk/psp/sdk/lib\libpspuser.a(UtilsForUser_0014.o)
 .rodata.sceNid
                0x0000000008a28c58        0x4 c:/pspsdk/psp/sdk/lib\libpspuser.a(UtilsForUser_0015.o)
 .rodata.sceNid
                0x0000000008a28c5c        0x4 c:/pspsdk/psp/sdk/lib\libpspuser.a(UtilsForUser_0016.o)
 .rodata.sceNid
                0x0000000008a28c60        0x4 c:/pspsdk/psp/sdk/lib\libpspuser.a(UtilsForUser_0017.o)
 .rodata.sceNid
                0x0000000008a28c64        0x4 c:/pspsdk/psp/sdk/lib\libpspuser.a(UtilsForUser_0018.o)
 .rodata.sceNid
                0x0000000008a28c68        0x4 c:/pspsdk/psp/sdk/lib\libpspuser.a(UtilsForUser_0019.o)
 .rodata.sceNid
                0x0000000008a28c6c        0x4 c:/pspsdk/psp/sdk/lib\libpspuser.a(UtilsForUser_0020.o)
 .rodata.sceNid
                0x0000000008a28c70        0x4 c:/pspsdk/psp/sdk/lib\libpspuser.a(InterruptManager_0001.o)
 .rodata.sceNid
                0x0000000008a28c74        0x4 c:/pspsdk/psp/sdk/lib\libpspuser.a(InterruptManager_0003.o)
 .rodata.sceNid
                0x0000000008a28c78        0x4 c:/pspsdk/psp/sdk/lib\libpspuser.a(LoadExecForUser_0003.o)
 .rodata.sceNid
                0x0000000008a28c7c        0x4 c:/pspsdk/psp/sdk/lib\libpspuser.a(LoadExecForUser_0004.o)

.rodata.sceVstub
 *(.rodata.sceVstub)
 *(SORT(.rodata.sceVstub.*))

.rodata         0x0000000008a28c80    0x178ac
 *(.rodata .rodata.* .gnu.linkonce.r.*)
 .rodata.str1.4
                0x0000000008a28c80        0xa c:/pspsdk/bin/../lib/gcc/psp/4.3.5/../../../../psp/lib/crt0.o
                                          0xc (size before relaxing)
 *fill*         0x0000000008a28c8a        0x2 00
 .rodata        0x0000000008a28c8c      0x500 gbcore/apu.o
 .rodata        0x0000000008a2918c      0xf34 gbcore/cpu.o
 .rodata.str1.4
                0x0000000008a2a0c0        0x7 gbcore/cpu.o
                                          0x8 (size before relaxing)
 *fill*         0x0000000008a2a0c7        0x1 00
 .rodata.str1.4
                0x0000000008a2a0c8       0x13 gbcore/gb.o
                                         0x14 (size before relaxing)
 *fill*         0x0000000008a2a0db        0x1 00
 .rodata        0x0000000008a2a0dc      0x230 gbcore/lcd.o
                0x0000000008a2a0dc                defaultPalCache
 .rodata        0x0000000008a2a30c       0x50 gbcore/mbc.o
 .rodata        0x0000000008a2a35c       0xc8 gbcore/rom.o
 .rodata        0x0000000008a2a424      0x164 gbcore/sgb.o
                0x0000000008a2a484                CYCLES_SGB_TIMEOUT
                0x0000000008a2a488                tile_signed_trans
 .rodata        0x0000000008a2a588     0x3400 cpu/z80.o
 .rodata        0x0000000008a2d988       0x34 pio.o
 .rodata        0x0000000008a2d9bc       0x40 render.o
 .rodata        0x0000000008a2d9fc        0xc system.o
 .rodata        0x0000000008a2da08       0x80 sound/sn76489.o
 .rodata.cst4   0x0000000008a2da88        0x8 sound/sn76489.o
 .rodata        0x0000000008a2da90      0x458 sound/emu2413.o
 .rodata.cst8   0x0000000008a2dee8       0xa8 sound/emu2413.o
 .rodata        0x0000000008a2df90      0x56c sound/ym2413.o
 *fill*         0x0000000008a2e4fc        0x4 00
 .rodata.cst8   0x0000000008a2e500       0x60 sound/ym2413.o
                                         0x78 (size before relaxing)
 .rodata        0x0000000008a2e560       0x3c psp/gameboy_render.o
 .rodata        0x0000000008a2e59c       0x54 psp/VideoGu.o
 .rodata.str1.4
                0x0000000008a2e5f0       0x16 psp/VideoGu.o
                                         0x18 (size before relaxing)
 *fill*         0x0000000008a2e606        0x2 00
 .rodata.cst4   0x0000000008a2e608        0x4 psp/VideoGu.o
 .rodata.str1.4
                0x0000000008a2e60c        0xc psp/PspSound.o
 .rodata.str1.4
                0x0000000008a2e618       0x69 psp/SMS.o
                                         0x6c (size before relaxing)
 *fill*         0x0000000008a2e681        0x3 00
 .rodata.cst4   0x0000000008a2e684        0xc psp/SMS.o
 .rodata.cst8   0x0000000008a2e690        0x8 psp/SMS.o
 .rodata.str1.4
                0x0000000008a2e698     0x1f76 psp/menuplus.o
                                       0x1ff4 (size before relaxing)
 *fill*         0x0000000008a3060e        0x2 00
 .rodata        0x0000000008a30610       0xa0 psp/menuplus.o
 .rodata.cst4   0x0000000008a306b0       0x74 psp/menuplus.o
                                         0x7c (size before relaxing)
 .rodata.str1.4
                0x0000000008a30724      0x337 psp/menuplus2.o
                                        0x380 (size before relaxing)
 *fill*         0x0000000008a30a5b        0x1 00
 .rodata.str1.4
                0x0000000008a30a5c      0x4fe psp/config.o
                                        0x554 (size before relaxing)
 *fill*         0x0000000008a30f5a        0x2 00
 .rodata        0x0000000008a30f5c      0x4d8 psp/config.o
                0x0000000008a30fcc                objVideo
                0x0000000008a3116c                objCtrl
                0x0000000008a3131c                objets
                0x0000000008a311cc                objMenu
                0x0000000008a3112c                objCtrlAnalog
                0x0000000008a312bc                objColorIt
                0x0000000008a310cc                objSound
                0x0000000008a311ac                objMisc
                0x0000000008a3128c                objGameBoy
                0x0000000008a3124c                objMusic
                0x0000000008a30f8c                objFile
 .rodata.str1.4
                0x0000000008a31434      0x141 psp/sound.o
                                        0x164 (size before relaxing)
 *fill*         0x0000000008a31575        0x3 00
 .rodata.str1.4
                0x0000000008a31578       0x38 fileio.o
 .rodata        0x0000000008a315b0       0x1c fileio.o
 .rodata        0x0000000008a315cc        0x8 state.o
 .rodata.str1.4
                0x0000000008a315d4      0x1e1 loadrom.o
                                        0x210 (size before relaxing)
 *fill*         0x0000000008a317b5        0x3 00
 .rodata        0x0000000008a317b8       0x10 loadrom.o
 .rodata.str1.4
                0x0000000008a317c8        0x7 unzip/ioapi.o
                                          0xc (size before relaxing)
 *fill*         0x0000000008a317cf        0x1 00
 .rodata.str1.4
                0x0000000008a317d0        0x6 unzip/unzip.o
                                          0x8 (size before relaxing)
 *fill*         0x0000000008a317d6        0x2 00
 .rodata        0x0000000008a317d8       0x54 unzip/unzip.o
                0x0000000008a317d8                unz_copyright
 .rodata.str1.4
                0x0000000008a3182c      0x154 psp/gym/gym.o
 .rodata._ZTVN9CODEC_GYM9input_gymE
                0x0000000008a31980       0x20 psp/gym/gym.o
                0x0000000008a31980                vtable for CODEC_GYM::input_gym
 .rodata        0x0000000008a319a0       0x20 psp/gym/gym.o
 .rodata.cst4   0x0000000008a319c0        0xc psp/gym/gym.o
                                         0x10 (size before relaxing)
 *fill*         0x0000000008a319cc        0x4 00
 .rodata.cst8   0x0000000008a319d0       0x10 psp/gym/gym.o
 .rodata.cst8   0x0000000008a319e0        0x0 psp/gym/gym_play.o
                                          0x8 (size before relaxing)
 .rodata.cst8   0x0000000008a319e0       0x10 psp/gym/psg.o
                                         0x28 (size before relaxing)
 .rodata        0x0000000008a319f0      0x2ec psp/gym/ym2612.o
                0x0000000008a31a6c                DT_DEF_TAB
                0x0000000008a31cbc                LFO_FMS_TAB
                0x0000000008a31cac                LFO_AMS_TAB
                0x0000000008a31c6c                FKEY_TAB
 *fill*         0x0000000008a31cdc        0x4 00
 .rodata.cst8   0x0000000008a31ce0       0x98 psp/gym/ym2612.o
                                         0xe0 (size before relaxing)
 .rodata.str1.4
                0x0000000008a31d78      0x14e psp/gym/bzlib/blocksort.o
                                        0x150 (size before relaxing)
 *fill*         0x0000000008a31ec6        0x2 00
 .rodata        0x0000000008a31ec8       0x38 psp/gym/bzlib/blocksort.o
 .rodata.str1.4
                0x0000000008a31f00      0x6c8 psp/gym/bzlib/bzlib.o
                                        0x6d0 (size before relaxing)
 .rodata        0x0000000008a325c8       0x4c psp/gym/bzlib/bzlib.o
 .rodata.str1.4
                0x0000000008a32614      0x156 psp/gym/bzlib/compress.o
                                        0x158 (size before relaxing)
 *fill*         0x0000000008a3276a        0x6 00
 .rodata.cst8   0x0000000008a32770        0x8 psp/gym/bzlib/compress.o
 .rodata.str1.4
                0x0000000008a32778       0x1b psp/gym/bzlib/decompress.o
                                         0x1c (size before relaxing)
 *fill*         0x0000000008a32793        0x1 00
 .rodata        0x0000000008a32794       0xa4 psp/gym/bzlib/decompress.o
 .rodata        0x0000000008a32838      0x128 psp/vgm/mame_fm.o
 .rodata.str1.4
                0x0000000008a32960       0x1f psp/vgm/mame_fm.o
                                         0x20 (size before relaxing)
 *fill*         0x0000000008a3297f        0x1 00
 .rodata.cst8   0x0000000008a32980       0x28 psp/vgm/mame_fm.o
                                         0x98 (size before relaxing)
 .rodata        0x0000000008a329a8      0x138 psp/vgm/emu2413.o
 .rodata.cst8   0x0000000008a32ae0       0x50 psp/vgm/emu2413.o
                                         0xd8 (size before relaxing)
 .rodata        0x0000000008a32b30       0x80 psp/vgm/sn76489.o
 .rodata.cst4   0x0000000008a32bb0        0x4 psp/vgm/sn76489.o
                                          0x8 (size before relaxing)
 .rodata        0x0000000008a32bb4      0x71c psp/vgm/mame_ym2151.o
 .rodata.cst8   0x0000000008a332d0       0x18 psp/vgm/mame_ym2151.o
                                         0x98 (size before relaxing)
 .rodata.str1.4
                0x0000000008a332e8       0x5f psp/vgm/In_vgm.o
                                         0xc4 (size before relaxing)
 *fill*         0x0000000008a33347        0x1 00
 .rodata        0x0000000008a33348      0x248 psp/vgm/In_vgm.o
 .rodata.cst8   0x0000000008a33590       0x20 psp/vgm/In_vgm.o
                                         0x30 (size before relaxing)
 .rodata.cst4   0x0000000008a335b0        0x0 psp/vgm/In_vgm.o
                                          0x4 (size before relaxing)
 .rodata.str1.4
                0x0000000008a335b0        0x4 psp/gz.o
                                          0xc (size before relaxing)
 .rodata        0x0000000008a335b4        0xc psp/gz.o
 .rodata.str1.4
                0x0000000008a335c0        0x0 psp/VirtualGz.o
                                          0x8 (size before relaxing)
 .rodata.str1.4
                0x0000000008a335c0       0x9a psp/deflate.o
                                         0x9c (size before relaxing)
 *fill*         0x0000000008a3365a        0x2 00
 .rodata        0x0000000008a3365c       0xb0 psp/deflate.o
                0x0000000008a3365c                deflate_copyright
 .rodata.str1.4
                0x0000000008a3370c       0x2c psp/gzio.o
                                         0x30 (size before relaxing)
 .rodata.str1.4
                0x0000000008a33738        0xc error.o
 .rodata.str1.4
                0x0000000008a33744       0x4c c:/pspsdk/bin/../lib/gcc/psp/4.3.5/../../../../psp/lib\libosl.a(oslib.o)
 .rodata.cst4   0x0000000008a33790        0x4 c:/pspsdk/bin/../lib/gcc/psp/4.3.5/../../../../psp/lib\libosl.a(oslib.o)
 .rodata        0x0000000008a33794       0x20 c:/pspsdk/bin/../lib/gcc/psp/4.3.5/../../../../psp/lib\libosl.a(drawing.o)
                0x0000000008a33794                osl_pixelWidth
                0x0000000008a337ac                osl_paletteSizes
 .rodata.cst4   0x0000000008a337b4        0x8 c:/pspsdk/bin/../lib/gcc/psp/4.3.5/../../../../psp/lib\libosl.a(drawing.o)
 .rodata.str1.4
                0x0000000008a337bc       0x46 c:/pspsdk/bin/../lib/gcc/psp/4.3.5/../../../../psp/lib\libosl.a(image.o)
                                         0x54 (size before relaxing)
 *fill*         0x0000000008a33802        0x2 00
 .rodata.str1.4
                0x0000000008a33804       0x2c c:/pspsdk/bin/../lib/gcc/psp/4.3.5/../../../../psp/lib\libosl.a(messagebox.o)
                                         0x30 (size before relaxing)
 .rodata        0x0000000008a33830       0x30 c:/pspsdk/bin/../lib/gcc/psp/4.3.5/../../../../psp/lib\libosl.a(messagebox.o)
 .rodata.cst4   0x0000000008a33860        0x4 c:/pspsdk/bin/../lib/gcc/psp/4.3.5/../../../../psp/lib\libosl.a(vfpu.o)
 .rodata.str1.4
                0x0000000008a33864       0x2c c:/pspsdk/bin/../lib/gcc/psp/4.3.5/../../../../psp/lib\libosl.a(text.o)
                                         0x30 (size before relaxing)
 .rodata        0x0000000008a33890      0x80c c:/pspsdk/bin/../lib/gcc/psp/4.3.5/../../../../psp/lib\libosl.a(text.o)
                0x0000000008a33890                osl_sceFont_data
 .rodata.cst4   0x0000000008a3409c        0x0 c:/pspsdk/bin/../lib/gcc/psp/4.3.5/../../../../psp/lib\libosl.a(text.o)
                                          0x8 (size before relaxing)
 .rodata.cst8   0x0000000008a3409c        0x0 c:/pspsdk/bin/../lib/gcc/psp/4.3.5/../../../../psp/lib\libosl.a(text.o)
                                          0x8 (size before relaxing)
 .rodata.str1.4
                0x0000000008a3409c       0x4c c:/pspsdk/bin/../lib/gcc/psp/4.3.5/../../../../psp/lib\libosl.a(audio.o)
                                         0x60 (size before relaxing)
 .rodata.str1.4
                0x0000000008a340e8        0xb c:/pspsdk/bin/../lib/gcc/psp/4.3.5/../../../../psp/lib\libosl.a(bgm.o)
                                          0xc (size before relaxing)
 *fill*         0x0000000008a340f3        0x1 00
 .rodata        0x0000000008a340f4       0xc4 c:/pspsdk/bin/../lib/gcc/psp/4.3.5/../../../../psp/lib\libosl.a(bgm.o)
                0x0000000008a340f4                ima_step_table
 .rodata.str1.4
                0x0000000008a341b8       0xf7 c:/pspsdk/bin/../lib/gcc/psp/4.3.5/../../../../psp/lib\libosl.a(usb.o)
                                         0xf8 (size before relaxing)
 *fill*         0x0000000008a342af        0x1 00
 .rodata.str1.4
                0x0000000008a342b0        0x6 c:/pspsdk/bin/../lib/gcc/psp/4.3.5/../../../../psp/lib\libosl.a(VirtualFile.o)
                                          0x8 (size before relaxing)
 *fill*         0x0000000008a342b6        0x2 00
 .rodata.cst4   0x0000000008a342b8        0xc c:/pspsdk/bin/../lib/gcc/psp/4.3.5/../../../../psp/lib\libosl.a(oslDrawImage.o)
                                         0x10 (size before relaxing)
 .rodata.str1.4
                0x0000000008a342c4       0x49 c:/pspsdk/bin/../lib/gcc/psp/4.3.5/../../../../psp/lib\libosl.a(oslSwizzleImage.o)
                                         0x58 (size before relaxing)
 *fill*         0x0000000008a3430d        0x3 00
 .rodata.str1.4
                0x0000000008a34310        0x6 c:/pspsdk/bin/../lib/gcc/psp/4.3.5/../../../../psp/lib\libosl.a(oslWriteImageFilePNG.o)
                                          0x8 (size before relaxing)
 *fill*         0x0000000008a34316        0x2 00
 .rodata.str1.4
                0x0000000008a34318        0xd c:/pspsdk/bin/../lib/gcc/psp/4.3.5/../../../../psp/lib\libosl.a(oslLoadImageFile.o)
                                         0x18 (size before relaxing)
 *fill*         0x0000000008a34325        0x3 00
 .rodata.str1.4
                0x0000000008a34328        0x5 c:/pspsdk/bin/../lib/gcc/psp/4.3.5/../../../../psp/lib\libosl.a(intraFont.o)
                                          0xc (size before relaxing)
 *fill*         0x0000000008a3432d        0x3 00
 .rodata        0x0000000008a34330      0x2bc c:/pspsdk/bin/../lib/gcc/psp/4.3.5/../../../../psp/lib\libosl.a(intraFont.o)
 .rodata.cst4   0x0000000008a345ec       0x20 c:/pspsdk/bin/../lib/gcc/psp/4.3.5/../../../../psp/lib\libosl.a(intraFont.o)
                                         0x38 (size before relaxing)
 *fill*         0x0000000008a3460c        0x4 00
 .rodata.cst8   0x0000000008a34610        0x8 c:/pspsdk/bin/../lib/gcc/psp/4.3.5/../../../../psp/lib\libosl.a(intraFont.o)
                                         0x10 (size before relaxing)
 .rodata.str1.4
                0x0000000008a34618       0x1a c:/pspsdk/bin/../lib/gcc/psp/4.3.5/../../../../psp/lib\libosl.a(libccc.o)
                                         0x1c (size before relaxing)
 *fill*         0x0000000008a34632        0x2 00
 .rodata.str1.4
                0x0000000008a34634       0x6e c:/pspsdk/bin/../lib/gcc/psp/4.3.5/../../../../psp/lib\libosl.a(oslHandleLoadNoFailError.o)
                                         0x7c (size before relaxing)
 .rodata.str1.4
                0x0000000008a346a2        0x0 c:/pspsdk/bin/../lib/gcc/psp/4.3.5/../../../../psp/lib\libosl.a(oslLoadImageFilePNG.o)
                                          0x8 (size before relaxing)
 *fill*         0x0000000008a346a2        0x2 00
 .rodata        0x0000000008a346a4       0x1c c:/pspsdk/bin/../lib/gcc/psp/4.3.5/../../../../psp/lib\libosl.a(oslLoadImageFilePNG.o)
 .rodata.str1.4
                0x0000000008a346c0        0x0 c:/pspsdk/bin/../lib/gcc/psp/4.3.5/../../../../psp/lib\libosl.a(oslLoadImageFileJPG.o)
                                          0x4 (size before relaxing)
 .rodata        0x0000000008a346c0       0x10 c:/pspsdk/bin/../lib/gcc/psp/4.3.5/../../../../psp/lib\libosl.a(oslLoadImageFileGIF.o)
                0x0000000008a346c8                InterlacedJumps
                0x0000000008a346c0                InterlacedOffset
 .rodata        0x0000000008a346d0       0x18 c:/pspsdk/bin/../lib/gcc/psp/4.3.5/../../../../psp/lib\libosl.a(oslSetImagePixel.o)
 .rodata        0x0000000008a346e8       0x18 c:/pspsdk/bin/../lib/gcc/psp/4.3.5/../../../../psp/lib\libosl.a(oslGetImagePixel.o)
 .rodata        0x0000000008a34700       0x1c c:/pspsdk/bin/../lib/gcc/psp/4.3.5/../../../../psp/lib\libosl.a(dgif_lib.o)
 .rodata.str1.4
                0x0000000008a3471c      0x18a c:/pspsdk/bin/../lib/gcc/psp/4.3.5/../../../../psp/lib\libpng.a(png.o)
                                        0x198 (size before relaxing)
 *fill*         0x0000000008a348a6        0x2 00
 .rodata        0x0000000008a348a8      0x1a4 c:/pspsdk/bin/../lib/gcc/psp/4.3.5/../../../../psp/lib\libpng.a(png.o)
                0x0000000008a3495c                png_tRNS
                0x0000000008a3490c                png_iTXt
                0x0000000008a348d4                png_IEND
                0x0000000008a349a4                png_pass_ystart
                0x0000000008a348fc                png_hIST
                0x0000000008a3496c                png_pass_start
                0x0000000008a349f8                png_pass_dsp_mask
                0x0000000008a348f4                png_gAMA
                0x0000000008a348e4                png_bKGD
                0x0000000008a3493c                png_sPLT
                0x0000000008a34934                png_sBIT
                0x0000000008a34924                png_sCAL
                0x0000000008a348dc                png_PLTE
                0x0000000008a348bc                png_sig
                0x0000000008a34904                png_iCCP
                0x0000000008a34964                png_zTXt
                0x0000000008a349dc                png_pass_mask
                0x0000000008a348c4                png_IHDR
                0x0000000008a34954                png_tIME
                0x0000000008a34988                png_pass_inc
                0x0000000008a348ec                png_cHRM
                0x0000000008a349c0                png_pass_yinc
                0x0000000008a3491c                png_pCAL
                0x0000000008a34944                png_sRGB
                0x0000000008a3494c                png_tEXt
                0x0000000008a3492c                png_pHYs
                0x0000000008a348cc                png_IDAT
                0x0000000008a34914                png_oFFs
                0x0000000008a348a8                png_libpng_ver
 .rodata.str1.4
                0x0000000008a34a4c       0x7e c:/pspsdk/bin/../lib/gcc/psp/4.3.5/../../../../psp/lib\libpng.a(pngerror.o)
                                         0x80 (size before relaxing)
 *fill*         0x0000000008a34aca        0x2 00
 .rodata        0x0000000008a34acc       0x10 c:/pspsdk/bin/../lib/gcc/psp/4.3.5/../../../../psp/lib\libpng.a(pngerror.o)
 .rodata.str1.4
                0x0000000008a34adc        0xf c:/pspsdk/bin/../lib/gcc/psp/4.3.5/../../../../psp/lib\libpng.a(pngmem.o)
                                         0x10 (size before relaxing)
 *fill*         0x0000000008a34aeb        0x1 00
 .rodata.str1.4
                0x0000000008a34aec      0x353 c:/pspsdk/bin/../lib/gcc/psp/4.3.5/../../../../psp/lib\libpng.a(pngread.o)
                                        0x35c (size before relaxing)
 *fill*         0x0000000008a34e3f        0x1 00
 .rodata        0x0000000008a34e40       0x1c c:/pspsdk/bin/../lib/gcc/psp/4.3.5/../../../../psp/lib\libpng.a(pngread.o)
 .rodata.str1.4
                0x0000000008a34e5c       0x9f c:/pspsdk/bin/../lib/gcc/psp/4.3.5/../../../../psp/lib\libpng.a(pngrio.o)
                                         0xa0 (size before relaxing)
 *fill*         0x0000000008a34efb        0x1 00
 .rodata        0x0000000008a34efc       0xa8 c:/pspsdk/bin/../lib/gcc/psp/4.3.5/../../../../psp/lib\libpng.a(pngrtran.o)
 .rodata.str1.4
                0x0000000008a34fa4      0x102 c:/pspsdk/bin/../lib/gcc/psp/4.3.5/../../../../psp/lib\libpng.a(pngrtran.o)
                                        0x104 (size before relaxing)
 *fill*         0x0000000008a350a6        0x2 00
 .rodata.cst8   0x0000000008a350a8       0x20 c:/pspsdk/bin/../lib/gcc/psp/4.3.5/../../../../psp/lib\libpng.a(pngrtran.o)
                                         0x40 (size before relaxing)
 .rodata.str1.4
                0x0000000008a350c8      0xee7 c:/pspsdk/bin/../lib/gcc/psp/4.3.5/../../../../psp/lib\libpng.a(pngrutil.o)
                                        0xf18 (size before relaxing)
 *fill*         0x0000000008a35faf        0x1 00
 .rodata        0x0000000008a35fb0       0x30 c:/pspsdk/bin/../lib/gcc/psp/4.3.5/../../../../psp/lib\libpng.a(pngrutil.o)
 .rodata.cst4   0x0000000008a35fe0        0x4 c:/pspsdk/bin/../lib/gcc/psp/4.3.5/../../../../psp/lib\libpng.a(pngrutil.o)
 .rodata.str1.4
                0x0000000008a35fe4      0x48a c:/pspsdk/bin/../lib/gcc/psp/4.3.5/../../../../psp/lib\libpng.a(pngset.o)
                                        0x48c (size before relaxing)
 *fill*         0x0000000008a3646e        0x2 00
 .rodata.cst8   0x0000000008a36470       0x50 c:/pspsdk/bin/../lib/gcc/psp/4.3.5/../../../../psp/lib\libpng.a(pngset.o)
                                         0x68 (size before relaxing)
 .rodata.cst4   0x0000000008a364c0        0x4 c:/pspsdk/bin/../lib/gcc/psp/4.3.5/../../../../psp/lib\libpng.a(pngset.o)
 .rodata.str1.4
                0x0000000008a364c4       0x98 c:/pspsdk/bin/../lib/gcc/psp/4.3.5/../../../../psp/lib\libpng.a(pngwio.o)
 .rodata.str1.4
                0x0000000008a3655c      0x314 c:/pspsdk/bin/../lib/gcc/psp/4.3.5/../../../../psp/lib\libpng.a(pngwrite.o)
                                        0x410 (size before relaxing)
 .rodata        0x0000000008a36870       0x3c c:/pspsdk/bin/../lib/gcc/psp/4.3.5/../../../../psp/lib\libpng.a(pngwrite.o)
 .rodata.cst8   0x0000000008a368ac        0x0 c:/pspsdk/bin/../lib/gcc/psp/4.3.5/../../../../psp/lib\libpng.a(pngwrite.o)
                                         0x20 (size before relaxing)
 .rodata.str1.4
                0x0000000008a368ac      0x785 c:/pspsdk/bin/../lib/gcc/psp/4.3.5/../../../../psp/lib\libpng.a(pngwutil.o)
                                        0x7c8 (size before relaxing)
 *fill*         0x0000000008a37031        0x3 00
 .rodata        0x0000000008a37034       0x24 c:/pspsdk/bin/../lib/gcc/psp/4.3.5/../../../../psp/lib\libpng.a(pngwutil.o)
 .rodata.cst8   0x0000000008a37058        0x8 c:/pspsdk/bin/../lib/gcc/psp/4.3.5/../../../../psp/lib\libpng.a(pngwutil.o)
                                         0x20 (size before relaxing)
 .rodata.str1.4
                0x0000000008a37060       0x86 c:/pspsdk/bin/../lib/gcc/psp/4.3.5/../../../../psp/lib\libpng.a(pngget.o)
                                         0x88 (size before relaxing)
 *fill*         0x0000000008a370e6        0x2 00
 .rodata.str1.4
                0x0000000008a370e8        0x6 c:/pspsdk/bin/../lib/gcc/psp/4.3.5/../../../../psp/lib\libz.a(compress.o)
                                          0x8 (size before relaxing)
 *fill*         0x0000000008a370ee        0x2 00
 .rodata        0x0000000008a370f0     0x2000 c:/pspsdk/bin/../lib/gcc/psp/4.3.5/../../../../psp/lib\libz.a(crc32.o)
 .rodata.str1.4
                0x0000000008a390f0      0x1e7 c:/pspsdk/bin/../lib/gcc/psp/4.3.5/../../../../psp/lib\libz.a(inflate.o)
                                        0x1e8 (size before relaxing)
 *fill*         0x0000000008a392d7        0x1 00
 .rodata        0x0000000008a392d8      0x924 c:/pspsdk/bin/../lib/gcc/psp/4.3.5/../../../../psp/lib\libz.a(inflate.o)
 .rodata        0x0000000008a39bfc      0x130 c:/pspsdk/bin/../lib/gcc/psp/4.3.5/../../../../psp/lib\libz.a(inftrees.o)
                0x0000000008a39bfc                inflate_copyright
 .rodata        0x0000000008a39d2c      0xa30 c:/pspsdk/bin/../lib/gcc/psp/4.3.5/../../../../psp/lib\libz.a(trees.o)
                0x0000000008a39f2c                _length_code
                0x0000000008a39d2c                _dist_code
 .rodata.str1.4
                0x0000000008a3a75c        0x0 c:/pspsdk/bin/../lib/gcc/psp/4.3.5/../../../../psp/lib\libz.a(uncompr.o)
                                          0x8 (size before relaxing)
 .rodata.str1.4
                0x0000000008a3a75c       0x7d c:/pspsdk/bin/../lib/gcc/psp/4.3.5/../../../../psp/lib\libz.a(zutil.o)
                                         0x8c (size before relaxing)
 *fill*         0x0000000008a3a7d9        0x3 00
 .rodata        0x0000000008a3a7dc       0x28 c:/pspsdk/bin/../lib/gcc/psp/4.3.5/../../../../psp/lib\libz.a(zutil.o)
                0x0000000008a3a7dc                z_errmsg
 .rodata.str1.4
                0x0000000008a3a804        0x0 c:/pspsdk/bin/../lib/gcc/psp/4.3.5/../../../../psp/lib\libz.a(inffast.o)
                                         0x54 (size before relaxing)
 .rodata        0x0000000008a3a804       0x2c c:/pspsdk/bin/../lib/gcc/psp/4.3.5/../../../../psp/lib\libjpeg.a(jdapimin.o)
 .rodata.cst8   0x0000000008a3a830        0x0 c:/pspsdk/bin/../lib/gcc/psp/4.3.5/../../../../psp/lib\libjpeg.a(jdapimin.o)
                                          0x8 (size before relaxing)
 .rodata        0x0000000008a3a830       0x18 c:/pspsdk/bin/../lib/gcc/psp/4.3.5/../../../../psp/lib\libjpeg.a(jdmaster.o)
 .rodata        0x0000000008a3a848       0xb8 c:/pspsdk/bin/../lib/gcc/psp/4.3.5/../../../../psp/lib\libjpeg.a(jdmarker.o)
 .rodata        0x0000000008a3a900      0x430 c:/pspsdk/bin/../lib/gcc/psp/4.3.5/../../../../psp/lib\libjpeg.a(jdhuff.o)
 .rodata        0x0000000008a3ad30       0xc0 c:/pspsdk/bin/../lib/gcc/psp/4.3.5/../../../../psp/lib\libjpeg.a(jddctmgr.o)
 .rodata.cst8   0x0000000008a3adf0        0x0 c:/pspsdk/bin/../lib/gcc/psp/4.3.5/../../../../psp/lib\libjpeg.a(jddctmgr.o)
                                          0x8 (size before relaxing)
 .rodata.cst4   0x0000000008a3adf0       0x14 c:/pspsdk/bin/../lib/gcc/psp/4.3.5/../../../../psp/lib\libjpeg.a(jidctflt.o)
 .rodata        0x0000000008a3ae04       0x18 c:/pspsdk/bin/../lib/gcc/psp/4.3.5/../../../../psp/lib\libjpeg.a(jdcolor.o)
 .rodata        0x0000000008a3ae1c      0x10c c:/pspsdk/bin/../lib/gcc/psp/4.3.5/../../../../psp/lib\libjpeg.a(jquant1.o)
 .rodata        0x0000000008a3af28      0x4ec c:/pspsdk/bin/../lib/gcc/psp/4.3.5/../../../../psp/lib\libjpeg.a(jutils.o)
                0x0000000008a3b16c                jpeg_natural_order6
                0x0000000008a3b23c                jpeg_natural_order5
                0x0000000008a3b2e0                jpeg_natural_order4
                0x0000000008a3af28                jpeg_natural_order
                0x0000000008a3b360                jpeg_natural_order3
                0x0000000008a3b068                jpeg_natural_order7
                0x0000000008a3b3c4                jpeg_natural_order2
 .rodata.str1.4
                0x0000000008a3b414     0x130f c:/pspsdk/bin/../lib/gcc/psp/4.3.5/../../../../psp/lib\libjpeg.a(jerror.o)
                                       0x1314 (size before relaxing)
 *fill*         0x0000000008a3c723        0x1 00
 .rodata        0x0000000008a3c724      0x200 c:/pspsdk/bin/../lib/gcc/psp/4.3.5/../../../../psp/lib\libjpeg.a(jerror.o)
                0x0000000008a3c724                jpeg_std_message_table
 .rodata.str1.4
                0x0000000008a3c924        0xe c:/pspsdk/bin/../lib/gcc/psp/4.3.5/../../../../psp/lib\libjpeg.a(jmemmgr.o)
                                         0x10 (size before relaxing)
 *fill*         0x0000000008a3c932        0x2 00
 .rodata        0x0000000008a3c934       0x10 c:/pspsdk/bin/../lib/gcc/psp/4.3.5/../../../../psp/lib\libjpeg.a(jmemmgr.o)
 .rodata        0x0000000008a3c944      0x1c8 c:/pspsdk/bin/../lib/gcc/psp/4.3.5/../../../../psp/lib\libjpeg.a(jaricom.o)
                0x0000000008a3c944                jpeg_aritab
 .rodata.str1.4
                0x0000000008a3cb0c        0x0 c:/pspsdk/psp/sdk/lib\libpspsdk.a(loadmodule.o)
                                          0x4 (size before relaxing)
 .rodata        0x0000000008a3cb0c       0x58 c:/pspsdk/psp/sdk/lib\libpspgu.a(sceGuDisable.o)
 .rodata        0x0000000008a3cb64       0x58 c:/pspsdk/psp/sdk/lib\libpspgu.a(sceGuEnable.o)
 .rodata.str1.4
                0x0000000008a3cbbc        0xc c:/pspsdk/psp/sdk/lib\libpspgu.a(sceGuInit.o)
 .rodata.cst4   0x0000000008a3cbc8        0x0 c:/pspsdk/psp/sdk/lib\libpspgu.a(sceGuStart.o)
                                          0x4 (size before relaxing)
 .rodata        0x0000000008a3cbc8       0x60 c:/pspsdk/psp/sdk/lib\libpspgu.a(sceGuTexImage.o)
 .rodata._ZL28read_encoded_value_with_basehjPKhPj
                0x0000000008a3cc28       0x34 c:/pspsdk/bin/../lib/gcc/psp/4.3.5/../../../../psp/lib\libstdc++.a(eh_personality.o)
 .rodata.str1.4
                0x0000000008a3cc5c        0xf c:/pspsdk/bin/../lib/gcc/psp/4.3.5/../../../../psp/lib\libstdc++.a(new_handler.o)
                                         0x10 (size before relaxing)
 *fill*         0x0000000008a3cc6b        0x1 00
 .rodata._ZSt7nothrow
                0x0000000008a3cc6c        0x4 c:/pspsdk/bin/../lib/gcc/psp/4.3.5/../../../../psp/lib\libstdc++.a(new_handler.o)
                0x0000000008a3cc6c                std::nothrow
 .rodata._ZTVSt9bad_alloc
                0x0000000008a3cc70       0x18 c:/pspsdk/bin/../lib/gcc/psp/4.3.5/../../../../psp/lib\libstdc++.a(new_handler.o)
                0x0000000008a3cc70                vtable for std::bad_alloc
 .rodata._ZTSSt9bad_alloc
                0x0000000008a3cc88       0x10 c:/pspsdk/bin/../lib/gcc/psp/4.3.5/../../../../psp/lib\libstdc++.a(new_handler.o)
                0x0000000008a3cc88                typeinfo name for std::bad_alloc
 .rodata._ZTISt9bad_alloc
                0x0000000008a3cc98        0xc c:/pspsdk/bin/../lib/gcc/psp/4.3.5/../../../../psp/lib\libstdc++.a(new_handler.o)
                0x0000000008a3cc98                typeinfo for std::bad_alloc
 *fill*         0x0000000008a3cca4        0x4 00
 .rodata._ZTVN10__cxxabiv120__si_class_type_infoE
                0x0000000008a3cca8       0x30 c:/pspsdk/bin/../lib/gcc/psp/4.3.5/../../../../psp/lib\libstdc++.a(si_class_type_info.o)
                0x0000000008a3cca8                vtable for __cxxabiv1::__si_class_type_info
 .rodata._ZTSN10__cxxabiv120__si_class_type_infoE
                0x0000000008a3ccd8       0x28 c:/pspsdk/bin/../lib/gcc/psp/4.3.5/../../../../psp/lib\libstdc++.a(si_class_type_info.o)
                0x0000000008a3ccd8                typeinfo name for __cxxabiv1::__si_class_type_info
 .rodata._ZTIN10__cxxabiv120__si_class_type_infoE
                0x0000000008a3cd00        0xc c:/pspsdk/bin/../lib/gcc/psp/4.3.5/../../../../psp/lib\libstdc++.a(si_class_type_info.o)
                0x0000000008a3cd00                typeinfo for __cxxabiv1::__si_class_type_info
 *fill*         0x0000000008a3cd0c        0x4 00
 .rodata._ZTVSt9type_info
                0x0000000008a3cd10       0x20 c:/pspsdk/bin/../lib/gcc/psp/4.3.5/../../../../psp/lib\libstdc++.a(tinfo.o)
                0x0000000008a3cd10                vtable for std::type_info
 .rodata._ZTSSt9type_info
                0x0000000008a3cd30       0x10 c:/pspsdk/bin/../lib/gcc/psp/4.3.5/../../../../psp/lib\libstdc++.a(tinfo.o)
                0x0000000008a3cd30                typeinfo name for std::type_info
 .rodata._ZTISt9type_info
                0x0000000008a3cd40        0x8 c:/pspsdk/bin/../lib/gcc/psp/4.3.5/../../../../psp/lib\libstdc++.a(tinfo.o)
                0x0000000008a3cd40                typeinfo for std::type_info
 .rodata.str1.4
                0x0000000008a3cd48       0x92 c:/pspsdk/bin/../lib/gcc/psp/4.3.5/../../../../psp/lib\libstdc++.a(vterminate.o)
                                         0x94 (size before relaxing)
 *fill*         0x0000000008a3cdda        0x6 00
 .rodata._ZTVN10__cxxabiv117__class_type_infoE
                0x0000000008a3cde0       0x30 c:/pspsdk/bin/../lib/gcc/psp/4.3.5/../../../../psp/lib\libstdc++.a(class_type_info.o)
                0x0000000008a3cde0                vtable for __cxxabiv1::__class_type_info
 .rodata._ZTSN10__cxxabiv117__class_type_infoE
                0x0000000008a3ce10       0x24 c:/pspsdk/bin/../lib/gcc/psp/4.3.5/../../../../psp/lib\libstdc++.a(class_type_info.o)
                0x0000000008a3ce10                typeinfo name for __cxxabiv1::__class_type_info
 .rodata._ZTIN10__cxxabiv117__class_type_infoE
                0x0000000008a3ce34        0xc c:/pspsdk/bin/../lib/gcc/psp/4.3.5/../../../../psp/lib\libstdc++.a(class_type_info.o)
                0x0000000008a3ce34                typeinfo for __cxxabiv1::__class_type_info
 .rodata        0x0000000008a3ce40     0x1140 c:/pspsdk/bin/../lib/gcc/psp/4.3.5/../../../../psp/lib\libstdc++.a(cp-demangle.o)
 .rodata.str1.4
                0x0000000008a3df80       0x23 c:/pspsdk/bin/../lib/gcc/psp/4.3.5/../../../../psp/lib\libstdc++.a(eh_exception.o)
                                         0x24 (size before relaxing)
 *fill*         0x0000000008a3dfa3        0x5 00
 .rodata._ZTVN10__cxxabiv119__foreign_exceptionE
                0x0000000008a3dfa8       0x18 c:/pspsdk/bin/../lib/gcc/psp/4.3.5/../../../../psp/lib\libstdc++.a(eh_exception.o)
                0x0000000008a3dfa8                vtable for __cxxabiv1::__foreign_exception
 .rodata._ZTVN10__cxxabiv115__forced_unwindE
                0x0000000008a3dfc0       0x18 c:/pspsdk/bin/../lib/gcc/psp/4.3.5/../../../../psp/lib\libstdc++.a(eh_exception.o)
                0x0000000008a3dfc0                vtable for __cxxabiv1::__forced_unwind
 .rodata._ZTVSt13bad_exception
                0x0000000008a3dfd8       0x18 c:/pspsdk/bin/../lib/gcc/psp/4.3.5/../../../../psp/lib\libstdc++.a(eh_exception.o)
                0x0000000008a3dfd8                vtable for std::bad_exception
 .rodata._ZTVSt9exception
                0x0000000008a3dff0       0x18 c:/pspsdk/bin/../lib/gcc/psp/4.3.5/../../../../psp/lib\libstdc++.a(eh_exception.o)
                0x0000000008a3dff0                vtable for std::exception
 .rodata._ZTSN10__cxxabiv119__foreign_exceptionE
                0x0000000008a3e008       0x24 c:/pspsdk/bin/../lib/gcc/psp/4.3.5/../../../../psp/lib\libstdc++.a(eh_exception.o)
                0x0000000008a3e008                typeinfo name for __cxxabiv1::__foreign_exception
 .rodata._ZTIN10__cxxabiv119__foreign_exceptionE
                0x0000000008a3e02c        0x8 c:/pspsdk/bin/../lib/gcc/psp/4.3.5/../../../../psp/lib\libstdc++.a(eh_exception.o)
                0x0000000008a3e02c                typeinfo for __cxxabiv1::__foreign_exception
 .rodata._ZTSN10__cxxabiv115__forced_unwindE
                0x0000000008a3e034       0x20 c:/pspsdk/bin/../lib/gcc/psp/4.3.5/../../../../psp/lib\libstdc++.a(eh_exception.o)
                0x0000000008a3e034                typeinfo name for __cxxabiv1::__forced_unwind
 .rodata._ZTIN10__cxxabiv115__forced_unwindE
                0x0000000008a3e054        0x8 c:/pspsdk/bin/../lib/gcc/psp/4.3.5/../../../../psp/lib\libstdc++.a(eh_exception.o)
                0x0000000008a3e054                typeinfo for __cxxabiv1::__forced_unwind
 .rodata._ZTSSt13bad_exception
                0x0000000008a3e05c       0x14 c:/pspsdk/bin/../lib/gcc/psp/4.3.5/../../../../psp/lib\libstdc++.a(eh_exception.o)
                0x0000000008a3e05c                typeinfo name for std::bad_exception
 .rodata._ZTISt13bad_exception
                0x0000000008a3e070        0xc c:/pspsdk/bin/../lib/gcc/psp/4.3.5/../../../../psp/lib\libstdc++.a(eh_exception.o)
                0x0000000008a3e070                typeinfo for std::bad_exception
 .rodata._ZTSSt9exception
                0x0000000008a3e07c       0x10 c:/pspsdk/bin/../lib/gcc/psp/4.3.5/../../../../psp/lib\libstdc++.a(eh_exception.o)
                0x0000000008a3e07c                typeinfo name for std::exception
 .rodata._ZTISt9exception
                0x0000000008a3e08c        0x8 c:/pspsdk/bin/../lib/gcc/psp/4.3.5/../../../../psp/lib\libstdc++.a(eh_exception.o)
                0x0000000008a3e08c                typeinfo for std::exception
 .rodata.str1.4
                0x0000000008a3e094       0x1c c:/pspsdk/bin/../lib/gcc/psp/4.3.5/../../../../psp/lib\libstdc++.a(pure.o)
 .rodata.cst8   0x0000000008a3e0b0        0x0 c:/pspsdk/bin/../lib/gcc/psp/4.3.5/../../../../psp/lib\libm.a(lib_a-s_ceil.o)
                                         0x10 (size before relaxing)
 .rodata.cst8   0x0000000008a3e0b0        0x0 c:/pspsdk/bin/../lib/gcc/psp/4.3.5/../../../../psp/lib\libm.a(lib_a-s_floor.o)
                                         0x10 (size before relaxing)
 .rodata.cst8   0x0000000008a3e0b0       0x50 c:/pspsdk/bin/../lib/gcc/psp/4.3.5/../../../../psp/lib\libm.a(lib_a-s_logarithm.o)
                                         0x58 (size before relaxing)
 .rodata        0x0000000008a3e100       0x28 c:/pspsdk/bin/../lib/gcc/psp/4.3.5/../../../../psp/lib\libm.a(lib_a-s_mathcnst.o)
                0x0000000008a3e110                z_hugeval
                0x0000000008a3e118                z_infinity
                0x0000000008a3e104                z_infinity_f
                0x0000000008a3e120                z_notanum
                0x0000000008a3e100                z_hugeval_f
                0x0000000008a3e108                z_notanum_f
 .rodata.cst8   0x0000000008a3e128        0x8 c:/pspsdk/bin/../lib/gcc/psp/4.3.5/../../../../psp/lib\libm.a(lib_a-s_pow.o)
                                         0x10 (size before relaxing)
 .rodata.cst8   0x0000000008a3e130       0x48 c:/pspsdk/bin/../lib/gcc/psp/4.3.5/../../../../psp/lib\libm.a(lib_a-s_sine.o)
                                         0x60 (size before relaxing)
 .rodata.cst8   0x0000000008a3e178       0x10 c:/pspsdk/bin/../lib/gcc/psp/4.3.5/../../../../psp/lib\libm.a(lib_a-s_sqrt.o)
                                         0x20 (size before relaxing)
 .rodata.cst8   0x0000000008a3e188       0x38 c:/pspsdk/bin/../lib/gcc/psp/4.3.5/../../../../psp/lib\libm.a(lib_a-s_exp.o)
                                         0x50 (size before relaxing)
 .rodata        0x0000000008a3e1c0      0x104 c:/pspsdk/bin/../lib/gcc/psp/4.3.5/../../../../psp/lib\libc.a(lib_a-ctype_.o)
                0x0000000008a3e1c0                _ctype_
 .rodata.str1.4
                0x0000000008a3e2c4        0x2 c:/pspsdk/bin/../lib/gcc/psp/4.3.5/../../../../psp/lib\libc.a(lib_a-impure.o)
                                          0x4 (size before relaxing)
 *fill*         0x0000000008a3e2c6        0x2 00
 .rodata        0x0000000008a3e2c8       0x68 c:/pspsdk/bin/../lib/gcc/psp/4.3.5/../../../../psp/lib\libc.a(lib_a-mktm_r.o)
 .rodata.str1.4
                0x0000000008a3e330      0x7a1 c:/pspsdk/bin/../lib/gcc/psp/4.3.5/../../../../psp/lib\libc.a(lib_a-strerror.o)
                                        0x7a8 (size before relaxing)
 *fill*         0x0000000008a3ead1        0x3 00
 .rodata        0x0000000008a3ead4      0x21c c:/pspsdk/bin/../lib/gcc/psp/4.3.5/../../../../psp/lib\libc.a(lib_a-strerror.o)
 .rodata.str1.4
                0x0000000008a3ecf0        0xf c:/pspsdk/bin/../lib/gcc/psp/4.3.5/../../../../psp/lib\libc.a(lib_a-strtod.o)
                                         0x10 (size before relaxing)
 *fill*         0x0000000008a3ecff        0x1 00
 .rodata        0x0000000008a3ed00      0x100 c:/pspsdk/bin/../lib/gcc/psp/4.3.5/../../../../psp/lib\libc.a(lib_a-strtod.o)
 .rodata.cst8   0x0000000008a3ee00       0x18 c:/pspsdk/bin/../lib/gcc/psp/4.3.5/../../../../psp/lib\libc.a(lib_a-strtod.o)
                                         0x38 (size before relaxing)
 .rodata.str1.4
                0x0000000008a3ee18       0x5a c:/pspsdk/bin/../lib/gcc/psp/4.3.5/../../../../psp/lib\libc.a(lib_a-svfprintf.o)
                                         0x60 (size before relaxing)
 *fill*         0x0000000008a3ee72        0x2 00
 .rodata        0x0000000008a3ee74      0x184 c:/pspsdk/bin/../lib/gcc/psp/4.3.5/../../../../psp/lib\libc.a(lib_a-svfprintf.o)
 .rodata.str1.4
                0x0000000008a3eff8        0x5 c:/pspsdk/bin/../lib/gcc/psp/4.3.5/../../../../psp/lib\libc.a(lib_a-svfscanf.o)
                                          0x8 (size before relaxing)
 *fill*         0x0000000008a3effd        0x3 00
 .rodata        0x0000000008a3f000      0x490 c:/pspsdk/bin/../lib/gcc/psp/4.3.5/../../../../psp/lib\libc.a(lib_a-svfscanf.o)
 .rodata.str1.4
                0x0000000008a3f490        0x4 c:/pspsdk/bin/../lib/gcc/psp/4.3.5/../../../../psp/lib\libc.a(lib_a-tzvars.o)
 .rodata.str1.4
                0x0000000008a3f494        0x0 c:/pspsdk/bin/../lib/gcc/psp/4.3.5/../../../../psp/lib\libc.a(lib_a-vfiprintf.o)
                                         0x4c (size before relaxing)
 .rodata        0x0000000008a3f494      0x184 c:/pspsdk/bin/../lib/gcc/psp/4.3.5/../../../../psp/lib\libc.a(lib_a-vfiprintf.o)
 .rodata.str1.4
                0x0000000008a3f618       0x2b c:/pspsdk/bin/../lib/gcc/psp/4.3.5/../../../../psp/lib\libc.a(vxprintf.o)
                                         0x6c (size before relaxing)
 *fill*         0x0000000008a3f643        0x1 00
 .rodata        0x0000000008a3f644       0xac c:/pspsdk/bin/../lib/gcc/psp/4.3.5/../../../../psp/lib\libc.a(vxprintf.o)
 .rodata.cst8   0x0000000008a3f6f0       0x18 c:/pspsdk/bin/../lib/gcc/psp/4.3.5/../../../../psp/lib\libc.a(vxprintf.o)
                                         0x30 (size before relaxing)
 .rodata.str1.4
                0x0000000008a3f708        0x6 c:/pspsdk/bin/../lib/gcc/psp/4.3.5/../../../../psp/lib\libc.a(_sbrk.o)
                                          0x8 (size before relaxing)
 *fill*         0x0000000008a3f70e        0x2 00
 .rodata.str1.4
                0x0000000008a3f710        0x9 c:/pspsdk/bin/../lib/gcc/psp/4.3.5/../../../../psp/lib\libc.a(lib_a-dtoa.o)
                                         0x14 (size before relaxing)
 *fill*         0x0000000008a3f719        0x3 00
 .rodata        0x0000000008a3f71c       0x18 c:/pspsdk/bin/../lib/gcc/psp/4.3.5/../../../../psp/lib\libc.a(lib_a-dtoa.o)
 *fill*         0x0000000008a3f734        0x4 00
 .rodata.cst8   0x0000000008a3f738       0x30 c:/pspsdk/bin/../lib/gcc/psp/4.3.5/../../../../psp/lib\libc.a(lib_a-dtoa.o)
                                         0x48 (size before relaxing)
 .rodata.str1.4
                0x0000000008a3f768        0xf c:/pspsdk/bin/../lib/gcc/psp/4.3.5/../../../../psp/lib\libc.a(lib_a-gdtoa-gethex.o)
                                         0x1c (size before relaxing)
 *fill*         0x0000000008a3f777        0x1 00
 .rodata.str1.4
                0x0000000008a3f778        0x6 c:/pspsdk/bin/../lib/gcc/psp/4.3.5/../../../../psp/lib\libc.a(lib_a-locale.o)
                                         0x14 (size before relaxing)
 *fill*         0x0000000008a3f77e        0x2 00
 .rodata        0x0000000008a3f780       0x38 c:/pspsdk/bin/../lib/gcc/psp/4.3.5/../../../../psp/lib\libc.a(lib_a-locale.o)
 .rodata.str1.4
                0x0000000008a3f7b8        0x0 c:/pspsdk/bin/../lib/gcc/psp/4.3.5/../../../../psp/lib\libc.a(lib_a-mbrtowc.o)
                                          0x4 (size before relaxing)
 .rodata        0x0000000008a3f7b8      0x128 c:/pspsdk/bin/../lib/gcc/psp/4.3.5/../../../../psp/lib\libc.a(lib_a-mprec.o)
                0x0000000008a3f8a8                __mprec_tinytens
                0x0000000008a3f7b8                __mprec_tens
                0x0000000008a3f880                __mprec_bigtens
 .rodata.cst8   0x0000000008a3f8e0        0x0 c:/pspsdk/bin/../lib/gcc/psp/4.3.5/../../../../psp/lib\libc.a(lib_a-mprec.o)
                                         0x10 (size before relaxing)
 .rodata.cst4   0x0000000008a3f8e0        0x4 c:/pspsdk/bin/../lib/gcc/psp/4.3.5/../../../../psp/lib\libc.a(lib_a-sf_nan.o)
 .rodata.str1.4
                0x0000000008a3f8e4        0x0 c:/pspsdk/bin/../lib/gcc/psp/4.3.5/../../../../psp/lib\libc.a(lib_a-svfiprintf.o)
                                         0x4c (size before relaxing)
 .rodata        0x0000000008a3f8e4      0x184 c:/pspsdk/bin/../lib/gcc/psp/4.3.5/../../../../psp/lib\libc.a(lib_a-svfiprintf.o)
 .rodata        0x0000000008a3fa68      0x340 c:/pspsdk/bin/../lib/gcc/psp/4.3.5/../../../../psp/lib\libc.a(lib_a-svfiscanf.o)
 .rodata.str1.4
                0x0000000008a3fda8       0x10 c:/pspsdk/bin/../lib/gcc/psp/4.3.5/../../../../psp/lib\libc.a(pipe.o)
 .rodata.str1.4
                0x0000000008a3fdb8        0x0 c:/pspsdk/bin/../lib/gcc/psp/4.3.5/../../../../psp/lib\libc.a(pspcwd.o)
                                          0x4 (size before relaxing)
 .rodata        0x0000000008a3fdb8       0x60 c:/pspsdk/bin/../lib/gcc/psp/4.3.5/../../../../psp/lib\libc.a(lib_a-mktime.o)
 .rodata.cst8   0x0000000008a3fe18        0x8 c:/pspsdk/bin/../lib/gcc/psp/4.3.5\libgcc.a(_fixunsdfsi.o)
 .rodata.cst8   0x0000000008a3fe20        0x8 c:/pspsdk/bin/../lib/gcc/psp/4.3.5\libgcc.a(_si_to_df.o)
 .rodata        0x0000000008a3fe28       0x18 c:/pspsdk/bin/../lib/gcc/psp/4.3.5\libgcc.a(_thenan_df.o)
                0x0000000008a3fe28                __thenan_df
 .rodata        0x0000000008a3fe40      0x5b8 c:/pspsdk/bin/../lib/gcc/psp/4.3.5\libgcc.a(unwind-dw2.o)
 .rodata        0x0000000008a403f8       0x34 c:/pspsdk/bin/../lib/gcc/psp/4.3.5\libgcc.a(unwind-dw2-fde.o)
 .rodata        0x0000000008a4042c      0x100 c:/pspsdk/bin/../lib/gcc/psp/4.3.5\libgcc.a(_clz.o)
                0x0000000008a4042c                __clz_tab

.rodata1
 *(.rodata1)

.sdata2
 *(.sdata2 .sdata2.* .gnu.linkonce.s2.*)

.sbss2
 *(.sbss2 .sbss2.* .gnu.linkonce.sb2.*)

.eh_frame_hdr
 *(.eh_frame_hdr)

.eh_frame
 *(.eh_frame)

.gcc_except_table
 *(.gcc_except_table)
 *(.gcc_except_table.*)
                0x0000000008a4062c                . = (ALIGN (0x100) + (. & 0xff))

.eh_frame       0x0000000008a4062c      0x774
 *(.eh_frame)
 .eh_frame      0x0000000008a4062c       0x3c c:/pspsdk/bin/../lib/gcc/psp/4.3.5/../../../../psp/lib\libstdc++.a(new_op.o)
 .eh_frame      0x0000000008a40668       0x1c c:/pspsdk/bin/../lib/gcc/psp/4.3.5/../../../../psp/lib\libstdc++.a(new_opv.o)
                                         0x38 (size before relaxing)
 .eh_frame      0x0000000008a40684       0x20 c:/pspsdk/bin/../lib/gcc/psp/4.3.5/../../../../psp/lib\libstdc++.a(eh_alloc.o)
                                         0x3c (size before relaxing)
 .eh_frame      0x0000000008a406a4      0x114 c:/pspsdk/bin/../lib/gcc/psp/4.3.5/../../../../psp/lib\libstdc++.a(eh_personality.o)
                                        0x130 (size before relaxing)
 .eh_frame      0x0000000008a407b8       0x74 c:/pspsdk/bin/../lib/gcc/psp/4.3.5/../../../../psp/lib\libstdc++.a(eh_terminate.o)
                                         0x90 (size before relaxing)
 .eh_frame      0x0000000008a4082c       0x6c c:/pspsdk/bin/../lib/gcc/psp/4.3.5/../../../../psp/lib\libstdc++.a(eh_throw.o)
 .eh_frame      0x0000000008a40898       0x64 c:/pspsdk/bin/../lib/gcc/psp/4.3.5/../../../../psp/lib\libstdc++.a(si_class_type_info.o)
                                         0x7c (size before relaxing)
 .eh_frame      0x0000000008a408fc       0x3c c:/pspsdk/bin/../lib/gcc/psp/4.3.5/../../../../psp/lib\libstdc++.a(vterminate.o)
 .eh_frame      0x0000000008a40938       0x8c c:/pspsdk/bin/../lib/gcc/psp/4.3.5/../../../../psp/lib\libstdc++.a(class_type_info.o)
 .eh_frame      0x0000000008a409c4       0x1c c:/pspsdk/bin/../lib/gcc/psp/4.3.5/../../../../psp/lib\libstdc++.a(eh_call.o)
                                         0x34 (size before relaxing)
 .eh_frame      0x0000000008a409e0       0x58 c:/pspsdk/bin/../lib/gcc/psp/4.3.5/../../../../psp/lib\libstdc++.a(eh_catch.o)
 .eh_frame      0x0000000008a40a38       0x30 c:/pspsdk/bin/../lib/gcc/psp/4.3.5/../../../../psp/lib\libstdc++.a(pure.o)
 .eh_frame      0x0000000008a40a68       0x24 c:/pspsdk/bin/../lib/gcc/psp/4.3.5\libgcc.a(_udivdi3.o)
 .eh_frame      0x0000000008a40a8c       0x14 c:/pspsdk/bin/../lib/gcc/psp/4.3.5\libgcc.a(_umoddi3.o)
                                         0x24 (size before relaxing)
 .eh_frame      0x0000000008a40aa0      0x258 c:/pspsdk/bin/../lib/gcc/psp/4.3.5\libgcc.a(unwind-dw2.o)
                                        0x268 (size before relaxing)
 .eh_frame      0x0000000008a40cf8       0xa4 c:/pspsdk/bin/../lib/gcc/psp/4.3.5\libgcc.a(unwind-dw2-fde.o)
                                         0xb4 (size before relaxing)
 .eh_frame      0x0000000008a40d9c        0x4 c:/pspsdk/bin/../lib/gcc/psp/4.3.5/crtend.o

.gcc_except_table
                0x0000000008a40da0       0xfc
 *(.gcc_except_table)
 .gcc_except_table
                0x0000000008a40da0       0x1c c:/pspsdk/bin/../lib/gcc/psp/4.3.5/../../../../psp/lib\libstdc++.a(new_op.o)
 .gcc_except_table
                0x0000000008a40dbc       0x18 c:/pspsdk/bin/../lib/gcc/psp/4.3.5/../../../../psp/lib\libstdc++.a(new_opv.o)
 .gcc_except_table
                0x0000000008a40dd4       0x18 c:/pspsdk/bin/../lib/gcc/psp/4.3.5/../../../../psp/lib\libstdc++.a(eh_alloc.o)
 .gcc_except_table
                0x0000000008a40dec       0x48 c:/pspsdk/bin/../lib/gcc/psp/4.3.5/../../../../psp/lib\libstdc++.a(eh_personality.o)
 .gcc_except_table
                0x0000000008a40e34       0x18 c:/pspsdk/bin/../lib/gcc/psp/4.3.5/../../../../psp/lib\libstdc++.a(eh_terminate.o)
 .gcc_except_table
                0x0000000008a40e4c       0x38 c:/pspsdk/bin/../lib/gcc/psp/4.3.5/../../../../psp/lib\libstdc++.a(vterminate.o)
 .gcc_except_table
                0x0000000008a40e84       0x18 c:/pspsdk/bin/../lib/gcc/psp/4.3.5/../../../../psp/lib\libstdc++.a(eh_catch.o)
 *(.gcc_except_table.*)

.tdata
 *(.tdata .tdata.* .gnu.linkonce.td.*)

.tbss
 *(.tbss .tbss.* .gnu.linkonce.tb.*)
 *(.tcommon)
                0x0000000008a40e9c                . = ALIGN (0x4)
                0x0000000008a40e9c                PROVIDE (__preinit_array_start, .)

.preinit_array
 *(.preinit_array)
                0x0000000008a40e9c                PROVIDE (__preinit_array_end, .)
                0x0000000008a40e9c                PROVIDE (__init_array_start, .)

.init_array
 *(.init_array)
                0x0000000008a40e9c                PROVIDE (__init_array_end, .)
                0x0000000008a40e9c                PROVIDE (__fini_array_start, .)

.fini_array
 *(.fini_array)
                0x0000000008a40e9c                PROVIDE (__fini_array_end, .)

.ctors          0x0000000008a40e9c        0xc
 *crtbegin*.o(.ctors)
 .ctors         0x0000000008a40e9c        0x4 c:/pspsdk/bin/../lib/gcc/psp/4.3.5/crtbegin.o
 *(EXCLUDE_FILE(*crtend*.o) .ctors)
 .ctors         0x0000000008a40ea0        0x4 c:/pspsdk/bin/../lib/gcc/psp/4.3.5/../../../../psp/lib\libstdc++.a(eh_alloc.o)
 *(SORT(.ctors.*))
 *(.ctors)
 .ctors         0x0000000008a40ea4        0x4 c:/pspsdk/bin/../lib/gcc/psp/4.3.5/crtend.o

.dtors          0x0000000008a40ea8        0x8
 *crtbegin*.o(.dtors)
 .dtors         0x0000000008a40ea8        0x4 c:/pspsdk/bin/../lib/gcc/psp/4.3.5/crtbegin.o
 *(EXCLUDE_FILE(*crtend*.o) .dtors)
 *(SORT(.dtors.*))
 *(.dtors)
 .dtors         0x0000000008a40eac        0x4 c:/pspsdk/bin/../lib/gcc/psp/4.3.5/crtend.o
                0x0000000008a40eac                __DTOR_END__

.jcr            0x0000000008a40eb0        0x4
 *(.jcr)
 .jcr           0x0000000008a40eb0        0x4 c:/pspsdk/bin/../lib/gcc/psp/4.3.5/crtend.o

.data.rel.ro
 *(.data.rel.ro.local)
 *(.data.rel.ro*)

.data           0x0000000008a40ec0    0x17c90
                0x0000000008a40ec0                _fdata = .
 *(.data .data.* .gnu.linkonce.d.*)
 .data          0x0000000008a40ec0    0x10008 gbcore/apu.o
                0x0000000008a40ec4                _mrand7
                0x0000000008a48ec4                _mrand15
                0x0000000008a40ec0                snd_stat_upd
 .data          0x0000000008a50ec8     0x1004 gbcore/cpu.o
                0x0000000008a512cc                cpu_io_write_JmpTbl
                0x0000000008a51acc                op_code_normal_JmpTbl
                0x0000000008a516cc                op_code_cb_JmpTbl
                0x0000000008a50ecc                cpu_io_read_JmpTbl
                0x0000000008a50ec8                rp_fd
 .data          0x0000000008a51ecc        0x4 gbcore/gb.o
                0x0000000008a51ecc                vframe
 .data          0x0000000008a51ed0       0x34 gbcore/lcd.o
                0x0000000008a51f00                col_pal_is_invalidated
                0x0000000008a51ed0                m_pal16
                0x0000000008a51f01                gb_pal_is_invalidated
 .data          0x0000000008a51f04       0x10 gbcore/sgb.o
                0x0000000008a51f08                sgb_attraction_mode
                0x0000000008a51f10                sgb_nextcontrol
                0x0000000008a51f04                sgb_ft
                0x0000000008a51f0c                sgb_file_transfer
 .data          0x0000000008a51f14       0x1c cpu/z80.o
                0x0000000008a51f14                Z80_Context
 .data          0x0000000008a51f30      0x848 vdp.o
                0x0000000008a52754                hc_table
                0x0000000008a52190                vc_ntsc_224
                0x0000000008a52088                vc_ntsc_192
                0x0000000008a524dc                vc_pal_224
                0x0000000008a52298                vc_ntsc_256
                0x0000000008a523a0                vc_pal_192
                0x0000000008a52618                vc_pal_256
                0x0000000008a51f30                hc_ntsc_256
                0x0000000008a52758                vc_table
 .data          0x0000000008a52778      0x380 sound/emu2413.o
 .data          0x0000000008a52af8        0x8 psp/PspSound.o
                0x0000000008a52af8                soundPause
                0x0000000008a52afc                soundRunning
 .data          0x0000000008a52b00        0x4 psp/SMS.o
                0x0000000008a52b00                backup_update
 .data          0x0000000008a52b04        0x4 psp/main.o
                0x0000000008a52b04                sce_newlib_attribute
 .data          0x0000000008a52b08     0x3940 psp/menuplus.o
                0x0000000008a56068                menuMainMisc
                0x0000000008a52b14                menuMainMiscPspClockItems
                0x0000000008a556b8                menuMainVideoMiscItems
                0x0000000008a54904                menuMainFileMusicFrequencyNumericMinMax
                0x0000000008a5393c                menuMainCtrlRedefineAutofireRateMinMax
                0x0000000008a554a8                menuMainVideoRenderItems
                0x0000000008a53338                menuMainVideoVSyncItems
                0x0000000008a535a0                menuMainSoundStereoItems
                0x0000000008a54158                menuMainVideoCountry
                0x0000000008a5580c                menuMainVideoSync
                0x0000000008a546e4                menuMainCtrlRedefine
                0x0000000008a5545c                menuMainVideoGBType
                0x0000000008a52e68                menuMainVideoCountryItems
                0x0000000008a5436c                menuMainVideoGammaNumericMinMax
                0x0000000008a54f14                menuMainVideoVibranceNumericMinMax
                0x0000000008a53180                menuMainVideoFrameskipMaxItems
                0x0000000008a53e00                menuMainCtrlAnalogTreshold
                0x0000000008a539d0                menuMainCtrlRedefineItems
                0x0000000008a535f8                menuMainSoundBoostItems
                0x0000000008a5573c                menuMainVideoGBItems
                0x0000000008a551f8                menuMainVideoRenderLeftBar
                0x0000000008a55f38                menuMainState
                0x0000000008a54f5c                menuMainVideoVibranceNumeric
                0x0000000008a55858                menuMainVideoRender
                0x0000000008a550d0                menuMainVideoRenderDepthItems
                0x0000000008a53700                menuMainSoundSyncModeItems
                0x0000000008a55d40                menuMainSmsTweakZ80Items
                0x0000000008a52cf8                menuMainVideoTurboSkipNumericMinMax
                0x0000000008a5464c                menuMainSoundTurboSound
                0x0000000008a52b08                LARGEUR_MENU
                0x0000000008a53390                menuMainMiscUIBackgroundItems
                0x0000000008a54698                menuMainSoundSyncMode
                0x0000000008a55f84                menuMainVideo
                0x0000000008a5444c                menuMainVideoCpuTimeItems
                0x0000000008a552e8                menuMainVideoGBTypeItems
                0x0000000008a52b0c                MENU_MAX_DISPLAYED_OPTIONS
                0x0000000008a52ec0                menuMainVideoScalingItems
                0x0000000008a52fc8                menuMainVideoFrameskipItems
                0x0000000008a545b4                menuMainSoundStereo
                0x0000000008a53db4                menuMainVideoTurboSkip
                0x0000000008a5351c                menuMainSoundRateItems
                0x0000000008a52b10                gblShortcutKey
                0x0000000008a558a4                menuMainVideoGB
                0x0000000008a53e98                menuMainCtrlAnalogCalibrationEnabled
                0x0000000008a553c4                menuMainVideoSyncMode
                0x0000000008a533e8                menuMainVideoGammaItems
                0x0000000008a54fa8                menuMainVideoVibranceItems
                0x0000000008a56178                menuMsgBoxReloadConfig
                0x0000000008a561f0                menuMsgBoxSaveConfigItems_SMS
                0x0000000008a54ec8                menuMainVideoBrightnessMode
                0x0000000008a55ea0                menuMainSmsTweakZ80
                0x0000000008a54a74                menuMainFileMusicFrequency
                0x0000000008a54b70                menuMainFileMusicRepeat
                0x0000000008a536a8                menuMainSoundTurboSoundItems
                0x0000000008a55bb0                menuMainMiscUI
                0x0000000008a53d6c                menuMainCtrlAnalogTresholdMinMax
                0x0000000008a55084                menuMainVideoVibrance
                0x0000000008a55244                menuMainVideoRenderSpriteLimit
                0x0000000008a54998                menuMainFileMusicFrequencyItems
                0x0000000008a55bfc                menuMainMiscItems
                0x0000000008a561c4                menuMsgBoxSaveConfigItems_noGame
                0x0000000008a54400                menuMainVideoGamma
                0x0000000008a55aa8                menuMainCtrlItems
                0x0000000008a55cf4                menuMainSmsTweakZ80Numeric
                0x0000000008a543b4                menuMainVideoGammaNumeric
                0x0000000008a548b8                menuMainMiscCommands
                0x0000000008a542d4                menuMainVideoVSync
                0x0000000008a54bbc                menuMainFileMusicItems
                0x0000000008a52d8c                menuMainVideoTurboSkipItems
                0x0000000008a560b4                menuMainItems
                0x0000000008a54568                menuMainSoundRate
                0x0000000008a55fd0                menuMainSound
                0x0000000008a53984                menuMainCtrlRedefineAutofireRate
                0x0000000008a560f4                menuMsgBoxReloadConfigItems
                0x0000000008a53ee4                menuMainCtrlAnalogCalibrationItems
                0x0000000008a5486c                menuMainFileSram
                0x0000000008a540c0                menuMainFileStateSave
                0x0000000008a541f0                menuMainVideoSmoothing
                0x0000000008a55cac                menuMainSmsTweakZ80NumericMinMax
                0x0000000008a557c0                menuMainVideoMisc
                0x0000000008a55eec                menuMainFile
                0x0000000008a53bb4                menuMainCtrlShortcutsItems
                0x0000000008a52d40                menuMainVideoTurboSkipNumeric
                0x0000000008a54c6c                menuMainFileMusic
                0x0000000008a5451c                menuMainSoundEnabled
                0x0000000008a54600                menuMainSoundBoost
                0x0000000008a5410c                menuMainFileStateDelete
                0x0000000008a55608                menuMainVideoSyncItems
                0x0000000008a53e4c                menuMainCtrlAnalogToDPad
                0x0000000008a54074                menuMainFileStateLoad
                0x0000000008a55128                menuMainVideoRenderDepth
                0x0000000008a544d0                menuMainVideoCpuTime
                0x0000000008a54288                menuMainVideoFrameskipMax
                0x0000000008a54730                menuMainCtrlShortcuts
                0x0000000008a54814                menuMainFileSramItems
                0x0000000008a559a0                menuMainSoundItems
                0x0000000008a55410                menuMainVideoGBColorization
                0x0000000008a54320                menuMainMiscUIBackground
                0x0000000008a55174                menuMainVideoRenderLeftBarItems
                0x0000000008a5601c                menuMainCtrl
                0x0000000008a541a4                menuMainVideoScaling
                0x0000000008a562f8                menuMsgBoxSaveConfig
                0x0000000008a54cb8                menuMainFileItems
                0x0000000008a53fe0                menuMainMiscPspClockNumericMinMax
                0x0000000008a5477c                menuMainCtrlAnalogCalibration
                0x0000000008a54d94                menuMainStateItems
                0x0000000008a560ec                menuMain
                0x0000000008a53758                menuMainFileStateItems
                0x0000000008a54e44                menuMainVideoBrightnessModeItems
                0x0000000008a558f0                menuMainVideoItems
                0x0000000008a5423c                menuMainVideoFrameskip
                0x0000000008a547c8                menuMainFileSramAutosave
                0x0000000008a54028                menuMainMiscPspClockNumeric
                0x0000000008a55290                menuMainVideoSyncModeItems
                0x0000000008a54ac0                menuMainFileMusicRepeatItems
                0x0000000008a53f94                menuMainMiscPspClock
                0x0000000008a5494c                menuMainFileMusicFrequencyNumeric
                0x0000000008a55b2c                menuMainMiscUIItems
                0x0000000008a534c4                menuMainOnOffItems
                0x0000000008a56274                menuMsgBoxSaveConfigItems_GBC
 .data          0x0000000008a56448       0x94 psp/menuplus2.o
                0x0000000008a56490                menuPaletteList
                0x0000000008a56448                stRomExtentions
                0x0000000008a56480                stMusicExtentions
 .data          0x0000000008a564dc       0x8c psp/config.o
                0x0000000008a5650c                infoTabMenuColCursor
                0x0000000008a56530                infoObjCtrl
                0x0000000008a56558                infoObjColorIt
                0x0000000008a56518                infoObjFile
                0x0000000008a564dc                bModeWideCrLf
                0x0000000008a564f4                infoTabCtrlKeys
                0x0000000008a56548                infoObjMusic
                0x0000000008a564e0                infoTabCtrlAnalogCalValues
                0x0000000008a56520                infoObjVideo
                0x0000000008a56560                infoObjMain
                0x0000000008a56538                infoObjMisc
                0x0000000008a56500                infoTabCtrlCuts
                0x0000000008a564ec                infoObjCtrlAnalog
                0x0000000008a56550                infoObjGameBoy
                0x0000000008a56528                infoObjSound
                0x0000000008a56540                infoObjMenu
 .data          0x0000000008a56568        0xc psp/sound.o
                0x0000000008a56568                musicThread
                0x0000000008a56570                musicVolume
                0x0000000008a5656c                menuMusicState
 .data          0x0000000008a56574      0x1a4 loadrom.o
                0x0000000008a56574                game_list
 .data          0x0000000008a56718       0x3c psp/gym/gym.o
                0x0000000008a56738                CODEC_GYM::cfg_dac_enable
                0x0000000008a5673c                CODEC_GYM::cfg_psg_enable
                0x0000000008a5672c                CODEC_GYM::cfg_chan4_enable
                0x0000000008a56728                CODEC_GYM::cfg_chan3_enable
                0x0000000008a56718                CODEC_GYM::cfg_samplerate
                0x0000000008a56740                CODEC_GYM::cfg_psg_chan1_enable
                0x0000000008a56730                CODEC_GYM::cfg_chan5_enable
                0x0000000008a56724                CODEC_GYM::cfg_chan2_enable
                0x0000000008a56720                CODEC_GYM::cfg_chan1_enable
                0x0000000008a56744                CODEC_GYM::cfg_psg_chan2_enable
                0x0000000008a56748                CODEC_GYM::cfg_psg_chan3_enable
                0x0000000008a56734                CODEC_GYM::cfg_chan6_enable
                0x0000000008a5674c                CODEC_GYM::cfg_psg_chan4_enable
                0x0000000008a5671c                CODEC_GYM::cfg_ym2612_enable
                0x0000000008a56750                CODEC_GYM::cfg_num_loop
 .data          0x0000000008a56754        0x8 psp/gym/gym_play.o
                0x0000000008a56754                YM2612_Enable
                0x0000000008a56758                gym_update_needed
 .data          0x0000000008a5675c      0x120 psp/gym/ym2612.o
                0x0000000008a5685c                ENV_NEXT_EVENT
                0x0000000008a5675c                UPDATE_CHAN
 .data          0x0000000008a5687c      0x400 psp/gym/bzlib/crctable.o
                0x0000000008a5687c                BZ2_crc32Table
 .data          0x0000000008a56c7c      0x800 psp/gym/bzlib/randtable.o
                0x0000000008a56c7c                BZ2_rNums
 .data          0x0000000008a5747c       0x80 psp/vgm/mame_fm.o
 .data          0x0000000008a574fc      0x268 psp/vgm/emu2413.o
 .data          0x0000000008a57764        0xc psp/vgm/In_vgm.o
                0x0000000008a5776c                SN76489_Mute
                0x0000000008a57764                vgmSampleRateModified
                0x0000000008a57768                LoopingFadeOutms
 .data          0x0000000008a57770       0x30 psp/VirtualGz.o
                0x0000000008a57774                vfsGzFile
                0x0000000008a57770                VF_GZFILE
 .data          0x0000000008a577a0        0x4 c:/pspsdk/bin/../lib/gcc/psp/4.3.5/../../../../psp/lib\libosl.a(oslib.o)
                0x0000000008a577a0                osl_vblankCounterActive
 .data          0x0000000008a577a4        0xc c:/pspsdk/bin/../lib/gcc/psp/4.3.5/../../../../psp/lib\libosl.a(drawing.o)
                0x0000000008a577a4                osl_alignBuffer
                0x0000000008a577ac                osl_textureEnabled
                0x0000000008a577a8                osl_doubleBuffer
 .data          0x0000000008a577b0        0x4 c:/pspsdk/bin/../lib/gcc/psp/4.3.5/../../../../psp/lib\libosl.a(image.o)
                0x0000000008a577b0                osl_autoSwizzleImages
 .data          0x0000000008a577b4       0x2c c:/pspsdk/bin/../lib/gcc/psp/4.3.5/../../../../psp/lib\libosl.a(text.o)
                0x0000000008a577b4                osl_textBkColor
                0x0000000008a577bc                osl_sceFontInfo
                0x0000000008a577b8                osl_textColor
 .data          0x0000000008a577e0        0xc c:/pspsdk/bin/../lib/gcc/psp/4.3.5/../../../../psp/lib\libosl.a(vram_mgr.o)
                0x0000000008a577e8                osl_useVramManager
                0x0000000008a577e0                osl_vramBase
                0x0000000008a577e4                osl_vramSize
 .data          0x0000000008a577ec        0x4 c:/pspsdk/bin/../lib/gcc/psp/4.3.5/../../../../psp/lib\libosl.a(audio.o)
                0x0000000008a577ec                osl_audioDefaultNumSamples
 .data          0x0000000008a577f0       0x38 c:/pspsdk/bin/../lib/gcc/psp/4.3.5/../../../../psp/lib\libosl.a(VirtualFile.o)
                0x0000000008a577f0                VF_MEMORY
                0x0000000008a577fc                vfsMemory
                0x0000000008a577f4                osl_defaultVirtualFileSource
                0x0000000008a577f8                osl_tempFileName
 .data          0x0000000008a57828       0x30 c:/pspsdk/bin/../lib/gcc/psp/4.3.5/../../../../psp/lib\libosl.a(vfsFile.o)
                0x0000000008a57828                VF_FILE
                0x0000000008a5782c                vfsFile
 .data          0x0000000008a57858       0x28 c:/pspsdk/bin/../lib/gcc/psp/4.3.5/../../../../psp/lib\libosl.a(intraFont.o)
 .data          0x0000000008a57880        0x4 c:/pspsdk/bin/../lib/gcc/psp/4.3.5/../../../../psp/lib\libosl.a(oslHandleLoadNoFailError.o)
                0x0000000008a57880                osl_noFailCallback
 .data          0x0000000008a57884       0x20 c:/pspsdk/bin/../lib/gcc/psp/4.3.5/../../../../psp/lib\libpng.a(pngrutil.o)
 .data          0x0000000008a578a4      0x300 c:/pspsdk/bin/../lib/gcc/psp/4.3.5/../../../../psp/lib\libpng.a(pngtrans.o)
 .data          0x0000000008a57ba4       0x3c c:/pspsdk/bin/../lib/gcc/psp/4.3.5/../../../../psp/lib\libz.a(trees.o)
 .data          0x0000000008a57be0      0x380 c:/pspsdk/psp/sdk/lib\libpspgu.a(sceGuInit.o)
                0x0000000008a57be0                ge_init_list
 .data          0x0000000008a57f60       0x40 c:/pspsdk/psp/sdk/lib\libpspgu.a(sceGuStart.o)
 .data          0x0000000008a57fa0       0x40 c:/pspsdk/psp/sdk/lib\libpspgu.a(guInternal.o)
                0x0000000008a57fa0                light_settings
 .data._ZN10__cxxabiv119__terminate_handlerE
                0x0000000008a57fe0        0x4 c:/pspsdk/bin/../lib/gcc/psp/4.3.5/../../../../psp/lib\libstdc++.a(eh_term_handler.o)
                0x0000000008a57fe0                __cxxabiv1::__terminate_handler
 .data._ZN10__cxxabiv120__unexpected_handlerE
                0x0000000008a57fe4        0x4 c:/pspsdk/bin/../lib/gcc/psp/4.3.5/../../../../psp/lib\libstdc++.a(eh_unex_handler.o)
                0x0000000008a57fe4                __cxxabiv1::__unexpected_handler
 .data          0x0000000008a57fe8       0x20 c:/pspsdk/bin/../lib/gcc/psp/4.3.5/../../../../psp/lib\libm.a(lib_a-s_mathcnst.o)
                0x0000000008a57fe8                BIGX
                0x0000000008a57ff8                z_rooteps
                0x0000000008a57ff0                SMALLX
                0x0000000008a58000                z_rooteps_f
 .data          0x0000000008a58008        0x4 c:/pspsdk/bin/../lib/gcc/psp/4.3.5/../../../../psp/lib\libc.a(lib_a-ctype_.o)
                0x0000000008a58008                __ctype_ptr__
 *fill*         0x0000000008a5800c        0x4 00
 .data          0x0000000008a58010      0x428 c:/pspsdk/bin/../lib/gcc/psp/4.3.5/../../../../psp/lib\libc.a(lib_a-impure.o)
 .data          0x0000000008a58438      0x410 c:/pspsdk/bin/../lib/gcc/psp/4.3.5/../../../../psp/lib\libc.a(lib_a-mallocr.o)
                0x0000000008a58844                __malloc_sbrk_base
                0x0000000008a58438                __malloc_av_
                0x0000000008a58840                __malloc_trim_threshold
 .data          0x0000000008a58848       0x28 c:/pspsdk/bin/../lib/gcc/psp/4.3.5/../../../../psp/lib\libc.a(lib_a-strtod.o)
 .data          0x0000000008a58870        0x8 c:/pspsdk/bin/../lib/gcc/psp/4.3.5/../../../../psp/lib\libc.a(lib_a-tzvars.o)
                0x0000000008a58870                _tzname
 .data          0x0000000008a58878      0x248 c:/pspsdk/bin/../lib/gcc/psp/4.3.5/../../../../psp/lib\libc.a(vxprintf.o)
 .data          0x0000000008a58ac0        0x4 c:/pspsdk/bin/../lib/gcc/psp/4.3.5/../../../../psp/lib\libc.a(lib_a-environ.o)
                0x0000000008a58ac0                environ
 .data          0x0000000008a58ac4       0x40 c:/pspsdk/bin/../lib/gcc/psp/4.3.5/../../../../psp/lib\libc.a(lib_a-gettzinfo.o)
 .data          0x0000000008a58b04       0x44 c:/pspsdk/bin/../lib/gcc/psp/4.3.5/../../../../psp/lib\libc.a(lib_a-locale.o)
                0x0000000008a58b04                __mb_cur_max
 .data          0x0000000008a58b48        0x4 c:/pspsdk/bin/../lib/gcc/psp/4.3.5/../../../../psp/lib\libc.a(lib_a-mbtowc_r.o)
                0x0000000008a58b48                __mbtowc
 .data          0x0000000008a58b4c        0x4 c:/pspsdk/bin/../lib/gcc/psp/4.3.5/../../../../psp/lib\libc.a(lib_a-wctomb_r.o)
                0x0000000008a58b4c                __wctomb
 *(.gnu.linkonce.d.*personality*)

.data1
 *(.data1)
                0x0000000008a58b50                . = .
                0x0000000008a60b40                _gp = (ALIGN (0x10) + 0x7ff0)

.got
 *(.got.plt)
 *(.got)

.sdata          0x0000000008a58b50        0xc
 *(.sdata .sdata.* .gnu.linkonce.s.*)
 .sdata         0x0000000008a58b50        0x4 c:/pspsdk/bin/../lib/gcc/psp/4.3.5/crtbegin.o
                0x0000000008a58b50                __dso_handle
 .sdata         0x0000000008a58b54        0x8 c:/pspsdk/bin/../lib/gcc/psp/4.3.5/../../../../psp/lib\libc.a(lib_a-impure.o)
                0x0000000008a58b58                _global_impure_ptr
                0x0000000008a58b54                _impure_ptr

.lit8
 *(.lit8)

.lit4
 *(.lit4)
                0x0000000008a58b5c                _edata = .
                0x0000000008a58b5c                PROVIDE (edata, .)
                0x0000000008a58b5c                __bss_start = .
                0x0000000008a58b5c                _fbss = .

.sbss           0x0000000008a58b5c        0x0
                0x0000000008a58b5c                PROVIDE (__sbss_start, .)
                0x0000000008a58b5c                PROVIDE (___sbss_start, .)
 *(.dynsbss)
 *(.sbss .sbss.* .gnu.linkonce.sb.*)
 *(.scommon)
                0x0000000008a58b5c                PROVIDE (__sbss_end, .)
                0x0000000008a58b5c                PROVIDE (___sbss_end, .)

.bss            0x0000000008a58b80   0x322258
 *(.dynbss)
 *(.bss .bss.* .gnu.linkonce.b.*)
 .bss           0x0000000008a58b80       0x20 c:/pspsdk/bin/../lib/gcc/psp/4.3.5/crtbegin.o
 .bss           0x0000000008a58ba0       0x34 gbcore/apu.o
 .bss           0x0000000008a58bd4        0x4 gbcore/cheat.o
                0x0000000008a58bd4                cheat_enable
 .bss           0x0000000008a58bd8        0x4 gbcore/gb.o
                0x0000000008a58bd8                gb_lastVramCrc
 .bss           0x0000000008a58bdc        0x4 gbcore/mbc.o
                0x0000000008a58bdc                mbc_write
 .bss           0x0000000008a58be0       0x3c gbcore/sgb.o
                0x0000000008a58bec                sgb_command
                0x0000000008a58c10                sgb_readingcontrol
                0x0000000008a58c08                sgb_multiplayer
                0x0000000008a58be8                col0_used
                0x0000000008a58c14                sgb_mask
                0x0000000008a58be0                cycles_SGB
                0x0000000008a58bfc                packets_received
                0x0000000008a58c18                sgb_palette_invalidated
                0x0000000008a58c04                sgb_index
                0x0000000008a58c0c                sgb_fourplayers
                0x0000000008a58c00                sgb_state
                0x0000000008a58bf0                sgb_CGB_support
                0x0000000008a58be4                border_uploaded
                0x0000000008a58bf8                bits_received
                0x0000000008a58bf4                bit_received
 .bss           0x0000000008a58c1c      0x5a8 cpu/z80.o
                0x0000000008a58c20                z80_cycle_count
                0x0000000008a58c1c                z80_exec
                0x0000000008a58c24                z80_requested_cycles
                0x0000000008a58c28                after_EI
 .bss           0x0000000008a591c4        0x2 memz80.o
                0x0000000008a591c4                data_bus_pullup
                0x0000000008a591c5                data_bus_pulldown
 *fill*         0x0000000008a591c6        0x2 00
 .bss           0x0000000008a591c8       0x14 render.o
 .bss           0x0000000008a591dc        0xc sound/sound.o
                0x0000000008a591dc                sound_justChange
 .bss           0x0000000008a591e8      0x170 sound/sn76489.o
 .bss           0x0000000008a59358    0x64238 sound/emu2413.o
 .bss           0x0000000008abd590     0x7840 sound/ym2413.o
 .bss           0x0000000008ac4dd0        0x4 sound/fmintf.o
 .bss           0x0000000008ac4dd4        0x4 psp/gameboy_render.o
 .bss           0x0000000008ac4dd8        0x8 psp/VideoGu.o
                0x0000000008ac4dd8                videoInited
 .bss           0x0000000008ac4de0        0x8 psp/Controls.o
                0x0000000008ac4de0                count
 .bss           0x0000000008ac4de8       0x20 psp/PspSound.o
                0x0000000008ac4de8                nbreSamples
                0x0000000008ac4e00                total2
                0x0000000008ac4df4                soundInited
                0x0000000008ac4df0                sndThid
                0x0000000008ac4df8                total1
                0x0000000008ac4dec                ptrSample
 .bss           0x0000000008ac4e08       0x20 psp/SMS.o
                0x0000000008ac4e18                gblCpuCycles
                0x0000000008ac4e1c                gblFramerate
                0x0000000008ac4e14                gblNewGame
                0x0000000008ac4e20                gblVirtualFramerate
                0x0000000008ac4e0c                frameReady
                0x0000000008ac4e08                systemInit
                0x0000000008ac4e10                gblMachineType
 .bss           0x0000000008ac4e28        0x4 psp/main.o
                0x0000000008ac4e28                gbUsbAvailable
 .bss           0x0000000008ac4e2c      0x1b0 psp/menuplus.o
                0x0000000008ac4e6c                msgAboutTextOffset
                0x0000000008ac4e2c                menuDebugRamShow
                0x0000000008ac4e40                ftStandard
                0x0000000008ac4e4c                menuMainSelectedOption
                0x0000000008ac4e5c                menuStatusBarMessage
                0x0000000008ac4e78                menuSoundBoxOpen
                0x0000000008ac4e7c                menuSoundBoxPosition
                0x0000000008ac4e3c                imgBack
                0x0000000008ac4e64                gblModeColorIt
                0x0000000008ac4e70                msgAboutTextOffsetDisplay
                0x0000000008ac4e30                imgIcons
                0x0000000008ac4e60                gblConfigAutoShowCrc
                0x0000000008ac4e68                menuDisplaySpecialMessage
                0x0000000008ac4e50                menuStatusPosition
                0x0000000008ac4e74                msgAboutTextHeight
                0x0000000008ac4e48                menuCurrentWindow
                0x0000000008ac4e34                imgNumbers
                0x0000000008ac4e44                ftGlow
                0x0000000008ac4e54                menuStatusDrawn
                0x0000000008ac4e38                imgBord
                0x0000000008ac4e58                menuStickMessageDisplayed
 .bss           0x0000000008ac4fdc       0x64 psp/menuplus2.o
                0x0000000008ac4fdc                menuFileSelectCurrentMenu
                0x0000000008ac4fec                myPlacesModified
                0x0000000008ac4fe4                cPlaces
                0x0000000008ac4fe8                nPlacesTypes
                0x0000000008ac4fe0                nbPlaces
 .bss           0x0000000008ac5040        0xc psp/config.o
                0x0000000008ac5044                arretdurgence
                0x0000000008ac5048                trouveLabel
                0x0000000008ac5040                config_referenceConfig
 *fill*         0x0000000008ac504c        0x4 00
 .bss           0x0000000008ac5050    0x14df8 psp/sound.o
                0x0000000008ad9e20                bufferValue
                0x0000000008ad9e38                songType
                0x0000000008ac59f0                menu_zipfilename
                0x0000000008ac5dfc                musicEnabled
                0x0000000008ac545c                gblMusicPath
                0x0000000008ad9e30                musicChannelVolume
                0x0000000008ac5df8                menu_musicdata
                0x0000000008ac5e0c                snd_buffer
                0x0000000008ad9e24                lastSample
                0x0000000008ac5e00                musicThreadFrequency
                0x0000000008ad9e3c                currentSongFile
                0x0000000008ad9e28                menu_filenumber
                0x0000000008ad9e18                buffer2
                0x0000000008ac5df4                menu_lastNumber
                0x0000000008ad9e2c                menu_playlistcount
                0x0000000008ac5860                menuConfigUserDefault
                0x0000000008ac5e08                musicRequestNewSong
                0x0000000008ac5e04                musicThreadEnd
                0x0000000008ac5058                cpu_readport16
                0x0000000008ac5df0                menu_musiclen
                0x0000000008ac5868                gymCodec
                0x0000000008ac596c                menuSoundArtist
                0x0000000008ac5864                menuConfigUserMachineDefault
                0x0000000008ac586c                menuSoundTitle
                0x0000000008ac58ec                menuSoundAlbum
                0x0000000008ac5050                cpu_writemem16
                0x0000000008ad9e34                isVgmInited
                0x0000000008ad5e0c                tmp_buffer
                0x0000000008ac5054                cpu_writeport16
                0x0000000008ad9e10                buffer1
                0x0000000008ac59ec                menuSoundBoxActive
                0x0000000008ac585c                menuConfigDefault
                0x0000000008ac505c                gblRomPath
 .bss           0x0000000008ad9e48       0x10 psp/gym/gym.o
                0x0000000008ad9e48                CODEC_GYM::cfg_ym2612_interp
                0x0000000008ad9e50                CODEC_GYM::cfg_fade_length
                0x0000000008ad9e4c                CODEC_GYM::cfg_psg_interp
 .bss           0x0000000008ad9e58     0x3bcc psp/gym/gym_play.o
                0x0000000008adda20                GYM_Dumping
                0x0000000008adda1c                VDP_Current_Line
                0x0000000008add058                Seg_Lenght
                0x0000000008adb758                Seg_R
                0x0000000008ad9e58                Seg_L
                0x0000000008add05c                Sound_Extrapol
 .bss           0x0000000008adda24        0x4 psp/gym/psg.o
                0x0000000008adda24                PSG_Len
 .bss           0x0000000008adda28        0x4 psp/gym/ym2612.o
                0x0000000008adda28                YM_Len
 .bss           0x0000000008adda2c     0x8070 psp/vgm/mame_fm.o
 .bss           0x0000000008ae5a9c    0x6312c psp/vgm/emu2413.o
 .bss           0x0000000008b48bc8      0x280 psp/vgm/sn76489.o
 .bss           0x0000000008b48e48     0x7878 psp/vgm/mame_ym2151.o
 .bss           0x0000000008b506c0     0xb588 psp/vgm/In_vgm.o
                0x0000000008b506c0                paused
                0x0000000008b50730                PauseBetweenTracksCounter
                0x0000000008b506cc                opll
                0x0000000008b50710                FileInfoJapanese
                0x0000000008b50750                SN76489_Pan
                0x0000000008b507a4                YM2151Channels
                0x0000000008b506e0                NumLoops
                0x0000000008b5074c                SN76489_VolumeArray
                0x0000000008b5073c                MutePersistent
                0x0000000008b5079c                YM2413Channels
                0x0000000008b50714                UseMB
                0x0000000008b507a8                TrackTitleFormat
                0x0000000008b506e8                LoopLengthInms
                0x0000000008b506dc                FileRate
                0x0000000008b506e4                NumLoopsDone
                0x0000000008b50744                MLShowFM
                0x0000000008b5bc10                SamplesTillNextRead
                0x0000000008b506f4                PSGClock
                0x0000000008b506d8                PlaybackRate
                0x0000000008b5bc18                FractionalSamplesTillNextRead
                0x0000000008b5072c                PauseBetweenTracksms
                0x0000000008b507a0                YM2612Channels
                0x0000000008b50718                AutoMB
                0x0000000008b50700                YM2151Clock
                0x0000000008b50798                RandomisePanning
                0x0000000008b5071c                ForceMBOpen
                0x0000000008b506f8                YM2413Clock
                0x0000000008b5080c                CurrentURL
                0x0000000008b50740                MLJapanese
                0x0000000008b5bc14                WaitFactor
                0x0000000008b50734                LoopingFadeOutCounter
                0x0000000008b506d4                TrackLengthInms
                0x0000000008b50708                FMChipsInited
                0x0000000008b50728                ImmediateUpdate
                0x0000000008b506d0                killDecodeThread
                0x0000000008b506c8                VGMFile
                0x0000000008b506ec                LoopOffset
                0x0000000008b50748                MLType
                0x0000000008b506fc                YM2612Clock
                0x0000000008b50760                YM2413_Pan
                0x0000000008b50738                LoopingFadeOutTotal
                0x0000000008b50720                YM2413HiQ
                0x0000000008b50704                FMChips
                0x0000000008b50c0c                FilenameForInfoDlg
                0x0000000008b5070c                SeekToSampleNumber
                0x0000000008b50c10                GD3Strings
                0x0000000008b5bc1c                currentSampleValue
                0x0000000008b506c4                vgmSampleRate
                0x0000000008b506f0                VGMDataOffset
                0x0000000008b50724                Overdrive
 .bss           0x0000000008b5bc48      0x140 c:/pspsdk/bin/../lib/gcc/psp/4.3.5/../../../../psp/lib\libosl.a(oslib.o)
                0x0000000008b5bc58                osl_exitCallback
                0x0000000008b5bc74                osl_vblShouldSwap
                0x0000000008b5bc54                osl_powerCallback
                0x0000000008b5bc7c                osl_vsyncEnabled
                0x0000000008b5bc78                osl_maxFrameskip
                0x0000000008b5bc64                osl_vblCountMultiple
                0x0000000008b5bc60                osl_vblCount
                0x0000000008b5bc50                osl_vblInterruptNumber
                0x0000000008b5bc5c                osl_noFail
                0x0000000008b5bc80                osl_frameskip
                0x0000000008b5bc70                osl_nbSkippedFrames
                0x0000000008b5bc6c                osl_skip
                0x0000000008b5bc48                osl_intraInit
                0x0000000008b5bc4c                osl_quit
                0x0000000008b5bc68                osl_vblCallCount
 .bss           0x0000000008b5bd88       0x1c c:/pspsdk/bin/../lib/gcc/psp/4.3.5/../../../../psp/lib\libosl.a(drawing.o)
                0x0000000008b5bd8c                osl_curTexture
                0x0000000008b5bda0                osl_alphaTestEnabled
                0x0000000008b5bd9c                osl_isDrawingStarted
                0x0000000008b5bd88                osl_list
                0x0000000008b5bd94                osl_curDrawBuf
                0x0000000008b5bd90                osl_curPalette
                0x0000000008b5bd98                osl_curDispBuf
 .bss           0x0000000008b5bda4       0x14 c:/pspsdk/bin/../lib/gcc/psp/4.3.5/../../../../psp/lib\libosl.a(text.o)
                0x0000000008b5bdb0                osl_consolePosX
                0x0000000008b5bda4                intra_options
                0x0000000008b5bdb4                osl_consolePosY
                0x0000000008b5bdac                osl_sceFont
                0x0000000008b5bda8                osl_curFont
 .bss           0x0000000008b5bdb8        0x8 c:/pspsdk/bin/../lib/gcc/psp/4.3.5/../../../../psp/lib\libosl.a(vram_mgr.o)
                0x0000000008b5bdbc                osl_vramBlocksNb
                0x0000000008b5bdb8                osl_vramBlocksMax
 .bss           0x0000000008b5bdc0       0xd4 c:/pspsdk/bin/../lib/gcc/psp/4.3.5/../../../../psp/lib\libosl.a(audio.o)
                0x0000000008b5bdc4                osl_suspendNumber
                0x0000000008b5bdc0                osl_audioOldPowerCallback
 .bss           0x0000000008b5be94        0x8 c:/pspsdk/bin/../lib/gcc/psp/4.3.5/../../../../psp/lib\libosl.a(VirtualFile.o)
                0x0000000008b5be94                VirtualFileSourcesNb
                0x0000000008b5be98                osl_virtualFileListNumber
 *fill*         0x0000000008b5be9c        0x4 00
 .bss           0x0000000008b5bea0      0x1d0 c:/pspsdk/bin/../lib/gcc/psp/4.3.5/../../../../psp/lib\libosl.a(intraFont.o)
 .bss           0x0000000008b5c070       0xb8 c:/pspsdk/bin/../lib/gcc/psp/4.3.5/../../../../psp/lib\libosl.a(libccc.o)
 .bss           0x0000000008b5c128        0x4 c:/pspsdk/bin/../lib/gcc/psp/4.3.5/../../../../psp/lib\libosl.a(gif_err.o)
                0x0000000008b5c128                _GifError
 .bss           0x0000000008b5c12c        0x4 c:/pspsdk/bin/../lib/gcc/psp/4.3.5/../../../../psp/lib\libjpeg.a(jdatasrc.o)
 .bss._ZL16emergency_buffer
                0x0000000008b5c130      0x800 c:/pspsdk/bin/../lib/gcc/psp/4.3.5/../../../../psp/lib\libstdc++.a(eh_alloc.o)
 .bss._ZL14emergency_used
                0x0000000008b5c930        0x4 c:/pspsdk/bin/../lib/gcc/psp/4.3.5/../../../../psp/lib\libstdc++.a(eh_alloc.o)
 .bss._ZL10eh_globals
                0x0000000008b5c934        0x8 c:/pspsdk/bin/../lib/gcc/psp/4.3.5/../../../../psp/lib\libstdc++.a(eh_globals.o)
 .bss.__new_handler
                0x0000000008b5c93c        0x4 c:/pspsdk/bin/../lib/gcc/psp/4.3.5/../../../../psp/lib\libstdc++.a(new_handler.o)
                0x0000000008b5c93c                __new_handler
 .bss._ZZN9__gnu_cxx27__verbose_terminate_handlerEvE11terminating
                0x0000000008b5c940        0x1 c:/pspsdk/bin/../lib/gcc/psp/4.3.5/../../../../psp/lib\libstdc++.a(vterminate.o)
 *fill*         0x0000000008b5c941        0x3 00
 .bss           0x0000000008b5c944       0x34 c:/pspsdk/bin/../lib/gcc/psp/4.3.5/../../../../psp/lib\libc.a(lib_a-mallocr.o)
                0x0000000008b5c944                __malloc_top_pad
                0x0000000008b5c948                __malloc_max_sbrked_mem
                0x0000000008b5c950                __malloc_current_mallinfo
                0x0000000008b5c94c                __malloc_max_total_mem
 .bss           0x0000000008b5c978        0x8 c:/pspsdk/bin/../lib/gcc/psp/4.3.5/../../../../psp/lib\libc.a(lib_a-tzvars.o)
                0x0000000008b5c978                _daylight
                0x0000000008b5c97c                _timezone
 .bss           0x0000000008b5c980       0x10 c:/pspsdk/bin/../lib/gcc/psp/4.3.5/../../../../psp/lib\libc.a(_sbrk.o)
 .bss           0x0000000008b5c990     0x5000 c:/pspsdk/bin/../lib/gcc/psp/4.3.5/../../../../psp/lib\libc.a(fdman.o)
 .bss           0x0000000008b61990        0x4 c:/pspsdk/bin/../lib/gcc/psp/4.3.5/../../../../psp/lib\libc.a(lib_a-environ.o)
 .bss           0x0000000008b61994        0xc c:/pspsdk/bin/../lib/gcc/psp/4.3.5/../../../../psp/lib\libc.a(lib_a-locale.o)
                0x0000000008b61994                __nlocale_changed
                0x0000000008b61998                __mlocale_changed
                0x0000000008b6199c                _PathLocale
 .bss           0x0000000008b619a0        0x4 c:/pspsdk/bin/../lib/gcc/psp/4.3.5/../../../../psp/lib\libc.a(pipe.o)
 .bss           0x0000000008b619a4      0x404 c:/pspsdk/bin/../lib/gcc/psp/4.3.5/../../../../psp/lib\libc.a(pspcwd.o)
                0x0000000008b619a4                __psp_cwd
 .bss           0x0000000008b61da8       0xc0 c:/pspsdk/bin/../lib/gcc/psp/4.3.5\libgcc.a(unwind-dw2.o)
 .bss           0x0000000008b61e68        0xc c:/pspsdk/bin/../lib/gcc/psp/4.3.5\libgcc.a(unwind-dw2-fde.o)
 *(COMMON)
 COMMON         0x0000000008b61e74    0x803d4 gbcore/apu.o
                0x0000000008b61e74                snd_que_count
                0x0000000008b61e78                snd_stat_cpy
                0x0000000008b61f64                snd_stat_tmp
                0x0000000008b62050                snd_stat
                0x0000000008b6213c                snd_b_lowpass
                0x0000000008b62140                snd_b_enable
                0x0000000008b62144                snd_mem
                0x0000000008b62244                snd_write_que
                0x0000000008be2244                snd_bef_clock
 COMMON         0x0000000008be2248    0x58304 gbcore/cheat.o
                0x0000000008be2248                cheats
                0x0000000008bea548                cheat_map
                0x0000000008bfa548                cheat_map_n
                0x0000000008c3a548                nCheats
 COMMON         0x0000000008c3a54c     0xc3d4 gbcore/cpu.o
                0x0000000008c3a54c                _ff72
                0x0000000008c3a550                gb2z80
                0x0000000008c3a650                oam
                0x0000000008c3a6f0                b_dma_first
                0x0000000008c3a6f4                dma_dest_bank
                0x0000000008c3a6f8                spare_oam
                0x0000000008c3a710                z802gb
                0x0000000008c3a810                c_regs_I
                0x0000000008c3a814                total_clock
                0x0000000008c3a818                _ff73
                0x0000000008c3a81c                sys_clock
                0x0000000008c3a820                c_regs_SP
                0x0000000008c3a824                dma_src_bank
                0x0000000008c3a828                stack
                0x0000000008c3a8a8                tmp_clocks
                0x0000000008c3a8ac                _ff75
                0x0000000008c3a8b0                last_int
                0x0000000008c3a8b4                rp_data
                0x0000000008c3a8b8                ext_mem
                0x0000000008c3a8c8                b_trace
                0x0000000008c3a8cc                ram_bank
                0x0000000008c3a8d0                div_clock
                0x0000000008c3a8d4                vram_bank
                0x0000000008c3a8d8                dma_executing
                0x0000000008c3a8d9                _ff6c
                0x0000000008c3a8da                c_regs_HL
                0x0000000008c3a8dc                speed_change
                0x0000000008c3a8dd                _ff74
                0x0000000008c3a8de                int_invoke_next
                0x0000000008c3a8e0                rp_time
                0x0000000008c3a8e4                dma_rest
                0x0000000008c3a8e8                c_regs_PC
                0x0000000008c3a8ec                gdma_rest
                0x0000000008c3a8f0                speed
                0x0000000008c3a8f1                int_disable_next
                0x0000000008c3a8f4                _c_regs
                0x0000000008c3a904                seri_occer
                0x0000000008c3a908                ram
                0x0000000008c42908                halt
                0x0000000008c4290a                c_regs_AF
                0x0000000008c4290c                vram
                0x0000000008c4690c                c_regs_BC
                0x0000000008c46910                dma_dest
                0x0000000008c46914                c_regs_DE
                0x0000000008c46918                rest_clock
                0x0000000008c4691c                dma_src
 COMMON         0x0000000008c46920    0x20684 gbcore/gb.o
                0x0000000008c46920                hook_ext
                0x0000000008c46924                cg_regs
                0x0000000008c46934                now_gb_mode
                0x0000000008c46938                gbSkip
                0x0000000008c4693c                re_render
                0x0000000008c46940                use_gba
                0x0000000008c46944                vframe_mem
                0x0000000008c66944                g_regs
                0x0000000008c6695c                dmy
                0x0000000008c66f9c                hook_proc
 COMMON         0x0000000008c66fa4      0x9d0 gbcore/lcd.o
                0x0000000008c66fa4                now_win_line
                0x0000000008c66fa8                inval_col_pal
                0x0000000008c66fe8                tilePalPalette
                0x0000000008c67168                tilePalCrc
                0x0000000008c67198                ztbls
                0x0000000008c671e4                tilePalPalette_invalid
                0x0000000008c67214                layer_enable
                0x0000000008c67218                gbc_cram_expand_table
                0x0000000008c67238                currentPalCache
                0x0000000008c67268                mul
                0x0000000008c6726c                col_pal
                0x0000000008c672ec                tilePalList
                0x0000000008c6746c                sprite_count
                0x0000000008c67470                tileMapTileList
                0x0000000008c67770                tilePalPalette_real
                0x0000000008c678f0                real_col_pal
                0x0000000008c67970                n_mpal16
 COMMON         0x0000000008c67974       0x2d gbcore/mbc.o
                0x0000000008c67974                mbc7_idle
                0x0000000008c67975                mbc7_state
                0x0000000008c67976                mbc3_dayl
                0x0000000008c67978                sram_page
                0x0000000008c6797c                ext_is_ram
                0x0000000008c6797e                mbc7_dat
                0x0000000008c67980                mbc3_latch
                0x0000000008c67981                mbc1_16_8
                0x0000000008c67982                mbc3_sec
                0x0000000008c67983                mbc7_adr
                0x0000000008c67984                mbc7_buf
                0x0000000008c67986                mbc7_count
                0x0000000008c67987                mbc3_min
                0x0000000008c67988                mbc3_timer
                0x0000000008c67989                mbc3_hour
                0x0000000008c6798a                huc1_16_8
                0x0000000008c6798b                mbc1_dat
                0x0000000008c6798c                mbc3_dayh
                0x0000000008c67990                mbc5_dat
                0x0000000008c67994                mbc7_sk
                0x0000000008c67995                mbc7_cs
                0x0000000008c67996                mbc7_op_code
                0x0000000008c67997                mbc7_write_enable
                0x0000000008c67998                mbc7_ret
                0x0000000008c6799c                rom_page
                0x0000000008c679a0                huc1_dat
 *fill*         0x0000000008c679a1        0x3 00
 COMMON         0x0000000008c679a4    0x20039 gbcore/rom.o
                0x0000000008c679a4                info
                0x0000000008c679c4                first_page
                0x0000000008c679c8                dat
                0x0000000008c679cc                sram_space
                0x0000000008c879d0                org_gbtype
                0x0000000008c879d4                sgb_mode
                0x0000000008c879d8                sram
                0x0000000008c879dc                b_loaded
 *fill*         0x0000000008c879dd        0x3 00
 COMMON         0x0000000008c879e0    0x24c60 gbcore/sgb.o
                0x0000000008c879e0                sgb_palette_real
                0x0000000008c87ae0                sgb_palette_memory
                0x0000000008c88ae0                sgb_palette_inval
                0x0000000008c88be0                sgb_buffer
                0x0000000008c88c50                sgb_border
                0x0000000008c89450                sgb_palette
                0x0000000008c89550                sgb_borderchar
                0x0000000008c8b550                sgb_screenbuffer
                0x0000000008c8c590                sgb_ATF_list
                0x0000000008c904d8                sgb_border_buffer
                0x0000000008cac4d8                sgb_ATF
 COMMON         0x0000000008cac640      0x204 cpu/z80.o
                0x0000000008cac640                cpu_readmap
                0x0000000008cac740                cpu_writemap
                0x0000000008cac840                z80_ICount
 COMMON         0x0000000008cac844     0x1004 pio.o
                0x0000000008cac844                io_current
                0x0000000008cac848                io_lut
 COMMON         0x0000000008cad848     0x4084 vdp.o
                0x0000000008cad848                vdp
 COMMON         0x0000000008cb18cc    0x70750 render.o
                0x0000000008cb18cc                linebuf
                0x0000000008cb18d0                bg_pattern_cache
                0x0000000008cd18d0                bp_lut
                0x0000000008d118d0                pixel
                0x0000000008d11910                bg_list_index
                0x0000000008d11914                internal_buffer
                0x0000000008d11a14                render_obj
                0x0000000008d11a18                bg_name_dirty
                0x0000000008d11c18                lut
                0x0000000008d21c18                bg_name_list
                0x0000000008d22018                render_bg
 COMMON         0x0000000008d2201c     0x2818 sms.o
                0x0000000008d2201c                sms
                0x0000000008d24034                dummy_read
                0x0000000008d24434                dummy_write
 COMMON         0x0000000008d24834     0x80ec system.o
                0x0000000008d24834                cart
                0x0000000008d2c84c                bitmap
                0x0000000008d2c90c                input
                0x0000000008d2c91c                frame_underclock
 COMMON         0x0000000008d2c920       0x44 sound/sound.o
                0x0000000008d2c920                smptab
                0x0000000008d2c924                snd
                0x0000000008d2c960                smptab_len
 COMMON         0x0000000008d2c964       0x41 sound/fmintf.o
                0x0000000008d2c964                fm_context
 *fill*         0x0000000008d2c9a5        0x3 00
 COMMON         0x0000000008d2c9a8       0x10 psp/gameboy_render.o
                0x0000000008d2c9a8                cur_time
                0x0000000008d2c9ac                sensor_y
                0x0000000008d2c9b0                pad_state
                0x0000000008d2c9b4                sensor_x
 *fill*         0x0000000008d2c9b8        0x8 00
 COMMON         0x0000000008d2c9c0       0x10 psp/VideoGu.o
                0x0000000008d2c9c0                Screen
                0x0000000008d2c9c8                ScreenTemp
 COMMON         0x0000000008d2c9d0     0xc000 psp/PspSound.o
                0x0000000008d2c9d0                audioOut
                0x0000000008d309d0                audioOutTemp
 COMMON         0x0000000008d389d0      0x104 psp/SMS.o
                0x0000000008d389d0                pixel_values
                0x0000000008d38ad0                sram_crc
 *fill*         0x0000000008d38ad4        0xc 00
 COMMON         0x0000000008d38ae0     0x1f04 psp/menuplus.o
                0x0000000008d38ae0                menuFileSelectFileName
                0x0000000008d38ee0                menuSoundBoxWidth
                0x0000000008d38ef0                dirEntry
                0x0000000008d39050                fadeReason
                0x0000000008d39054                menuStatusBarMessageInd
                0x0000000008d39154                menuPressedKeysAutorepeatDelay
                0x0000000008d39158                msgAboutArrowAlpha
                0x0000000008d39160                gblChoice
                0x0000000008d39174                menuPlusTerminated
                0x0000000008d39178                menuTimeZone
                0x0000000008d3917c                menuIsInGame
                0x0000000008d39180                windowBoxPalette
                0x0000000008d39240                menuUpdateRender
                0x0000000008d39244                menuTempMessageText
                0x0000000008d39344                menuStatusMessage
                0x0000000008d3940c                menuConfig
                0x0000000008d39d28                menuColorCursor
                0x0000000008d39d38                winMsgBox
                0x0000000008d39d6c                menuTempStateMemory
                0x0000000008d39d70                menuPressedKeysAutorepeatMask
                0x0000000008d39d74                menuFileSelectPath
                0x0000000008d3a174                fadeDirection
                0x0000000008d3a178                menuPressedKeys
                0x0000000008d3a1a0                gblHint
                0x0000000008d3a1ac                gblMenuAlpha
                0x0000000008d3a1b0                menuRamStateFileName
                0x0000000008d3a5b0                menuColorSubmenuTitle
                0x0000000008d3a5b4                menuStatusActive
                0x0000000008d3a5b8                gblFlagLoadParams
                0x0000000008d3a5bc                menuMusicLocked
                0x0000000008d3a5c0                msgBoxArrowOffset
                0x0000000008d3a5c4                menuAnimateCursor
                0x0000000008d3a5c8                menuFrameNb
                0x0000000008d3a5cc                menuPressedKeysAutorepeatInit
                0x0000000008d3a5d0                fadeLevel
                0x0000000008d3a5d4                gblColorItPaletteFileName
                0x0000000008d3a9d4                menuDayLightSaving
                0x0000000008d3a9d8                alphaSave
                0x0000000008d3a9e0                menuRamStateMemory
 COMMON         0x0000000008d3a9e4        0xc psp/menuplus2.o
                0x0000000008d3a9e4                menuFileSelectSubMenu
                0x0000000008d3a9e8                menuFileSelectSwap
                0x0000000008d3a9ec                stExtentions
 COMMON         0x0000000008d3a9f0      0x9f4 psp/config.o
                0x0000000008d3a9f0                gblFichierConfig
                0x0000000008d3a9f4                menuDefaultExecute
                0x0000000008d3abf4                chneLabel
                0x0000000008d3afdc                gblVarName
                0x0000000008d3b1dc                retourScript
                0x0000000008d3b1e0                tempValue
                0x0000000008d3b3e0                gblIndice
 COMMON         0x0000000008d3b3e4      0x400 loadrom.o
                0x0000000008d3b3e4                game_name
 COMMON         0x0000000008d3b7e4     0x90f0 psp/gym/psg.o
                0x0000000008d3b7e4                PSG_Volume_Table
                0x0000000008d3b824                PSG_Improv
                0x0000000008d3b828                PSG_Noise_Step_Table
                0x0000000008d3b838                PSG_Step_Table
                0x0000000008d3c838                PSG_Chan_Enable
                0x0000000008d3c848                PSG_Buf
                0x0000000008d3c850                PSG_SIN_Table
                0x0000000008d44850                PSG
                0x0000000008d448b0                PSG_Enable
                0x0000000008d448b4                PSG_Save
 *fill*         0x0000000008d448d4        0x4 00
 COMMON         0x0000000008d448d8    0x33b5c psp/gym/ym2612.o
                0x0000000008d448d8                DR_TAB
                0x0000000008d44a58                DT_TAB
                0x0000000008d44e58                SIN_TAB
                0x0000000008d48e58                LFO_FREQ_TAB
                0x0000000008d49e58                LFO_ENV_UP
                0x0000000008d4bd98                en3
                0x0000000008d4bd9c                LFO_INC_TAB
                0x0000000008d4bdbc                in1
                0x0000000008d4bdc0                YM_Buf
                0x0000000008d4bdc8                en1
                0x0000000008d4bdcc                AR_TAB
                0x0000000008d4bfcc                ENV_TAB
                0x0000000008d53fec                FINC_TAB
                0x0000000008d55fec                DECAY_TO_ATTACK
                0x0000000008d59fec                en0
                0x0000000008d59ff0                LFO_ENV_TAB
                0x0000000008d5aff0                YM2612_Improv
                0x0000000008d5aff4                in3
                0x0000000008d5aff8                in2
                0x0000000008d5affc                Chan_Enable
                0x0000000008d5b014                LFO_FREQ_UP
                0x0000000008d5cf54                int_cnt
                0x0000000008d5cf58                TL_TAB
                0x0000000008d74f58                INTER_TAB
                0x0000000008d76e98                YM2612
                0x0000000008d78368                in0
                0x0000000008d7836c                DAC_Enable
                0x0000000008d78370                NULL_RATE
                0x0000000008d783f0                en2
                0x0000000008d783f4                SL_TAB
 COMMON         0x0000000008d78434        0xc error.o
                0x0000000008d78434                t_error
 COMMON         0x0000000008d78440      0xb54 c:/pspsdk/bin/../lib/gcc/psp/4.3.5/../../../../psp/lib\libosl.a(oslib.o)
                0x0000000008d78440                osl_currentFrameRate
                0x0000000008d78444                osl_remotekeys
                0x0000000008d78448                osl_keys
                0x0000000008d7844c                osl_isinus
                0x0000000008d789f0                osl_icosinus
 COMMON         0x0000000008d78f94       0xc8 c:/pspsdk/bin/../lib/gcc/psp/4.3.5/../../../../psp/lib\libosl.a(drawing.o)
                0x0000000008d78f94                osl_currentAlphaCoeff
                0x0000000008d78f98                osl_currentTexWrapV
                0x0000000008d78f9c                osl_curBuf
                0x0000000008d78fa0                osl_currentAlphaEffect
                0x0000000008d78fa4                osl_defaultBufferImage
                0x0000000008d78ff4                osl_ditheringEnabled
                0x0000000008d78ff8                osl_secondaryBufferImage
                0x0000000008d79048                osl_currentTexWrapU
                0x0000000008d7904c                osl_colorKeyEnabled
                0x0000000008d79050                osl_bilinearFilterEnabled
                0x0000000008d79054                osl_colorKeyValue
                0x0000000008d79058                osl_currentAlphaCoeff2
 COMMON         0x0000000008d7905c       0x44 c:/pspsdk/bin/../lib/gcc/psp/4.3.5/../../../../psp/lib\libosl.a(keys.o)
                0x0000000008d7905c                osl_remote
                0x0000000008d79078                readButtonsFunctions
                0x0000000008d7907c                osl_pad
 *fill*         0x0000000008d790a0       0x20 00
 COMMON         0x0000000008d790c0       0x10 c:/pspsdk/bin/../lib/gcc/psp/4.3.5/../../../../psp/lib\libosl.a(vfpu.o)
                0x0000000008d790c0                vfpu_vars
 COMMON         0x0000000008d790d0        0x8 c:/pspsdk/bin/../lib/gcc/psp/4.3.5/../../../../psp/lib\libosl.a(vram_mgr.o)
                0x0000000008d790d0                osl_vramBlocks
                0x0000000008d790d4                osl_currentVramPtr
 COMMON         0x0000000008d790d8      0x164 c:/pspsdk/bin/../lib/gcc/psp/4.3.5/../../../../psp/lib\libosl.a(audio.o)
                0x0000000008d790d8                osl_audioActive
                0x0000000008d790f8                osl_filesave
                0x0000000008d79118                osl_audioStandBy
                0x0000000008d7911c                osl_audioVoices
 COMMON         0x0000000008d7923c       0x20 c:/pspsdk/bin/../lib/gcc/psp/4.3.5/../../../../psp/lib\libosl.a(usb.o)
                0x0000000008d7923c                modules
 COMMON         0x0000000008d7925c       0x58 c:/pspsdk/bin/../lib/gcc/psp/4.3.5/../../../../psp/lib\libosl.a(VirtualFile.o)
                0x0000000008d7925c                osl_virtualFileList
                0x0000000008d79260                osl_tempFile
                0x0000000008d79270                VirtualFileSources
                0x0000000008d792b0                osl_virtualFileListSize
 COMMON         0x0000000008d792b4      0x804 c:/pspsdk/bin/../lib/gcc/psp/4.3.5/../../../../psp/lib\libosl.a(oslLoadImageFileGIF.o)
                0x0000000008d792b4                osl_gifLineBuf
                0x0000000008d79ab4                osl_gifTempPalette
 COMMON         0x0000000008d79ab8      0x21c c:/pspsdk/psp/sdk/lib\libpspgu.a(guInternal.o)
                0x0000000008d79ab8                gu_draw_buffer
                0x0000000008d79ad8                ge_edram_address
                0x0000000008d79adc                gu_object_stack
                0x0000000008d79b5c                gu_display_on
                0x0000000008d79b60                gu_contexts
                0x0000000008d79c74                gu_states
                0x0000000008d79c78                gu_object_stack_depth
                0x0000000008d79c7c                gu_list
                0x0000000008d79c80                ge_list_executed
                0x0000000008d79c88                gu_current_frame
                0x0000000008d79c8c                gu_curr_context
                0x0000000008d79c90                gu_call_mode
                0x0000000008d79c94                gu_settings
                0x0000000008d79cd0                gu_init
 COMMON         0x0000000008d79cd4        0x4 c:/pspsdk/bin/../lib/gcc/psp/4.3.5/../../../../psp/lib\libc.a(lib_a-reent.o)
                0x0000000008d79cd4                errno
 COMMON         0x0000000008d79cd8     0x1000 c:/pspsdk/bin/../lib/gcc/psp/4.3.5/../../../../psp/lib\libc.a(fdman.o)
                0x0000000008d79cd8                __psp_descriptormap
 COMMON         0x0000000008d7acd8      0x100 c:/pspsdk/bin/../lib/gcc/psp/4.3.5/../../../../psp/lib\libc.a(lib_a-gdtoa-gethex.o)
                0x0000000008d7acd8                __hexdig
                0x0000000008d7add8                . = ALIGN (0x4)
                0x0000000008d7add8                . = ALIGN (0x4)
                0x0000000008d7add8                _end = .
                0x0000000008d7add8                PROVIDE (end, .)

.stab
 *(.stab)

.stabstr
 *(.stabstr)

.stab.excl
 *(.stab.excl)

.stab.exclstr
 *(.stab.exclstr)

.stab.index
 *(.stab.index)

.stab.indexstr
 *(.stab.indexstr)

.comment        0x0000000000000000     0x1cd4
 *(.comment)
 .comment       0x0000000000000000       0x12 c:/pspsdk/bin/../lib/gcc/psp/4.3.5/../../../../psp/lib/crt0.o
 .comment       0x0000000000000012       0x12 c:/pspsdk/bin/../lib/gcc/psp/4.3.5/crtbegin.o
 .comment       0x0000000000000024       0x12 gbcore/apu.o
 .comment       0x0000000000000036       0x12 gbcore/cheat.o
 .comment       0x0000000000000048       0x12 gbcore/cpu.o
 .comment       0x000000000000005a       0x12 gbcore/gb.o
 .comment       0x000000000000006c       0x12 gbcore/lcd.o
 .comment       0x000000000000007e       0x12 gbcore/mbc.o
 .comment       0x0000000000000090       0x12 gbcore/rom.o
 .comment       0x00000000000000a2       0x12 gbcore/sgb.o
 .comment       0x00000000000000b4       0x12 cpu/z80.o
 .comment       0x00000000000000c6       0x12 memz80.o
 .comment       0x00000000000000d8       0x12 pio.o
 .comment       0x00000000000000ea       0x12 vdp.o
 .comment       0x00000000000000fc       0x12 render.o
 .comment       0x000000000000010e       0x12 sms.o
 .comment       0x0000000000000120       0x12 system.o
 .comment       0x0000000000000132       0x12 sound/sound.o
 .comment       0x0000000000000144       0x12 sound/sn76489.o
 .comment       0x0000000000000156       0x12 sound/emu2413.o
 .comment       0x0000000000000168       0x12 sound/ym2413.o
 .comment       0x000000000000017a       0x12 sound/fmintf.o
 .comment       0x000000000000018c       0x12 sound/stream.o
 .comment       0x000000000000019e       0x12 psp/gameboy_render.o
 .comment       0x00000000000001b0       0x12 psp/VideoGu.o
 .comment       0x00000000000001c2       0x12 psp/Controls.o
 .comment       0x00000000000001d4       0x12 psp/PspSound.o
 .comment       0x00000000000001e6       0x12 psp/SMS.o
 .comment       0x00000000000001f8       0x12 psp/main.o
 .comment       0x000000000000020a       0x12 psp/menuplus.o
 .comment       0x000000000000021c       0x12 psp/menuplus2.o
 .comment       0x000000000000022e       0x12 psp/config.o
 .comment       0x0000000000000240       0x12 psp/usb.o
 .comment       0x0000000000000252       0x12 psp/sound.o
 .comment       0x0000000000000264       0x12 fileio.o
 .comment       0x0000000000000276       0x12 state.o
 .comment       0x0000000000000288       0x12 loadrom.o
 .comment       0x000000000000029a       0x12 unzip/ioapi.o
 .comment       0x00000000000002ac       0x12 unzip/unzip.o
 .comment       0x00000000000002be       0x12 psp/gym/gym.o
 .comment       0x00000000000002d0       0x12 psp/gym/gym_play.o
 .comment       0x00000000000002e2       0x12 psp/gym/psg.o
 .comment       0x00000000000002f4       0x12 psp/gym/ym2612.o
 .comment       0x0000000000000306       0x12 psp/gym/bzlib/blocksort.o
 .comment       0x0000000000000318       0x12 psp/gym/bzlib/bzlib.o
 .comment       0x000000000000032a       0x12 psp/gym/bzlib/compress.o
 .comment       0x000000000000033c       0x12 psp/gym/bzlib/crctable.o
 .comment       0x000000000000034e       0x12 psp/gym/bzlib/decompress.o
 .comment       0x0000000000000360       0x12 psp/gym/bzlib/huffman.o
 .comment       0x0000000000000372       0x12 psp/gym/bzlib/randtable.o
 .comment       0x0000000000000384       0x12 psp/vgm/mame_fm.o
 .comment       0x0000000000000396       0x12 psp/vgm/emu2413.o
 .comment       0x00000000000003a8       0x12 psp/vgm/sn76489.o
 .comment       0x00000000000003ba       0x12 psp/vgm/mame_ym2151.o
 .comment       0x00000000000003cc       0x12 psp/vgm/In_vgm.o
 .comment       0x00000000000003de       0x12 psp/gz.o
 .comment       0x00000000000003f0       0x12 psp/VirtualGz.o
 .comment       0x0000000000000402       0x12 psp/deflate.o
 .comment       0x0000000000000414       0x12 psp/gzio.o
 .comment       0x0000000000000426       0x12 error.o
 .comment       0x0000000000000438       0x12 c:/pspsdk/bin/../lib/gcc/psp/4.3.5/../../../../psp/lib\libosl.a(oslib.o)
 .comment       0x000000000000044a       0x12 c:/pspsdk/bin/../lib/gcc/psp/4.3.5/../../../../psp/lib\libosl.a(drawing.o)
 .comment       0x000000000000045c       0x12 c:/pspsdk/bin/../lib/gcc/psp/4.3.5/../../../../psp/lib\libosl.a(image.o)
 .comment       0x000000000000046e       0x12 c:/pspsdk/bin/../lib/gcc/psp/4.3.5/../../../../psp/lib\libosl.a(palette.o)
 .comment       0x0000000000000480       0x12 c:/pspsdk/bin/../lib/gcc/psp/4.3.5/../../../../psp/lib\libosl.a(shape.o)
 .comment       0x0000000000000492       0x12 c:/pspsdk/bin/../lib/gcc/psp/4.3.5/../../../../psp/lib\libosl.a(messagebox.o)
 .comment       0x00000000000004a4       0x12 c:/pspsdk/bin/../lib/gcc/psp/4.3.5/../../../../psp/lib\libosl.a(keys.o)
 .comment       0x00000000000004b6       0x12 c:/pspsdk/bin/../lib/gcc/psp/4.3.5/../../../../psp/lib\libosl.a(vfpu.o)
 .comment       0x00000000000004c8       0x12 c:/pspsdk/bin/../lib/gcc/psp/4.3.5/../../../../psp/lib\libosl.a(text.o)
 .comment       0x00000000000004da       0x12 c:/pspsdk/bin/../lib/gcc/psp/4.3.5/../../../../psp/lib\libosl.a(vram_mgr.o)
 .comment       0x00000000000004ec       0x12 c:/pspsdk/bin/../lib/gcc/psp/4.3.5/../../../../psp/lib\libosl.a(audio.o)
 .comment       0x00000000000004fe       0x12 c:/pspsdk/bin/../lib/gcc/psp/4.3.5/../../../../psp/lib\libosl.a(bgm.o)
 .comment       0x0000000000000510       0x12 c:/pspsdk/bin/../lib/gcc/psp/4.3.5/../../../../psp/lib\libosl.a(usb.o)
 .comment       0x0000000000000522       0x12 c:/pspsdk/bin/../lib/gcc/psp/4.3.5/../../../../psp/lib\libosl.a(VirtualFile.o)
 .comment       0x0000000000000534       0x12 c:/pspsdk/bin/../lib/gcc/psp/4.3.5/../../../../psp/lib\libosl.a(vfsFile.o)
 .comment       0x0000000000000546       0x12 c:/pspsdk/bin/../lib/gcc/psp/4.3.5/../../../../psp/lib\libosl.a(oslDrawImage.o)
 .comment       0x0000000000000558       0x12 c:/pspsdk/bin/../lib/gcc/psp/4.3.5/../../../../psp/lib\libosl.a(oslDrawImageSimple.o)
 .comment       0x000000000000056a       0x12 c:/pspsdk/bin/../lib/gcc/psp/4.3.5/../../../../psp/lib\libosl.a(oslLockImage.o)
 .comment       0x000000000000057c       0x12 c:/pspsdk/bin/../lib/gcc/psp/4.3.5/../../../../psp/lib\libosl.a(oslSwizzleImage.o)
 .comment       0x000000000000058e       0x12 c:/pspsdk/bin/../lib/gcc/psp/4.3.5/../../../../psp/lib\libosl.a(oslSetDrawBuffer.o)
 .comment       0x00000000000005a0       0x12 c:/pspsdk/bin/../lib/gcc/psp/4.3.5/../../../../psp/lib\libosl.a(oslWriteImageFilePNG.o)
 .comment       0x00000000000005b2       0x12 c:/pspsdk/bin/../lib/gcc/psp/4.3.5/../../../../psp/lib\libosl.a(oslLoadImageFile.o)
 .comment       0x00000000000005c4       0x12 c:/pspsdk/bin/../lib/gcc/psp/4.3.5/../../../../psp/lib\libosl.a(intraFont.o)
 .comment       0x00000000000005d6       0x12 c:/pspsdk/bin/../lib/gcc/psp/4.3.5/../../../../psp/lib\libosl.a(libccc.o)
 .comment       0x00000000000005e8       0x12 c:/pspsdk/bin/../lib/gcc/psp/4.3.5/../../../../psp/lib\libosl.a(oslHandleLoadNoFailError.o)
 .comment       0x00000000000005fa       0x12 c:/pspsdk/bin/../lib/gcc/psp/4.3.5/../../../../psp/lib\libosl.a(oslLoadImageFilePNG.o)
 .comment       0x000000000000060c       0x12 c:/pspsdk/bin/../lib/gcc/psp/4.3.5/../../../../psp/lib\libosl.a(oslLoadImageFileJPG.o)
 .comment       0x000000000000061e       0x12 c:/pspsdk/bin/../lib/gcc/psp/4.3.5/../../../../psp/lib\libosl.a(oslLoadImageFileGIF.o)
 .comment       0x0000000000000630       0x12 c:/pspsdk/bin/../lib/gcc/psp/4.3.5/../../../../psp/lib\libosl.a(oslConvertImageTo.o)
 .comment       0x0000000000000642       0x12 c:/pspsdk/bin/../lib/gcc/psp/4.3.5/../../../../psp/lib\libosl.a(oslSetImagePixel.o)
 .comment       0x0000000000000654       0x12 c:/pspsdk/bin/../lib/gcc/psp/4.3.5/../../../../psp/lib\libosl.a(oslGetImagePixel.o)
 .comment       0x0000000000000666       0x12 c:/pspsdk/bin/../lib/gcc/psp/4.3.5/../../../../psp/lib\libosl.a(dgif_lib.o)
 .comment       0x0000000000000678       0x12 c:/pspsdk/bin/../lib/gcc/psp/4.3.5/../../../../psp/lib\libosl.a(gif_err.o)
 .comment       0x000000000000068a       0x12 c:/pspsdk/bin/../lib/gcc/psp/4.3.5/../../../../psp/lib\libosl.a(gifalloc.o)
 .comment       0x000000000000069c       0x12 c:/pspsdk/bin/../lib/gcc/psp/4.3.5/../../../../psp/lib\libpng.a(png.o)
 .comment       0x00000000000006ae       0x12 c:/pspsdk/bin/../lib/gcc/psp/4.3.5/../../../../psp/lib\libpng.a(pngerror.o)
 .comment       0x00000000000006c0       0x12 c:/pspsdk/bin/../lib/gcc/psp/4.3.5/../../../../psp/lib\libpng.a(pngmem.o)
 .comment       0x00000000000006d2       0x12 c:/pspsdk/bin/../lib/gcc/psp/4.3.5/../../../../psp/lib\libpng.a(pngread.o)
 .comment       0x00000000000006e4       0x12 c:/pspsdk/bin/../lib/gcc/psp/4.3.5/../../../../psp/lib\libpng.a(pngrio.o)
 .comment       0x00000000000006f6       0x12 c:/pspsdk/bin/../lib/gcc/psp/4.3.5/../../../../psp/lib\libpng.a(pngrtran.o)
 .comment       0x0000000000000708       0x12 c:/pspsdk/bin/../lib/gcc/psp/4.3.5/../../../../psp/lib\libpng.a(pngrutil.o)
 .comment       0x000000000000071a       0x12 c:/pspsdk/bin/../lib/gcc/psp/4.3.5/../../../../psp/lib\libpng.a(pngset.o)
 .comment       0x000000000000072c       0x12 c:/pspsdk/bin/../lib/gcc/psp/4.3.5/../../../../psp/lib\libpng.a(pngtrans.o)
 .comment       0x000000000000073e       0x12 c:/pspsdk/bin/../lib/gcc/psp/4.3.5/../../../../psp/lib\libpng.a(pngwio.o)
 .comment       0x0000000000000750       0x12 c:/pspsdk/bin/../lib/gcc/psp/4.3.5/../../../../psp/lib\libpng.a(pngwrite.o)
 .comment       0x0000000000000762       0x12 c:/pspsdk/bin/../lib/gcc/psp/4.3.5/../../../../psp/lib\libpng.a(pngwtran.o)
 .comment       0x0000000000000774       0x12 c:/pspsdk/bin/../lib/gcc/psp/4.3.5/../../../../psp/lib\libpng.a(pngwutil.o)
 .comment       0x0000000000000786       0x12 c:/pspsdk/bin/../lib/gcc/psp/4.3.5/../../../../psp/lib\libpng.a(pngget.o)
 .comment       0x0000000000000798       0x12 c:/pspsdk/bin/../lib/gcc/psp/4.3.5/../../../../psp/lib\libz.a(adler32.o)
 .comment       0x00000000000007aa       0x12 c:/pspsdk/bin/../lib/gcc/psp/4.3.5/../../../../psp/lib\libz.a(compress.o)
 .comment       0x00000000000007bc       0x12 c:/pspsdk/bin/../lib/gcc/psp/4.3.5/../../../../psp/lib\libz.a(crc32.o)
 .comment       0x00000000000007ce       0x12 c:/pspsdk/bin/../lib/gcc/psp/4.3.5/../../../../psp/lib\libz.a(inflate.o)
 .comment       0x00000000000007e0       0x12 c:/pspsdk/bin/../lib/gcc/psp/4.3.5/../../../../psp/lib\libz.a(inftrees.o)
 .comment       0x00000000000007f2       0x12 c:/pspsdk/bin/../lib/gcc/psp/4.3.5/../../../../psp/lib\libz.a(trees.o)
 .comment       0x0000000000000804       0x12 c:/pspsdk/bin/../lib/gcc/psp/4.3.5/../../../../psp/lib\libz.a(uncompr.o)
 .comment       0x0000000000000816       0x12 c:/pspsdk/bin/../lib/gcc/psp/4.3.5/../../../../psp/lib\libz.a(zutil.o)
 .comment       0x0000000000000828       0x12 c:/pspsdk/bin/../lib/gcc/psp/4.3.5/../../../../psp/lib\libz.a(inffast.o)
 .comment       0x000000000000083a       0x12 c:/pspsdk/bin/../lib/gcc/psp/4.3.5/../../../../psp/lib\libjpeg.a(jdapimin.o)
 .comment       0x000000000000084c       0x12 c:/pspsdk/bin/../lib/gcc/psp/4.3.5/../../../../psp/lib\libjpeg.a(jdapistd.o)
 .comment       0x000000000000085e       0x12 c:/pspsdk/bin/../lib/gcc/psp/4.3.5/../../../../psp/lib\libjpeg.a(jdatasrc.o)
 .comment       0x0000000000000870       0x12 c:/pspsdk/bin/../lib/gcc/psp/4.3.5/../../../../psp/lib\libjpeg.a(jdmaster.o)
 .comment       0x0000000000000882       0x12 c:/pspsdk/bin/../lib/gcc/psp/4.3.5/../../../../psp/lib\libjpeg.a(jdinput.o)
 .comment       0x0000000000000894       0x12 c:/pspsdk/bin/../lib/gcc/psp/4.3.5/../../../../psp/lib\libjpeg.a(jdmarker.o)
 .comment       0x00000000000008a6       0x12 c:/pspsdk/bin/../lib/gcc/psp/4.3.5/../../../../psp/lib\libjpeg.a(jdhuff.o)
 .comment       0x00000000000008b8       0x12 c:/pspsdk/bin/../lib/gcc/psp/4.3.5/../../../../psp/lib\libjpeg.a(jdmainct.o)
 .comment       0x00000000000008ca       0x12 c:/pspsdk/bin/../lib/gcc/psp/4.3.5/../../../../psp/lib\libjpeg.a(jdcoefct.o)
 .comment       0x00000000000008dc       0x12 c:/pspsdk/bin/../lib/gcc/psp/4.3.5/../../../../psp/lib\libjpeg.a(jdpostct.o)
 .comment       0x00000000000008ee       0x12 c:/pspsdk/bin/../lib/gcc/psp/4.3.5/../../../../psp/lib\libjpeg.a(jddctmgr.o)
 .comment       0x0000000000000900       0x12 c:/pspsdk/bin/../lib/gcc/psp/4.3.5/../../../../psp/lib\libjpeg.a(jidctfst.o)
 .comment       0x0000000000000912       0x12 c:/pspsdk/bin/../lib/gcc/psp/4.3.5/../../../../psp/lib\libjpeg.a(jidctflt.o)
 .comment       0x0000000000000924       0x12 c:/pspsdk/bin/../lib/gcc/psp/4.3.5/../../../../psp/lib\libjpeg.a(jidctint.o)
 .comment       0x0000000000000936       0x12 c:/pspsdk/bin/../lib/gcc/psp/4.3.5/../../../../psp/lib\libjpeg.a(jdsample.o)
 .comment       0x0000000000000948       0x12 c:/pspsdk/bin/../lib/gcc/psp/4.3.5/../../../../psp/lib\libjpeg.a(jdcolor.o)
 .comment       0x000000000000095a       0x12 c:/pspsdk/bin/../lib/gcc/psp/4.3.5/../../../../psp/lib\libjpeg.a(jquant1.o)
 .comment       0x000000000000096c       0x12 c:/pspsdk/bin/../lib/gcc/psp/4.3.5/../../../../psp/lib\libjpeg.a(jquant2.o)
 .comment       0x000000000000097e       0x12 c:/pspsdk/bin/../lib/gcc/psp/4.3.5/../../../../psp/lib\libjpeg.a(jdmerge.o)
 .comment       0x0000000000000990       0x12 c:/pspsdk/bin/../lib/gcc/psp/4.3.5/../../../../psp/lib\libjpeg.a(jcomapi.o)
 .comment       0x00000000000009a2       0x12 c:/pspsdk/bin/../lib/gcc/psp/4.3.5/../../../../psp/lib\libjpeg.a(jutils.o)
 .comment       0x00000000000009b4       0x12 c:/pspsdk/bin/../lib/gcc/psp/4.3.5/../../../../psp/lib\libjpeg.a(jerror.o)
 .comment       0x00000000000009c6       0x12 c:/pspsdk/bin/../lib/gcc/psp/4.3.5/../../../../psp/lib\libjpeg.a(jmemmgr.o)
 .comment       0x00000000000009d8       0x12 c:/pspsdk/bin/../lib/gcc/psp/4.3.5/../../../../psp/lib\libjpeg.a(jmemnobs.o)
 .comment       0x00000000000009ea       0x12 c:/pspsdk/bin/../lib/gcc/psp/4.3.5/../../../../psp/lib\libjpeg.a(jdarith.o)
 .comment       0x00000000000009fc       0x12 c:/pspsdk/bin/../lib/gcc/psp/4.3.5/../../../../psp/lib\libjpeg.a(jaricom.o)
 .comment       0x0000000000000a0e       0x12 c:/pspsdk/psp/sdk/lib\libpspsdk.a(loadmodule.o)
 .comment       0x0000000000000a20       0x12 c:/pspsdk/psp/sdk/lib\libpspgu.a(sceGuAlphaFunc.o)
 .comment       0x0000000000000a32       0x12 c:/pspsdk/psp/sdk/lib\libpspgu.a(sceGuAmbientColor.o)
 .comment       0x0000000000000a44       0x12 c:/pspsdk/psp/sdk/lib\libpspgu.a(sceGuBlendFunc.o)
 .comment       0x0000000000000a56       0x12 c:/pspsdk/psp/sdk/lib\libpspgu.a(sceGuClear.o)
 .comment       0x0000000000000a68       0x12 c:/pspsdk/psp/sdk/lib\libpspgu.a(sceGuClearColor.o)
 .comment       0x0000000000000a7a       0x12 c:/pspsdk/psp/sdk/lib\libpspgu.a(sceGuClutLoad.o)
 .comment       0x0000000000000a8c       0x12 c:/pspsdk/psp/sdk/lib\libpspgu.a(sceGuClutMode.o)
 .comment       0x0000000000000a9e       0x12 c:/pspsdk/psp/sdk/lib\libpspgu.a(sceGuColorFunc.o)
 .comment       0x0000000000000ab0       0x12 c:/pspsdk/psp/sdk/lib\libpspgu.a(sceGuDepthBuffer.o)
 .comment       0x0000000000000ac2       0x12 c:/pspsdk/psp/sdk/lib\libpspgu.a(sceGuDepthFunc.o)
 .comment       0x0000000000000ad4       0x12 c:/pspsdk/psp/sdk/lib\libpspgu.a(sceGuDepthRange.o)
 .comment       0x0000000000000ae6       0x12 c:/pspsdk/psp/sdk/lib\libpspgu.a(sceGuDisable.o)
 .comment       0x0000000000000af8       0x12 c:/pspsdk/psp/sdk/lib\libpspgu.a(sceGuDispBuffer.o)
 .comment       0x0000000000000b0a       0x12 c:/pspsdk/psp/sdk/lib\libpspgu.a(sceGuDisplay.o)
 .comment       0x0000000000000b1c       0x12 c:/pspsdk/psp/sdk/lib\libpspgu.a(sceGuDrawArray.o)
 .comment       0x0000000000000b2e       0x12 c:/pspsdk/psp/sdk/lib\libpspgu.a(sceGuDrawBuffer.o)
 .comment       0x0000000000000b40       0x12 c:/pspsdk/psp/sdk/lib\libpspgu.a(sceGuEnable.o)
 .comment       0x0000000000000b52       0x12 c:/pspsdk/psp/sdk/lib\libpspgu.a(sceGuFinish.o)
 .comment       0x0000000000000b64       0x12 c:/pspsdk/psp/sdk/lib\libpspgu.a(sceGuFrontFace.o)
 .comment       0x0000000000000b76       0x12 c:/pspsdk/psp/sdk/lib\libpspgu.a(sceGuGetMemory.o)
 .comment       0x0000000000000b88       0x12 c:/pspsdk/psp/sdk/lib\libpspgu.a(sceGuInit.o)
 .comment       0x0000000000000b9a       0x12 c:/pspsdk/psp/sdk/lib\libpspgu.a(sceGuOffset.o)
 .comment       0x0000000000000bac       0x12 c:/pspsdk/psp/sdk/lib\libpspgu.a(sceGuScissor.o)
 .comment       0x0000000000000bbe       0x12 c:/pspsdk/psp/sdk/lib\libpspgu.a(sceGuShadeModel.o)
 .comment       0x0000000000000bd0       0x12 c:/pspsdk/psp/sdk/lib\libpspgu.a(sceGuStart.o)
 .comment       0x0000000000000be2       0x12 c:/pspsdk/psp/sdk/lib\libpspgu.a(sceGuStencilFunc.o)
 .comment       0x0000000000000bf4       0x12 c:/pspsdk/psp/sdk/lib\libpspgu.a(sceGuStencilOp.o)
 .comment       0x0000000000000c06       0x12 c:/pspsdk/psp/sdk/lib\libpspgu.a(sceGuSwapBuffers.o)
 .comment       0x0000000000000c18       0x12 c:/pspsdk/psp/sdk/lib\libpspgu.a(sceGuSync.o)
 .comment       0x0000000000000c2a       0x12 c:/pspsdk/psp/sdk/lib\libpspgu.a(sceGuTerm.o)
 .comment       0x0000000000000c3c       0x12 c:/pspsdk/psp/sdk/lib\libpspgu.a(sceGuTexEnvColor.o)
 .comment       0x0000000000000c4e       0x12 c:/pspsdk/psp/sdk/lib\libpspgu.a(sceGuTexFilter.o)
 .comment       0x0000000000000c60       0x12 c:/pspsdk/psp/sdk/lib\libpspgu.a(sceGuTexFunc.o)
 .comment       0x0000000000000c72       0x12 c:/pspsdk/psp/sdk/lib\libpspgu.a(sceGuTexImage.o)
 .comment       0x0000000000000c84       0x12 c:/pspsdk/psp/sdk/lib\libpspgu.a(sceGuTexMode.o)
 .comment       0x0000000000000c96       0x12 c:/pspsdk/psp/sdk/lib\libpspgu.a(sceGuTexOffset.o)
 .comment       0x0000000000000ca8       0x12 c:/pspsdk/psp/sdk/lib\libpspgu.a(sceGuTexScale.o)
 .comment       0x0000000000000cba       0x12 c:/pspsdk/psp/sdk/lib\libpspgu.a(sceGuTexWrap.o)
 .comment       0x0000000000000ccc       0x12 c:/pspsdk/psp/sdk/lib\libpspgu.a(sceGuViewport.o)
 .comment       0x0000000000000cde       0x12 c:/pspsdk/psp/sdk/lib\libpspgu.a(sendCommand.o)
 .comment       0x0000000000000cf0       0x12 c:/pspsdk/psp/sdk/lib\libpspgu.a(callbackFin.o)
 .comment       0x0000000000000d02       0x12 c:/pspsdk/psp/sdk/lib\libpspgu.a(callbackSig.o)
 .comment       0x0000000000000d14       0x12 c:/pspsdk/psp/sdk/lib\libpspgu.a(guInternal.o)
 .comment       0x0000000000000d26       0x12 c:/pspsdk/psp/sdk/lib\libpspgu.a(resetValues.o)
 .comment       0x0000000000000d38       0x12 c:/pspsdk/psp/sdk/lib\libpspgu.a(sceGuColorMaterial.o)
 .comment       0x0000000000000d4a       0x12 c:/pspsdk/psp/sdk/lib\libpspgu.a(sceGuPatchDivide.o)
 .comment       0x0000000000000d5c       0x12 c:/pspsdk/psp/sdk/lib\libpspgu.a(sceGuSetDither.o)
 .comment       0x0000000000000d6e       0x12 c:/pspsdk/psp/sdk/lib\libpspgu.a(sceGuSpecular.o)
 .comment       0x0000000000000d80       0x12 c:/pspsdk/psp/sdk/lib\libpspgu.a(sceGuTexFlush.o)
 .comment       0x0000000000000d92       0x12 c:/pspsdk/bin/../lib/gcc/psp/4.3.5/../../../../psp/lib\libstdc++.a(del_op.o)
 .comment       0x0000000000000da4       0x12 c:/pspsdk/bin/../lib/gcc/psp/4.3.5/../../../../psp/lib\libstdc++.a(del_opv.o)
 .comment       0x0000000000000db6       0x12 c:/pspsdk/bin/../lib/gcc/psp/4.3.5/../../../../psp/lib\libstdc++.a(new_op.o)
 .comment       0x0000000000000dc8       0x12 c:/pspsdk/bin/../lib/gcc/psp/4.3.5/../../../../psp/lib\libstdc++.a(new_opv.o)
 .comment       0x0000000000000dda       0x12 c:/pspsdk/bin/../lib/gcc/psp/4.3.5/../../../../psp/lib\libstdc++.a(eh_alloc.o)
 .comment       0x0000000000000dec       0x12 c:/pspsdk/bin/../lib/gcc/psp/4.3.5/../../../../psp/lib\libstdc++.a(eh_globals.o)
 .comment       0x0000000000000dfe       0x12 c:/pspsdk/bin/../lib/gcc/psp/4.3.5/../../../../psp/lib\libstdc++.a(eh_personality.o)
 .comment       0x0000000000000e10       0x12 c:/pspsdk/bin/../lib/gcc/psp/4.3.5/../../../../psp/lib\libstdc++.a(eh_terminate.o)
 .comment       0x0000000000000e22       0x12 c:/pspsdk/bin/../lib/gcc/psp/4.3.5/../../../../psp/lib\libstdc++.a(eh_term_handler.o)
 .comment       0x0000000000000e34       0x12 c:/pspsdk/bin/../lib/gcc/psp/4.3.5/../../../../psp/lib\libstdc++.a(eh_throw.o)
 .comment       0x0000000000000e46       0x12 c:/pspsdk/bin/../lib/gcc/psp/4.3.5/../../../../psp/lib\libstdc++.a(eh_unex_handler.o)
 .comment       0x0000000000000e58       0x12 c:/pspsdk/bin/../lib/gcc/psp/4.3.5/../../../../psp/lib\libstdc++.a(new_handler.o)
 .comment       0x0000000000000e6a       0x12 c:/pspsdk/bin/../lib/gcc/psp/4.3.5/../../../../psp/lib\libstdc++.a(si_class_type_info.o)
 .comment       0x0000000000000e7c       0x12 c:/pspsdk/bin/../lib/gcc/psp/4.3.5/../../../../psp/lib\libstdc++.a(tinfo.o)
 .comment       0x0000000000000e8e       0x12 c:/pspsdk/bin/../lib/gcc/psp/4.3.5/../../../../psp/lib\libstdc++.a(vterminate.o)
 .comment       0x0000000000000ea0       0x12 c:/pspsdk/bin/../lib/gcc/psp/4.3.5/../../../../psp/lib\libstdc++.a(class_type_info.o)
 .comment       0x0000000000000eb2       0x12 c:/pspsdk/bin/../lib/gcc/psp/4.3.5/../../../../psp/lib\libstdc++.a(cp-demangle.o)
 .comment       0x0000000000000ec4       0x12 c:/pspsdk/bin/../lib/gcc/psp/4.3.5/../../../../psp/lib\libstdc++.a(eh_call.o)
 .comment       0x0000000000000ed6       0x12 c:/pspsdk/bin/../lib/gcc/psp/4.3.5/../../../../psp/lib\libstdc++.a(eh_catch.o)
 .comment       0x0000000000000ee8       0x12 c:/pspsdk/bin/../lib/gcc/psp/4.3.5/../../../../psp/lib\libstdc++.a(eh_exception.o)
 .comment       0x0000000000000efa       0x12 c:/pspsdk/bin/../lib/gcc/psp/4.3.5/../../../../psp/lib\libstdc++.a(eh_type.o)
 .comment       0x0000000000000f0c       0x12 c:/pspsdk/bin/../lib/gcc/psp/4.3.5/../../../../psp/lib\libstdc++.a(pure.o)
 .comment       0x0000000000000f1e       0x12 c:/pspsdk/bin/../lib/gcc/psp/4.3.5/../../../../psp/lib\libm.a(lib_a-s_ceil.o)
 .comment       0x0000000000000f30       0x12 c:/pspsdk/bin/../lib/gcc/psp/4.3.5/../../../../psp/lib\libm.a(lib_a-s_floor.o)
 .comment       0x0000000000000f42       0x12 c:/pspsdk/bin/../lib/gcc/psp/4.3.5/../../../../psp/lib\libm.a(lib_a-s_log.o)
 .comment       0x0000000000000f54       0x12 c:/pspsdk/bin/../lib/gcc/psp/4.3.5/../../../../psp/lib\libm.a(lib_a-s_log10.o)
 .comment       0x0000000000000f66       0x12 c:/pspsdk/bin/../lib/gcc/psp/4.3.5/../../../../psp/lib\libm.a(lib_a-s_logarithm.o)
 .comment       0x0000000000000f78       0x12 c:/pspsdk/bin/../lib/gcc/psp/4.3.5/../../../../psp/lib\libm.a(lib_a-s_mathcnst.o)
 .comment       0x0000000000000f8a       0x12 c:/pspsdk/bin/../lib/gcc/psp/4.3.5/../../../../psp/lib\libm.a(lib_a-s_modf.o)
 .comment       0x0000000000000f9c       0x12 c:/pspsdk/bin/../lib/gcc/psp/4.3.5/../../../../psp/lib\libm.a(lib_a-s_pow.o)
 .comment       0x0000000000000fae       0x12 c:/pspsdk/bin/../lib/gcc/psp/4.3.5/../../../../psp/lib\libm.a(lib_a-s_sin.o)
 .comment       0x0000000000000fc0       0x12 c:/pspsdk/bin/../lib/gcc/psp/4.3.5/../../../../psp/lib\libm.a(lib_a-s_sine.o)
 .comment       0x0000000000000fd2       0x12 c:/pspsdk/bin/../lib/gcc/psp/4.3.5/../../../../psp/lib\libm.a(lib_a-s_sqrt.o)
 .comment       0x0000000000000fe4       0x12 c:/pspsdk/bin/../lib/gcc/psp/4.3.5/../../../../psp/lib\libm.a(lib_a-s_exp.o)
 .comment       0x0000000000000ff6       0x12 c:/pspsdk/bin/../lib/gcc/psp/4.3.5/../../../../psp/lib\libm.a(lib_a-s_fabs.o)
 .comment       0x0000000000001008       0x12 c:/pspsdk/bin/../lib/gcc/psp/4.3.5/../../../../psp/lib\libm.a(lib_a-s_fpclassify.o)
 .comment       0x000000000000101a       0x12 c:/pspsdk/bin/../lib/gcc/psp/4.3.5/../../../../psp/lib\libm.a(lib_a-s_frexp.o)
 .comment       0x000000000000102c       0x12 c:/pspsdk/bin/../lib/gcc/psp/4.3.5/../../../../psp/lib\libm.a(lib_a-s_ispos.o)
 .comment       0x000000000000103e       0x12 c:/pspsdk/bin/../lib/gcc/psp/4.3.5/../../../../psp/lib\libm.a(lib_a-s_ldexp.o)
 .comment       0x0000000000001050       0x12 c:/pspsdk/bin/../lib/gcc/psp/4.3.5/../../../../psp/lib\libm.a(lib_a-s_numtest.o)
 .comment       0x0000000000001062       0x12 c:/pspsdk/bin/../lib/gcc/psp/4.3.5/../../../../psp/lib\libc.a(fprintf.o)
 .comment       0x0000000000001074       0x12 c:/pspsdk/bin/../lib/gcc/psp/4.3.5/../../../../psp/lib\libc.a(lib_a-abort.o)
 .comment       0x0000000000001086       0x12 c:/pspsdk/bin/../lib/gcc/psp/4.3.5/../../../../psp/lib\libc.a(lib_a-atexit.o)
 .comment       0x0000000000001098       0x12 c:/pspsdk/bin/../lib/gcc/psp/4.3.5/../../../../psp/lib\libc.a(lib_a-atof.o)
 .comment       0x00000000000010aa       0x12 c:/pspsdk/bin/../lib/gcc/psp/4.3.5/../../../../psp/lib\libc.a(lib_a-atoi.o)
 .comment       0x00000000000010bc       0x12 c:/pspsdk/bin/../lib/gcc/psp/4.3.5/../../../../psp/lib\libc.a(lib_a-calloc.o)
 .comment       0x00000000000010ce       0x12 c:/pspsdk/bin/../lib/gcc/psp/4.3.5/../../../../psp/lib\libc.a(lib_a-callocr.o)
 .comment       0x00000000000010e0       0x12 c:/pspsdk/bin/../lib/gcc/psp/4.3.5/../../../../psp/lib\libc.a(lib_a-ctype_.o)
 .comment       0x00000000000010f2       0x12 c:/pspsdk/bin/../lib/gcc/psp/4.3.5/../../../../psp/lib\libc.a(lib_a-errno.o)
 .comment       0x0000000000001104       0x12 c:/pspsdk/bin/../lib/gcc/psp/4.3.5/../../../../psp/lib\libc.a(lib_a-exit.o)
 .comment       0x0000000000001116       0x12 c:/pspsdk/bin/../lib/gcc/psp/4.3.5/../../../../psp/lib\libc.a(lib_a-fclose.o)
 .comment       0x0000000000001128       0x12 c:/pspsdk/bin/../lib/gcc/psp/4.3.5/../../../../psp/lib\libc.a(lib_a-fdopen.o)
 .comment       0x000000000000113a       0x12 c:/pspsdk/bin/../lib/gcc/psp/4.3.5/../../../../psp/lib\libc.a(lib_a-fflush.o)
 .comment       0x000000000000114c       0x12 c:/pspsdk/bin/../lib/gcc/psp/4.3.5/../../../../psp/lib\libc.a(lib_a-fgetc.o)
 .comment       0x000000000000115e       0x12 c:/pspsdk/bin/../lib/gcc/psp/4.3.5/../../../../psp/lib\libc.a(lib_a-fgets.o)
 .comment       0x0000000000001170       0x12 c:/pspsdk/bin/../lib/gcc/psp/4.3.5/../../../../psp/lib\libc.a(lib_a-findfp.o)
 .comment       0x0000000000001182       0x12 c:/pspsdk/bin/../lib/gcc/psp/4.3.5/../../../../psp/lib\libc.a(lib_a-flags.o)
 .comment       0x0000000000001194       0x12 c:/pspsdk/bin/../lib/gcc/psp/4.3.5/../../../../psp/lib\libc.a(lib_a-fmemopen.o)
 .comment       0x00000000000011a6       0x12 c:/pspsdk/bin/../lib/gcc/psp/4.3.5/../../../../psp/lib\libc.a(lib_a-fopen.o)
 .comment       0x00000000000011b8       0x12 c:/pspsdk/bin/../lib/gcc/psp/4.3.5/../../../../psp/lib\libc.a(lib_a-fputc.o)
 .comment       0x00000000000011ca       0x12 c:/pspsdk/bin/../lib/gcc/psp/4.3.5/../../../../psp/lib\libc.a(lib_a-fputs.o)
 .comment       0x00000000000011dc       0x12 c:/pspsdk/bin/../lib/gcc/psp/4.3.5/../../../../psp/lib\libc.a(lib_a-fread.o)
 .comment       0x00000000000011ee       0x12 c:/pspsdk/bin/../lib/gcc/psp/4.3.5/../../../../psp/lib\libc.a(lib_a-freer.o)
 .comment       0x0000000000001200       0x12 c:/pspsdk/bin/../lib/gcc/psp/4.3.5/../../../../psp/lib\libc.a(lib_a-fseek.o)
 .comment       0x0000000000001212       0x12 c:/pspsdk/bin/../lib/gcc/psp/4.3.5/../../../../psp/lib\libc.a(lib_a-fstatr.o)
 .comment       0x0000000000001224       0x12 c:/pspsdk/bin/../lib/gcc/psp/4.3.5/../../../../psp/lib\libc.a(lib_a-ftell.o)
 .comment       0x0000000000001236       0x12 c:/pspsdk/bin/../lib/gcc/psp/4.3.5/../../../../psp/lib\libc.a(lib_a-fvwrite.o)
 .comment       0x0000000000001248       0x12 c:/pspsdk/bin/../lib/gcc/psp/4.3.5/../../../../psp/lib\libc.a(lib_a-fwalk.o)
 .comment       0x000000000000125a       0x12 c:/pspsdk/bin/../lib/gcc/psp/4.3.5/../../../../psp/lib\libc.a(lib_a-fwrite.o)
 .comment       0x000000000000126c       0x12 c:/pspsdk/bin/../lib/gcc/psp/4.3.5/../../../../psp/lib\libc.a(lib_a-getenv.o)
 .comment       0x000000000000127e       0x12 c:/pspsdk/bin/../lib/gcc/psp/4.3.5/../../../../psp/lib\libc.a(lib_a-getenv_r.o)
 .comment       0x0000000000001290       0x12 c:/pspsdk/bin/../lib/gcc/psp/4.3.5/../../../../psp/lib\libc.a(lib_a-gmtime.o)
 .comment       0x00000000000012a2       0x12 c:/pspsdk/bin/../lib/gcc/psp/4.3.5/../../../../psp/lib\libc.a(lib_a-gmtime_r.o)
 .comment       0x00000000000012b4       0x12 c:/pspsdk/bin/../lib/gcc/psp/4.3.5/../../../../psp/lib\libc.a(lib_a-impure.o)
 .comment       0x00000000000012c6       0x12 c:/pspsdk/bin/../lib/gcc/psp/4.3.5/../../../../psp/lib\libc.a(lib_a-iprintf.o)
 .comment       0x00000000000012d8       0x12 c:/pspsdk/bin/../lib/gcc/psp/4.3.5/../../../../psp/lib\libc.a(lib_a-lcltime.o)
 .comment       0x00000000000012ea       0x12 c:/pspsdk/bin/../lib/gcc/psp/4.3.5/../../../../psp/lib\libc.a(lib_a-lcltime_r.o)
 .comment       0x00000000000012fc       0x12 c:/pspsdk/bin/../lib/gcc/psp/4.3.5/../../../../psp/lib\libc.a(lib_a-makebuf.o)
 .comment       0x000000000000130e       0x12 c:/pspsdk/bin/../lib/gcc/psp/4.3.5/../../../../psp/lib\libc.a(lib_a-malign.o)
 .comment       0x0000000000001320       0x12 c:/pspsdk/bin/../lib/gcc/psp/4.3.5/../../../../psp/lib\libc.a(lib_a-malignr.o)
 .comment       0x0000000000001332       0x12 c:/pspsdk/bin/../lib/gcc/psp/4.3.5/../../../../psp/lib\libc.a(lib_a-malloc.o)
 .comment       0x0000000000001344       0x12 c:/pspsdk/bin/../lib/gcc/psp/4.3.5/../../../../psp/lib\libc.a(lib_a-mallocr.o)
 .comment       0x0000000000001356       0x12 c:/pspsdk/bin/../lib/gcc/psp/4.3.5/../../../../psp/lib\libc.a(lib_a-memchr.o)
 .comment       0x0000000000001368       0x12 c:/pspsdk/bin/../lib/gcc/psp/4.3.5/../../../../psp/lib\libc.a(lib_a-memcmp.o)
 .comment       0x000000000000137a       0x12 c:/pspsdk/bin/../lib/gcc/psp/4.3.5/../../../../psp/lib\libc.a(lib_a-memcpy.o)
 .comment       0x000000000000138c       0x12 c:/pspsdk/bin/../lib/gcc/psp/4.3.5/../../../../psp/lib\libc.a(lib_a-memmove.o)
 .comment       0x000000000000139e       0x12 c:/pspsdk/bin/../lib/gcc/psp/4.3.5/../../../../psp/lib\libc.a(lib_a-memset.o)
 .comment       0x00000000000013b0       0x12 c:/pspsdk/bin/../lib/gcc/psp/4.3.5/../../../../psp/lib\libc.a(lib_a-mktm_r.o)
 .comment       0x00000000000013c2       0x12 c:/pspsdk/bin/../lib/gcc/psp/4.3.5/../../../../psp/lib\libc.a(lib_a-mlock.o)
 .comment       0x00000000000013d4       0x12 c:/pspsdk/bin/../lib/gcc/psp/4.3.5/../../../../psp/lib\libc.a(lib_a-openr.o)
 .comment       0x00000000000013e6       0x12 c:/pspsdk/bin/../lib/gcc/psp/4.3.5/../../../../psp/lib\libc.a(lib_a-putc.o)
 .comment       0x00000000000013f8       0x12 c:/pspsdk/bin/../lib/gcc/psp/4.3.5/../../../../psp/lib\libc.a(lib_a-rand.o)
 .comment       0x000000000000140a       0x12 c:/pspsdk/bin/../lib/gcc/psp/4.3.5/../../../../psp/lib\libc.a(lib_a-realloc.o)
 .comment       0x000000000000141c       0x12 c:/pspsdk/bin/../lib/gcc/psp/4.3.5/../../../../psp/lib\libc.a(lib_a-reallocr.o)
 .comment       0x000000000000142e       0x12 c:/pspsdk/bin/../lib/gcc/psp/4.3.5/../../../../psp/lib\libc.a(lib_a-reent.o)
 .comment       0x0000000000001440       0x12 c:/pspsdk/bin/../lib/gcc/psp/4.3.5/../../../../psp/lib\libc.a(lib_a-refill.o)
 .comment       0x0000000000001452       0x12 c:/pspsdk/bin/../lib/gcc/psp/4.3.5/../../../../psp/lib\libc.a(lib_a-rget.o)
 .comment       0x0000000000001464       0x12 c:/pspsdk/bin/../lib/gcc/psp/4.3.5/../../../../psp/lib\libc.a(lib_a-sbrkr.o)
 .comment       0x0000000000001476       0x12 c:/pspsdk/bin/../lib/gcc/psp/4.3.5/../../../../psp/lib\libc.a(lib_a-signal.o)
 .comment       0x0000000000001488       0x12 c:/pspsdk/bin/../lib/gcc/psp/4.3.5/../../../../psp/lib\libc.a(lib_a-signalr.o)
 .comment       0x000000000000149a       0x12 c:/pspsdk/bin/../lib/gcc/psp/4.3.5/../../../../psp/lib\libc.a(lib_a-snprintf.o)
 .comment       0x00000000000014ac       0x12 c:/pspsdk/bin/../lib/gcc/psp/4.3.5/../../../../psp/lib\libc.a(lib_a-sprintf.o)
 .comment       0x00000000000014be       0x12 c:/pspsdk/bin/../lib/gcc/psp/4.3.5/../../../../psp/lib\libc.a(lib_a-sscanf.o)
 .comment       0x00000000000014d0       0x12 c:/pspsdk/bin/../lib/gcc/psp/4.3.5/../../../../psp/lib\libc.a(lib_a-stdio.o)
 .comment       0x00000000000014e2       0x12 c:/pspsdk/bin/../lib/gcc/psp/4.3.5/../../../../psp/lib\libc.a(lib_a-strcasecmp.o)
 .comment       0x00000000000014f4       0x12 c:/pspsdk/bin/../lib/gcc/psp/4.3.5/../../../../psp/lib\libc.a(lib_a-strcat.o)
 .comment       0x0000000000001506       0x12 c:/pspsdk/bin/../lib/gcc/psp/4.3.5/../../../../psp/lib\libc.a(lib_a-strchr.o)
 .comment       0x0000000000001518       0x12 c:/pspsdk/bin/../lib/gcc/psp/4.3.5/../../../../psp/lib\libc.a(lib_a-strcmp.o)
 .comment       0x000000000000152a       0x12 c:/pspsdk/bin/../lib/gcc/psp/4.3.5/../../../../psp/lib\libc.a(lib_a-strcpy.o)
 .comment       0x000000000000153c       0x12 c:/pspsdk/bin/../lib/gcc/psp/4.3.5/../../../../psp/lib\libc.a(lib_a-strerror.o)
 .comment       0x000000000000154e       0x12 c:/pspsdk/bin/../lib/gcc/psp/4.3.5/../../../../psp/lib\libc.a(lib_a-strlen.o)
 .comment       0x0000000000001560       0x12 c:/pspsdk/bin/../lib/gcc/psp/4.3.5/../../../../psp/lib\libc.a(lib_a-strncmp.o)
 .comment       0x0000000000001572       0x12 c:/pspsdk/bin/../lib/gcc/psp/4.3.5/../../../../psp/lib\libc.a(lib_a-strncpy.o)
 .comment       0x0000000000001584       0x12 c:/pspsdk/bin/../lib/gcc/psp/4.3.5/../../../../psp/lib\libc.a(lib_a-strrchr.o)
 .comment       0x0000000000001596       0x12 c:/pspsdk/bin/../lib/gcc/psp/4.3.5/../../../../psp/lib\libc.a(lib_a-strtod.o)
 .comment       0x00000000000015a8       0x12 c:/pspsdk/bin/../lib/gcc/psp/4.3.5/../../../../psp/lib\libc.a(lib_a-strtol.o)
 .comment       0x00000000000015ba       0x12 c:/pspsdk/bin/../lib/gcc/psp/4.3.5/../../../../psp/lib\libc.a(lib_a-svfprintf.o)
 .comment       0x00000000000015cc       0x12 c:/pspsdk/bin/../lib/gcc/psp/4.3.5/../../../../psp/lib\libc.a(lib_a-svfscanf.o)
 .comment       0x00000000000015de       0x12 c:/pspsdk/bin/../lib/gcc/psp/4.3.5/../../../../psp/lib\libc.a(lib_a-sysgettod.o)
 .comment       0x00000000000015f0       0x12 c:/pspsdk/bin/../lib/gcc/psp/4.3.5/../../../../psp/lib\libc.a(lib_a-syswrite.o)
 .comment       0x0000000000001602       0x12 c:/pspsdk/bin/../lib/gcc/psp/4.3.5/../../../../psp/lib\libc.a(lib_a-time.o)
 .comment       0x0000000000001614       0x12 c:/pspsdk/bin/../lib/gcc/psp/4.3.5/../../../../psp/lib\libc.a(lib_a-tzlock.o)
 .comment       0x0000000000001626       0x12 c:/pspsdk/bin/../lib/gcc/psp/4.3.5/../../../../psp/lib\libc.a(lib_a-tzvars.o)
 .comment       0x0000000000001638       0x12 c:/pspsdk/bin/../lib/gcc/psp/4.3.5/../../../../psp/lib\libc.a(lib_a-u_strerr.o)
 .comment       0x000000000000164a       0x12 c:/pspsdk/bin/../lib/gcc/psp/4.3.5/../../../../psp/lib\libc.a(lib_a-ungetc.o)
 .comment       0x000000000000165c       0x12 c:/pspsdk/bin/../lib/gcc/psp/4.3.5/../../../../psp/lib\libc.a(lib_a-vfiprintf.o)
 .comment       0x000000000000166e       0x12 c:/pspsdk/bin/../lib/gcc/psp/4.3.5/../../../../psp/lib\libc.a(lib_a-vsnprintf.o)
 .comment       0x0000000000001680       0x12 c:/pspsdk/bin/../lib/gcc/psp/4.3.5/../../../../psp/lib\libc.a(lib_a-wbuf.o)
 .comment       0x0000000000001692       0x12 c:/pspsdk/bin/../lib/gcc/psp/4.3.5/../../../../psp/lib\libc.a(lib_a-writer.o)
 .comment       0x00000000000016a4       0x12 c:/pspsdk/bin/../lib/gcc/psp/4.3.5/../../../../psp/lib\libc.a(lib_a-wsetup.o)
 .comment       0x00000000000016b6       0x12 c:/pspsdk/bin/../lib/gcc/psp/4.3.5/../../../../psp/lib\libc.a(vxprintf.o)
 .comment       0x00000000000016c8       0x12 c:/pspsdk/bin/../lib/gcc/psp/4.3.5/../../../../psp/lib\libc.a(__fout.o)
 .comment       0x00000000000016da       0x12 c:/pspsdk/bin/../lib/gcc/psp/4.3.5/../../../../psp/lib\libc.a(_exit.o)
 .comment       0x00000000000016ec       0x12 c:/pspsdk/bin/../lib/gcc/psp/4.3.5/../../../../psp/lib\libc.a(_fstat.o)
 .comment       0x00000000000016fe       0x12 c:/pspsdk/bin/../lib/gcc/psp/4.3.5/../../../../psp/lib\libc.a(_getpid.o)
 .comment       0x0000000000001710       0x12 c:/pspsdk/bin/../lib/gcc/psp/4.3.5/../../../../psp/lib\libc.a(_kill.o)
 .comment       0x0000000000001722       0x12 c:/pspsdk/bin/../lib/gcc/psp/4.3.5/../../../../psp/lib\libc.a(_open.o)
 .comment       0x0000000000001734       0x12 c:/pspsdk/bin/../lib/gcc/psp/4.3.5/../../../../psp/lib\libc.a(_sbrk.o)
 .comment       0x0000000000001746       0x12 c:/pspsdk/bin/../lib/gcc/psp/4.3.5/../../../../psp/lib\libc.a(_write.o)
 .comment       0x0000000000001758       0x12 c:/pspsdk/bin/../lib/gcc/psp/4.3.5/../../../../psp/lib\libc.a(fdman.o)
 .comment       0x000000000000176a       0x12 c:/pspsdk/bin/../lib/gcc/psp/4.3.5/../../../../psp/lib\libc.a(isatty.o)
 .comment       0x000000000000177c       0x12 c:/pspsdk/bin/../lib/gcc/psp/4.3.5/../../../../psp/lib\libc.a(lib_a-__atexit.o)
 .comment       0x000000000000178e       0x12 c:/pspsdk/bin/../lib/gcc/psp/4.3.5/../../../../psp/lib\libc.a(lib_a-__call_atexit.o)
 .comment       0x00000000000017a0       0x12 c:/pspsdk/bin/../lib/gcc/psp/4.3.5/../../../../psp/lib\libc.a(lib_a-closer.o)
 .comment       0x00000000000017b2       0x12 c:/pspsdk/bin/../lib/gcc/psp/4.3.5/../../../../psp/lib\libc.a(lib_a-dtoa.o)
 .comment       0x00000000000017c4       0x12 c:/pspsdk/bin/../lib/gcc/psp/4.3.5/../../../../psp/lib\libc.a(lib_a-environ.o)
 .comment       0x00000000000017d6       0x12 c:/pspsdk/bin/../lib/gcc/psp/4.3.5/../../../../psp/lib\libc.a(lib_a-envlock.o)
 .comment       0x00000000000017e8       0x12 c:/pspsdk/bin/../lib/gcc/psp/4.3.5/../../../../psp/lib\libc.a(lib_a-fcntlr.o)
 .comment       0x00000000000017fa       0x12 c:/pspsdk/bin/../lib/gcc/psp/4.3.5/../../../../psp/lib\libc.a(lib_a-fputwc.o)
 .comment       0x000000000000180c       0x12 c:/pspsdk/bin/../lib/gcc/psp/4.3.5/../../../../psp/lib\libc.a(lib_a-gdtoa-gethex.o)
 .comment       0x000000000000181e       0x12 c:/pspsdk/bin/../lib/gcc/psp/4.3.5/../../../../psp/lib\libc.a(lib_a-gdtoa-hexnan.o)
 .comment       0x0000000000001830       0x12 c:/pspsdk/bin/../lib/gcc/psp/4.3.5/../../../../psp/lib\libc.a(lib_a-gettimeofdayr.o)
 .comment       0x0000000000001842       0x12 c:/pspsdk/bin/../lib/gcc/psp/4.3.5/../../../../psp/lib\libc.a(lib_a-gettzinfo.o)
 .comment       0x0000000000001854       0x12 c:/pspsdk/bin/../lib/gcc/psp/4.3.5/../../../../psp/lib\libc.a(lib_a-isdigit.o)
 .comment       0x0000000000001866       0x12 c:/pspsdk/bin/../lib/gcc/psp/4.3.5/../../../../psp/lib\libc.a(lib_a-iswspace.o)
 .comment       0x0000000000001878       0x12 c:/pspsdk/bin/../lib/gcc/psp/4.3.5/../../../../psp/lib\libc.a(lib_a-locale.o)
 .comment       0x000000000000188a       0x12 c:/pspsdk/bin/../lib/gcc/psp/4.3.5/../../../../psp/lib\libc.a(lib_a-lseekr.o)
 .comment       0x000000000000189c       0x12 c:/pspsdk/bin/../lib/gcc/psp/4.3.5/../../../../psp/lib\libc.a(lib_a-mbrtowc.o)
 .comment       0x00000000000018ae       0x12 c:/pspsdk/bin/../lib/gcc/psp/4.3.5/../../../../psp/lib\libc.a(lib_a-mbtowc_r.o)
 .comment       0x00000000000018c0       0x12 c:/pspsdk/bin/../lib/gcc/psp/4.3.5/../../../../psp/lib\libc.a(lib_a-mprec.o)
 .comment       0x00000000000018d2       0x12 c:/pspsdk/bin/../lib/gcc/psp/4.3.5/../../../../psp/lib\libc.a(lib_a-readr.o)
 .comment       0x00000000000018e4       0x12 c:/pspsdk/bin/../lib/gcc/psp/4.3.5/../../../../psp/lib\libc.a(lib_a-sccl.o)
 .comment       0x00000000000018f6       0x12 c:/pspsdk/bin/../lib/gcc/psp/4.3.5/../../../../psp/lib\libc.a(lib_a-sf_nan.o)
 .comment       0x0000000000001908       0x12 c:/pspsdk/bin/../lib/gcc/psp/4.3.5/../../../../psp/lib\libc.a(lib_a-strdup.o)
 .comment       0x000000000000191a       0x12 c:/pspsdk/bin/../lib/gcc/psp/4.3.5/../../../../psp/lib\libc.a(lib_a-strdup_r.o)
 .comment       0x000000000000192c       0x12 c:/pspsdk/bin/../lib/gcc/psp/4.3.5/../../../../psp/lib\libc.a(lib_a-strtoll_r.o)
 .comment       0x000000000000193e       0x12 c:/pspsdk/bin/../lib/gcc/psp/4.3.5/../../../../psp/lib\libc.a(lib_a-strtoul.o)
 .comment       0x0000000000001950       0x12 c:/pspsdk/bin/../lib/gcc/psp/4.3.5/../../../../psp/lib\libc.a(lib_a-strtoull_r.o)
 .comment       0x0000000000001962       0x12 c:/pspsdk/bin/../lib/gcc/psp/4.3.5/../../../../psp/lib\libc.a(lib_a-svfiprintf.o)
 .comment       0x0000000000001974       0x12 c:/pspsdk/bin/../lib/gcc/psp/4.3.5/../../../../psp/lib\libc.a(lib_a-svfiscanf.o)
 .comment       0x0000000000001986       0x12 c:/pspsdk/bin/../lib/gcc/psp/4.3.5/../../../../psp/lib\libc.a(lib_a-sysstat.o)
 .comment       0x0000000000001998       0x12 c:/pspsdk/bin/../lib/gcc/psp/4.3.5/../../../../psp/lib\libc.a(lib_a-wcrtomb.o)
 .comment       0x00000000000019aa       0x12 c:/pspsdk/bin/../lib/gcc/psp/4.3.5/../../../../psp/lib\libc.a(lib_a-wctomb_r.o)
 .comment       0x00000000000019bc       0x12 c:/pspsdk/bin/../lib/gcc/psp/4.3.5/../../../../psp/lib\libc.a(pipe.o)
 .comment       0x00000000000019ce       0x12 c:/pspsdk/bin/../lib/gcc/psp/4.3.5/../../../../psp/lib\libc.a(pspcwd.o)
 .comment       0x00000000000019e0       0x12 c:/pspsdk/bin/../lib/gcc/psp/4.3.5/../../../../psp/lib\libc.a(__psp_set_errno.o)
 .comment       0x00000000000019f2       0x12 c:/pspsdk/bin/../lib/gcc/psp/4.3.5/../../../../psp/lib\libc.a(_close.o)
 .comment       0x0000000000001a04       0x12 c:/pspsdk/bin/../lib/gcc/psp/4.3.5/../../../../psp/lib\libc.a(_fcntl.o)
 .comment       0x0000000000001a16       0x12 c:/pspsdk/bin/../lib/gcc/psp/4.3.5/../../../../psp/lib\libc.a(_gettimeofday.o)
 .comment       0x0000000000001a28       0x12 c:/pspsdk/bin/../lib/gcc/psp/4.3.5/../../../../psp/lib\libc.a(_lseek.o)
 .comment       0x0000000000001a3a       0x12 c:/pspsdk/bin/../lib/gcc/psp/4.3.5/../../../../psp/lib\libc.a(_read.o)
 .comment       0x0000000000001a4c       0x12 c:/pspsdk/bin/../lib/gcc/psp/4.3.5/../../../../psp/lib\libc.a(chdir.o)
 .comment       0x0000000000001a5e       0x12 c:/pspsdk/bin/../lib/gcc/psp/4.3.5/../../../../psp/lib\libc.a(lib_a-statr.o)
 .comment       0x0000000000001a70       0x12 c:/pspsdk/bin/../lib/gcc/psp/4.3.5/../../../../psp/lib\libc.a(setsockopt.o)
 .comment       0x0000000000001a82       0x12 c:/pspsdk/bin/../lib/gcc/psp/4.3.5/../../../../psp/lib\libc.a(_stat.o)
 .comment       0x0000000000001a94       0x12 c:/pspsdk/bin/../lib/gcc/psp/4.3.5/../../../../psp/lib\libc.a(lib_a-mktime.o)
 .comment       0x0000000000001aa6       0x12 c:/pspsdk/bin/../lib/gcc/psp/4.3.5/../../../../psp/lib\libc.a(lib_a-div.o)
 .comment       0x0000000000001ab8       0x12 c:/pspsdk/bin/../lib/gcc/psp/4.3.5\libgcc.a(_fixunsdfsi.o)
 .comment       0x0000000000001aca       0x12 c:/pspsdk/bin/../lib/gcc/psp/4.3.5\libgcc.a(_udivdi3.o)
 .comment       0x0000000000001adc       0x12 c:/pspsdk/bin/../lib/gcc/psp/4.3.5\libgcc.a(_umoddi3.o)
 .comment       0x0000000000001aee       0x12 c:/pspsdk/bin/../lib/gcc/psp/4.3.5\libgcc.a(_sf_to_df.o)
 .comment       0x0000000000001b00       0x12 c:/pspsdk/bin/../lib/gcc/psp/4.3.5\libgcc.a(_addsub_df.o)
 .comment       0x0000000000001b12       0x12 c:/pspsdk/bin/../lib/gcc/psp/4.3.5\libgcc.a(_mul_df.o)
 .comment       0x0000000000001b24       0x12 c:/pspsdk/bin/../lib/gcc/psp/4.3.5\libgcc.a(_div_df.o)
 .comment       0x0000000000001b36       0x12 c:/pspsdk/bin/../lib/gcc/psp/4.3.5\libgcc.a(_eq_df.o)
 .comment       0x0000000000001b48       0x12 c:/pspsdk/bin/../lib/gcc/psp/4.3.5\libgcc.a(_ne_df.o)
 .comment       0x0000000000001b5a       0x12 c:/pspsdk/bin/../lib/gcc/psp/4.3.5\libgcc.a(_gt_df.o)
 .comment       0x0000000000001b6c       0x12 c:/pspsdk/bin/../lib/gcc/psp/4.3.5\libgcc.a(_ge_df.o)
 .comment       0x0000000000001b7e       0x12 c:/pspsdk/bin/../lib/gcc/psp/4.3.5\libgcc.a(_lt_df.o)
 .comment       0x0000000000001b90       0x12 c:/pspsdk/bin/../lib/gcc/psp/4.3.5\libgcc.a(_le_df.o)
 .comment       0x0000000000001ba2       0x12 c:/pspsdk/bin/../lib/gcc/psp/4.3.5\libgcc.a(_si_to_df.o)
 .comment       0x0000000000001bb4       0x12 c:/pspsdk/bin/../lib/gcc/psp/4.3.5\libgcc.a(_df_to_si.o)
 .comment       0x0000000000001bc6       0x12 c:/pspsdk/bin/../lib/gcc/psp/4.3.5\libgcc.a(_make_df.o)
 .comment       0x0000000000001bd8       0x12 c:/pspsdk/bin/../lib/gcc/psp/4.3.5\libgcc.a(_df_to_sf.o)
 .comment       0x0000000000001bea       0x12 c:/pspsdk/bin/../lib/gcc/psp/4.3.5\libgcc.a(_thenan_df.o)
 .comment       0x0000000000001bfc       0x12 c:/pspsdk/bin/../lib/gcc/psp/4.3.5\libgcc.a(_usi_to_df.o)
 .comment       0x0000000000001c0e       0x12 c:/pspsdk/bin/../lib/gcc/psp/4.3.5\libgcc.a(unwind-dw2.o)
 .comment       0x0000000000001c20       0x12 c:/pspsdk/bin/../lib/gcc/psp/4.3.5\libgcc.a(unwind-dw2-fde.o)
 .comment       0x0000000000001c32       0x12 c:/pspsdk/bin/../lib/gcc/psp/4.3.5\libgcc.a(_ucmpdi2.o)
 .comment       0x0000000000001c44       0x12 c:/pspsdk/bin/../lib/gcc/psp/4.3.5\libgcc.a(_clz.o)
 .comment       0x0000000000001c56       0x12 c:/pspsdk/bin/../lib/gcc/psp/4.3.5\libgcc.a(_unpack_sf.o)
 .comment       0x0000000000001c68       0x12 c:/pspsdk/bin/../lib/gcc/psp/4.3.5\libgcc.a(_make_sf.o)
 .comment       0x0000000000001c7a       0x12 c:/pspsdk/bin/../lib/gcc/psp/4.3.5\libgcc.a(_pack_df.o)
 .comment       0x0000000000001c8c       0x12 c:/pspsdk/bin/../lib/gcc/psp/4.3.5\libgcc.a(_unpack_df.o)
 .comment       0x0000000000001c9e       0x12 c:/pspsdk/bin/../lib/gcc/psp/4.3.5\libgcc.a(_fpcmp_parts_df.o)
 .comment       0x0000000000001cb0       0x12 c:/pspsdk/bin/../lib/gcc/psp/4.3.5\libgcc.a(_pack_sf.o)
 .comment       0x0000000000001cc2       0x12 c:/pspsdk/bin/../lib/gcc/psp/4.3.5/crtend.o

.debug
 *(.debug)

.line
 *(.line)

.debug_srcinfo
 *(.debug_srcinfo)

.debug_sfnames
 *(.debug_sfnames)

.debug_aranges  0x0000000000000000     0x2a28
 *(.debug_aranges)
 .debug_aranges
                0x0000000000000000       0x20 c:/pspsdk/bin/../lib/gcc/psp/4.3.5/../../../../psp/lib/crt0.o
 .debug_aranges
                0x0000000000000020       0x20 psp/sound.o
 .debug_aranges
                0x0000000000000040       0x40 psp/gym/gym.o
 .debug_aranges
                0x0000000000000080       0x20 psp/gym/gym_play.o
 .debug_aranges
                0x00000000000000a0       0x30 psp/vgm/In_vgm.o
 .debug_aranges
                0x00000000000000d0       0x20 c:/pspsdk/bin/../lib/gcc/psp/4.3.5/../../../../psp/lib\libosl.a(oslib.o)
 .debug_aranges
                0x00000000000000f0       0x20 c:/pspsdk/bin/../lib/gcc/psp/4.3.5/../../../../psp/lib\libosl.a(drawing.o)
 .debug_aranges
                0x0000000000000110       0x20 c:/pspsdk/bin/../lib/gcc/psp/4.3.5/../../../../psp/lib\libosl.a(image.o)
 .debug_aranges
                0x0000000000000130       0x20 c:/pspsdk/bin/../lib/gcc/psp/4.3.5/../../../../psp/lib\libosl.a(palette.o)
 .debug_aranges
                0x0000000000000150       0x20 c:/pspsdk/bin/../lib/gcc/psp/4.3.5/../../../../psp/lib\libosl.a(shape.o)
 .debug_aranges
                0x0000000000000170       0x20 c:/pspsdk/bin/../lib/gcc/psp/4.3.5/../../../../psp/lib\libosl.a(messagebox.o)
 .debug_aranges
                0x0000000000000190       0x20 c:/pspsdk/bin/../lib/gcc/psp/4.3.5/../../../../psp/lib\libosl.a(keys.o)
 .debug_aranges
                0x00000000000001b0       0x20 c:/pspsdk/bin/../lib/gcc/psp/4.3.5/../../../../psp/lib\libosl.a(vfpu.o)
 .debug_aranges
                0x00000000000001d0       0x20 c:/pspsdk/bin/../lib/gcc/psp/4.3.5/../../../../psp/lib\libosl.a(text.o)
 .debug_aranges
                0x00000000000001f0       0x20 c:/pspsdk/bin/../lib/gcc/psp/4.3.5/../../../../psp/lib\libosl.a(vram_mgr.o)
 .debug_aranges
                0x0000000000000210       0x20 c:/pspsdk/bin/../lib/gcc/psp/4.3.5/../../../../psp/lib\libosl.a(stub.o)
 .debug_aranges
                0x0000000000000230       0x20 c:/pspsdk/bin/../lib/gcc/psp/4.3.5/../../../../psp/lib\libosl.a(audio.o)
 .debug_aranges
                0x0000000000000250       0x20 c:/pspsdk/bin/../lib/gcc/psp/4.3.5/../../../../psp/lib\libosl.a(bgm.o)
 .debug_aranges
                0x0000000000000270       0x20 c:/pspsdk/bin/../lib/gcc/psp/4.3.5/../../../../psp/lib\libosl.a(usb.o)
 .debug_aranges
                0x0000000000000290       0x20 c:/pspsdk/bin/../lib/gcc/psp/4.3.5/../../../../psp/lib\libosl.a(VirtualFile.o)
 .debug_aranges
                0x00000000000002b0       0x20 c:/pspsdk/bin/../lib/gcc/psp/4.3.5/../../../../psp/lib\libosl.a(vfsFile.o)
 .debug_aranges
                0x00000000000002d0       0x20 c:/pspsdk/bin/../lib/gcc/psp/4.3.5/../../../../psp/lib\libosl.a(oslDrawImage.o)
 .debug_aranges
                0x00000000000002f0       0x20 c:/pspsdk/bin/../lib/gcc/psp/4.3.5/../../../../psp/lib\libosl.a(oslDrawImageSimple.o)
 .debug_aranges
                0x0000000000000310       0x20 c:/pspsdk/bin/../lib/gcc/psp/4.3.5/../../../../psp/lib\libosl.a(oslLockImage.o)
 .debug_aranges
                0x0000000000000330       0x20 c:/pspsdk/bin/../lib/gcc/psp/4.3.5/../../../../psp/lib\libosl.a(oslSwizzleImage.o)
 .debug_aranges
                0x0000000000000350       0x20 c:/pspsdk/bin/../lib/gcc/psp/4.3.5/../../../../psp/lib\libosl.a(oslSetDrawBuffer.o)
 .debug_aranges
                0x0000000000000370       0x20 c:/pspsdk/bin/../lib/gcc/psp/4.3.5/../../../../psp/lib\libosl.a(oslWriteImageFilePNG.o)
 .debug_aranges
                0x0000000000000390       0x20 c:/pspsdk/bin/../lib/gcc/psp/4.3.5/../../../../psp/lib\libosl.a(oslLoadImageFile.o)
 .debug_aranges
                0x00000000000003b0       0x20 c:/pspsdk/bin/../lib/gcc/psp/4.3.5/../../../../psp/lib\libosl.a(intraFont.o)
 .debug_aranges
                0x00000000000003d0       0x20 c:/pspsdk/bin/../lib/gcc/psp/4.3.5/../../../../psp/lib\libosl.a(libccc.o)
 .debug_aranges
                0x00000000000003f0       0x20 c:/pspsdk/bin/../lib/gcc/psp/4.3.5/../../../../psp/lib\libosl.a(oslHandleLoadNoFailError.o)
 .debug_aranges
                0x0000000000000410       0x20 c:/pspsdk/bin/../lib/gcc/psp/4.3.5/../../../../psp/lib\libosl.a(oslLoadImageFilePNG.o)
 .debug_aranges
                0x0000000000000430       0x20 c:/pspsdk/bin/../lib/gcc/psp/4.3.5/../../../../psp/lib\libosl.a(oslLoadImageFileJPG.o)
 .debug_aranges
                0x0000000000000450       0x20 c:/pspsdk/bin/../lib/gcc/psp/4.3.5/../../../../psp/lib\libosl.a(oslLoadImageFileGIF.o)
 .debug_aranges
                0x0000000000000470       0x20 c:/pspsdk/bin/../lib/gcc/psp/4.3.5/../../../../psp/lib\libosl.a(oslConvertImageTo.o)
 .debug_aranges
                0x0000000000000490       0x20 c:/pspsdk/bin/../lib/gcc/psp/4.3.5/../../../../psp/lib\libosl.a(oslSetImagePixel.o)
 .debug_aranges
                0x00000000000004b0       0x20 c:/pspsdk/bin/../lib/gcc/psp/4.3.5/../../../../psp/lib\libosl.a(oslGetImagePixel.o)
 .debug_aranges
                0x00000000000004d0       0x20 c:/pspsdk/bin/../lib/gcc/psp/4.3.5/../../../../psp/lib\libosl.a(dgif_lib.o)
 .debug_aranges
                0x00000000000004f0       0x20 c:/pspsdk/bin/../lib/gcc/psp/4.3.5/../../../../psp/lib\libosl.a(gif_err.o)
 .debug_aranges
                0x0000000000000510       0x20 c:/pspsdk/bin/../lib/gcc/psp/4.3.5/../../../../psp/lib\libosl.a(gifalloc.o)
 .debug_aranges
                0x0000000000000530       0x20 c:/pspsdk/bin/../lib/gcc/psp/4.3.5/../../../../psp/lib\libjpeg.a(jdapimin.o)
 .debug_aranges
                0x0000000000000550       0x20 c:/pspsdk/bin/../lib/gcc/psp/4.3.5/../../../../psp/lib\libjpeg.a(jdapistd.o)
 .debug_aranges
                0x0000000000000570       0x20 c:/pspsdk/bin/../lib/gcc/psp/4.3.5/../../../../psp/lib\libjpeg.a(jdatasrc.o)
 .debug_aranges
                0x0000000000000590       0x20 c:/pspsdk/bin/../lib/gcc/psp/4.3.5/../../../../psp/lib\libjpeg.a(jdmaster.o)
 .debug_aranges
                0x00000000000005b0       0x20 c:/pspsdk/bin/../lib/gcc/psp/4.3.5/../../../../psp/lib\libjpeg.a(jdinput.o)
 .debug_aranges
                0x00000000000005d0       0x20 c:/pspsdk/bin/../lib/gcc/psp/4.3.5/../../../../psp/lib\libjpeg.a(jdmarker.o)
 .debug_aranges
                0x00000000000005f0       0x20 c:/pspsdk/bin/../lib/gcc/psp/4.3.5/../../../../psp/lib\libjpeg.a(jdhuff.o)
 .debug_aranges
                0x0000000000000610       0x20 c:/pspsdk/bin/../lib/gcc/psp/4.3.5/../../../../psp/lib\libjpeg.a(jdmainct.o)
 .debug_aranges
                0x0000000000000630       0x20 c:/pspsdk/bin/../lib/gcc/psp/4.3.5/../../../../psp/lib\libjpeg.a(jdcoefct.o)
 .debug_aranges
                0x0000000000000650       0x20 c:/pspsdk/bin/../lib/gcc/psp/4.3.5/../../../../psp/lib\libjpeg.a(jdpostct.o)
 .debug_aranges
                0x0000000000000670       0x20 c:/pspsdk/bin/../lib/gcc/psp/4.3.5/../../../../psp/lib\libjpeg.a(jddctmgr.o)
 .debug_aranges
                0x0000000000000690       0x20 c:/pspsdk/bin/../lib/gcc/psp/4.3.5/../../../../psp/lib\libjpeg.a(jidctfst.o)
 .debug_aranges
                0x00000000000006b0       0x20 c:/pspsdk/bin/../lib/gcc/psp/4.3.5/../../../../psp/lib\libjpeg.a(jidctflt.o)
 .debug_aranges
                0x00000000000006d0       0x20 c:/pspsdk/bin/../lib/gcc/psp/4.3.5/../../../../psp/lib\libjpeg.a(jidctint.o)
 .debug_aranges
                0x00000000000006f0       0x20 c:/pspsdk/bin/../lib/gcc/psp/4.3.5/../../../../psp/lib\libjpeg.a(jdsample.o)
 .debug_aranges
                0x0000000000000710       0x20 c:/pspsdk/bin/../lib/gcc/psp/4.3.5/../../../../psp/lib\libjpeg.a(jdcolor.o)
 .debug_aranges
                0x0000000000000730       0x20 c:/pspsdk/bin/../lib/gcc/psp/4.3.5/../../../../psp/lib\libjpeg.a(jquant1.o)
 .debug_aranges
                0x0000000000000750       0x20 c:/pspsdk/bin/../lib/gcc/psp/4.3.5/../../../../psp/lib\libjpeg.a(jquant2.o)
 .debug_aranges
                0x0000000000000770       0x20 c:/pspsdk/bin/../lib/gcc/psp/4.3.5/../../../../psp/lib\libjpeg.a(jdmerge.o)
 .debug_aranges
                0x0000000000000790       0x20 c:/pspsdk/bin/../lib/gcc/psp/4.3.5/../../../../psp/lib\libjpeg.a(jcomapi.o)
 .debug_aranges
                0x00000000000007b0       0x20 c:/pspsdk/bin/../lib/gcc/psp/4.3.5/../../../../psp/lib\libjpeg.a(jutils.o)
 .debug_aranges
                0x00000000000007d0       0x20 c:/pspsdk/bin/../lib/gcc/psp/4.3.5/../../../../psp/lib\libjpeg.a(jerror.o)
 .debug_aranges
                0x00000000000007f0       0x20 c:/pspsdk/bin/../lib/gcc/psp/4.3.5/../../../../psp/lib\libjpeg.a(jmemmgr.o)
 .debug_aranges
                0x0000000000000810       0x20 c:/pspsdk/bin/../lib/gcc/psp/4.3.5/../../../../psp/lib\libjpeg.a(jmemnobs.o)
 .debug_aranges
                0x0000000000000830       0x20 c:/pspsdk/bin/../lib/gcc/psp/4.3.5/../../../../psp/lib\libjpeg.a(jdarith.o)
 .debug_aranges
                0x0000000000000850       0x20 c:/pspsdk/psp/sdk/lib\libpspsdk.a(loadmodule.o)
 .debug_aranges
                0x0000000000000870       0x20 c:/pspsdk/psp/sdk/lib\libpspgu.a(sceGuAlphaFunc.o)
 .debug_aranges
                0x0000000000000890       0x20 c:/pspsdk/psp/sdk/lib\libpspgu.a(sceGuAmbientColor.o)
 .debug_aranges
                0x00000000000008b0       0x20 c:/pspsdk/psp/sdk/lib\libpspgu.a(sceGuBlendFunc.o)
 .debug_aranges
                0x00000000000008d0       0x20 c:/pspsdk/psp/sdk/lib\libpspgu.a(sceGuClear.o)
 .debug_aranges
                0x00000000000008f0       0x20 c:/pspsdk/psp/sdk/lib\libpspgu.a(sceGuClearColor.o)
 .debug_aranges
                0x0000000000000910       0x20 c:/pspsdk/psp/sdk/lib\libpspgu.a(sceGuClutLoad.o)
 .debug_aranges
                0x0000000000000930       0x20 c:/pspsdk/psp/sdk/lib\libpspgu.a(sceGuClutMode.o)
 .debug_aranges
                0x0000000000000950       0x20 c:/pspsdk/psp/sdk/lib\libpspgu.a(sceGuColorFunc.o)
 .debug_aranges
                0x0000000000000970       0x20 c:/pspsdk/psp/sdk/lib\libpspgu.a(sceGuDepthBuffer.o)
 .debug_aranges
                0x0000000000000990       0x20 c:/pspsdk/psp/sdk/lib\libpspgu.a(sceGuDepthFunc.o)
 .debug_aranges
                0x00000000000009b0       0x20 c:/pspsdk/psp/sdk/lib\libpspgu.a(sceGuDepthRange.o)
 .debug_aranges
                0x00000000000009d0       0x20 c:/pspsdk/psp/sdk/lib\libpspgu.a(sceGuDisable.o)
 .debug_aranges
                0x00000000000009f0       0x20 c:/pspsdk/psp/sdk/lib\libpspgu.a(sceGuDispBuffer.o)
 .debug_aranges
                0x0000000000000a10       0x20 c:/pspsdk/psp/sdk/lib\libpspgu.a(sceGuDisplay.o)
 .debug_aranges
                0x0000000000000a30       0x20 c:/pspsdk/psp/sdk/lib\libpspgu.a(sceGuDrawArray.o)
 .debug_aranges
                0x0000000000000a50       0x20 c:/pspsdk/psp/sdk/lib\libpspgu.a(sceGuDrawBuffer.o)
 .debug_aranges
                0x0000000000000a70       0x20 c:/pspsdk/psp/sdk/lib\libpspgu.a(sceGuEnable.o)
 .debug_aranges
                0x0000000000000a90       0x20 c:/pspsdk/psp/sdk/lib\libpspgu.a(sceGuFinish.o)
 .debug_aranges
                0x0000000000000ab0       0x20 c:/pspsdk/psp/sdk/lib\libpspgu.a(sceGuFrontFace.o)
 .debug_aranges
                0x0000000000000ad0       0x20 c:/pspsdk/psp/sdk/lib\libpspgu.a(sceGuGetMemory.o)
 .debug_aranges
                0x0000000000000af0       0x20 c:/pspsdk/psp/sdk/lib\libpspgu.a(sceGuInit.o)
 .debug_aranges
                0x0000000000000b10       0x20 c:/pspsdk/psp/sdk/lib\libpspgu.a(sceGuOffset.o)
 .debug_aranges
                0x0000000000000b30       0x20 c:/pspsdk/psp/sdk/lib\libpspgu.a(sceGuScissor.o)
 .debug_aranges
                0x0000000000000b50       0x20 c:/pspsdk/psp/sdk/lib\libpspgu.a(sceGuShadeModel.o)
 .debug_aranges
                0x0000000000000b70       0x20 c:/pspsdk/psp/sdk/lib\libpspgu.a(sceGuStart.o)
 .debug_aranges
                0x0000000000000b90       0x20 c:/pspsdk/psp/sdk/lib\libpspgu.a(sceGuStencilFunc.o)
 .debug_aranges
                0x0000000000000bb0       0x20 c:/pspsdk/psp/sdk/lib\libpspgu.a(sceGuStencilOp.o)
 .debug_aranges
                0x0000000000000bd0       0x20 c:/pspsdk/psp/sdk/lib\libpspgu.a(sceGuSwapBuffers.o)
 .debug_aranges
                0x0000000000000bf0       0x20 c:/pspsdk/psp/sdk/lib\libpspgu.a(sceGuSync.o)
 .debug_aranges
                0x0000000000000c10       0x20 c:/pspsdk/psp/sdk/lib\libpspgu.a(sceGuTerm.o)
 .debug_aranges
                0x0000000000000c30       0x20 c:/pspsdk/psp/sdk/lib\libpspgu.a(sceGuTexEnvColor.o)
 .debug_aranges
                0x0000000000000c50       0x20 c:/pspsdk/psp/sdk/lib\libpspgu.a(sceGuTexFilter.o)
 .debug_aranges
                0x0000000000000c70       0x20 c:/pspsdk/psp/sdk/lib\libpspgu.a(sceGuTexFunc.o)
 .debug_aranges
                0x0000000000000c90       0x20 c:/pspsdk/psp/sdk/lib\libpspgu.a(sceGuTexImage.o)
 .debug_aranges
                0x0000000000000cb0       0x20 c:/pspsdk/psp/sdk/lib\libpspgu.a(sceGuTexMode.o)
 .debug_aranges
                0x0000000000000cd0       0x20 c:/pspsdk/psp/sdk/lib\libpspgu.a(sceGuTexOffset.o)
 .debug_aranges
                0x0000000000000cf0       0x20 c:/pspsdk/psp/sdk/lib\libpspgu.a(sceGuTexScale.o)
 .debug_aranges
                0x0000000000000d10       0x20 c:/pspsdk/psp/sdk/lib\libpspgu.a(sceGuTexWrap.o)
 .debug_aranges
                0x0000000000000d30       0x20 c:/pspsdk/psp/sdk/lib\libpspgu.a(sceGuViewport.o)
 .debug_aranges
                0x0000000000000d50       0x20 c:/pspsdk/psp/sdk/lib\libpspgu.a(sendCommand.o)
 .debug_aranges
                0x0000000000000d70       0x20 c:/pspsdk/psp/sdk/lib\libpspgu.a(callbackFin.o)
 .debug_aranges
                0x0000000000000d90       0x20 c:/pspsdk/psp/sdk/lib\libpspgu.a(callbackSig.o)
 .debug_aranges
                0x0000000000000db0       0x20 c:/pspsdk/psp/sdk/lib\libpspgu.a(resetValues.o)
 .debug_aranges
                0x0000000000000dd0       0x20 c:/pspsdk/psp/sdk/lib\libpspgu.a(sceGuColorMaterial.o)
 .debug_aranges
                0x0000000000000df0       0x20 c:/pspsdk/psp/sdk/lib\libpspgu.a(sceGuPatchDivide.o)
 .debug_aranges
                0x0000000000000e10       0x20 c:/pspsdk/psp/sdk/lib\libpspgu.a(sceGuSetDither.o)
 .debug_aranges
                0x0000000000000e30       0x20 c:/pspsdk/psp/sdk/lib\libpspgu.a(sceGuSpecular.o)
 .debug_aranges
                0x0000000000000e50       0x20 c:/pspsdk/psp/sdk/lib\libpspgu.a(sceGuTexFlush.o)
 .debug_aranges
                0x0000000000000e70       0x20 c:/pspsdk/bin/../lib/gcc/psp/4.3.5/../../../../psp/lib\libstdc++.a(del_op.o)
 .debug_aranges
                0x0000000000000e90       0x20 c:/pspsdk/bin/../lib/gcc/psp/4.3.5/../../../../psp/lib\libstdc++.a(del_opv.o)
 .debug_aranges
                0x0000000000000eb0       0x20 c:/pspsdk/bin/../lib/gcc/psp/4.3.5/../../../../psp/lib\libstdc++.a(new_op.o)
 .debug_aranges
                0x0000000000000ed0       0x20 c:/pspsdk/bin/../lib/gcc/psp/4.3.5/../../../../psp/lib\libstdc++.a(new_opv.o)
 .debug_aranges
                0x0000000000000ef0       0x30 c:/pspsdk/bin/../lib/gcc/psp/4.3.5/../../../../psp/lib\libstdc++.a(eh_alloc.o)
 .debug_aranges
                0x0000000000000f20       0x28 c:/pspsdk/bin/../lib/gcc/psp/4.3.5/../../../../psp/lib\libstdc++.a(eh_globals.o)
 .debug_aranges
                0x0000000000000f48       0x58 c:/pspsdk/bin/../lib/gcc/psp/4.3.5/../../../../psp/lib\libstdc++.a(eh_personality.o)
 .debug_aranges
                0x0000000000000fa0       0x48 c:/pspsdk/bin/../lib/gcc/psp/4.3.5/../../../../psp/lib\libstdc++.a(eh_terminate.o)
 .debug_aranges
                0x0000000000000fe8       0x30 c:/pspsdk/bin/../lib/gcc/psp/4.3.5/../../../../psp/lib\libstdc++.a(eh_throw.o)
 .debug_aranges
                0x0000000000001018       0x40 c:/pspsdk/bin/../lib/gcc/psp/4.3.5/../../../../psp/lib\libstdc++.a(new_handler.o)
 .debug_aranges
                0x0000000000001058       0x48 c:/pspsdk/bin/../lib/gcc/psp/4.3.5/../../../../psp/lib\libstdc++.a(si_class_type_info.o)
 .debug_aranges
                0x00000000000010a0       0x50 c:/pspsdk/bin/../lib/gcc/psp/4.3.5/../../../../psp/lib\libstdc++.a(tinfo.o)
 .debug_aranges
                0x00000000000010f0       0x20 c:/pspsdk/bin/../lib/gcc/psp/4.3.5/../../../../psp/lib\libstdc++.a(vterminate.o)
 .debug_aranges
                0x0000000000001110       0x58 c:/pspsdk/bin/../lib/gcc/psp/4.3.5/../../../../psp/lib\libstdc++.a(class_type_info.o)
 .debug_aranges
                0x0000000000001168       0x20 c:/pspsdk/bin/../lib/gcc/psp/4.3.5/../../../../psp/lib\libstdc++.a(eh_call.o)
 .debug_aranges
                0x0000000000001188       0x38 c:/pspsdk/bin/../lib/gcc/psp/4.3.5/../../../../psp/lib\libstdc++.a(eh_catch.o)
 .debug_aranges
                0x00000000000011c0       0x88 c:/pspsdk/bin/../lib/gcc/psp/4.3.5/../../../../psp/lib\libstdc++.a(eh_exception.o)
 .debug_aranges
                0x0000000000001248       0x20 c:/pspsdk/bin/../lib/gcc/psp/4.3.5/../../../../psp/lib\libstdc++.a(eh_type.o)
 .debug_aranges
                0x0000000000001268       0x20 c:/pspsdk/bin/../lib/gcc/psp/4.3.5/../../../../psp/lib\libstdc++.a(pure.o)
 .debug_aranges
                0x0000000000001288       0x20 c:/pspsdk/bin/../lib/gcc/psp/4.3.5/../../../../psp/lib\libm.a(lib_a-s_ceil.o)
 .debug_aranges
                0x00000000000012a8       0x20 c:/pspsdk/bin/../lib/gcc/psp/4.3.5/../../../../psp/lib\libm.a(lib_a-s_floor.o)
 .debug_aranges
                0x00000000000012c8       0x20 c:/pspsdk/bin/../lib/gcc/psp/4.3.5/../../../../psp/lib\libm.a(lib_a-s_log.o)
 .debug_aranges
                0x00000000000012e8       0x20 c:/pspsdk/bin/../lib/gcc/psp/4.3.5/../../../../psp/lib\libm.a(lib_a-s_log10.o)
 .debug_aranges
                0x0000000000001308       0x20 c:/pspsdk/bin/../lib/gcc/psp/4.3.5/../../../../psp/lib\libm.a(lib_a-s_logarithm.o)
 .debug_aranges
                0x0000000000001328       0x20 c:/pspsdk/bin/../lib/gcc/psp/4.3.5/../../../../psp/lib\libm.a(lib_a-s_modf.o)
 .debug_aranges
                0x0000000000001348       0x20 c:/pspsdk/bin/../lib/gcc/psp/4.3.5/../../../../psp/lib\libm.a(lib_a-s_pow.o)
 .debug_aranges
                0x0000000000001368       0x20 c:/pspsdk/bin/../lib/gcc/psp/4.3.5/../../../../psp/lib\libm.a(lib_a-s_sin.o)
 .debug_aranges
                0x0000000000001388       0x20 c:/pspsdk/bin/../lib/gcc/psp/4.3.5/../../../../psp/lib\libm.a(lib_a-s_sine.o)
 .debug_aranges
                0x00000000000013a8       0x20 c:/pspsdk/bin/../lib/gcc/psp/4.3.5/../../../../psp/lib\libm.a(lib_a-s_sqrt.o)
 .debug_aranges
                0x00000000000013c8       0x20 c:/pspsdk/bin/../lib/gcc/psp/4.3.5/../../../../psp/lib\libm.a(lib_a-s_exp.o)
 .debug_aranges
                0x00000000000013e8       0x20 c:/pspsdk/bin/../lib/gcc/psp/4.3.5/../../../../psp/lib\libm.a(lib_a-s_fabs.o)
 .debug_aranges
                0x0000000000001408       0x20 c:/pspsdk/bin/../lib/gcc/psp/4.3.5/../../../../psp/lib\libm.a(lib_a-s_fpclassify.o)
 .debug_aranges
                0x0000000000001428       0x20 c:/pspsdk/bin/../lib/gcc/psp/4.3.5/../../../../psp/lib\libm.a(lib_a-s_frexp.o)
 .debug_aranges
                0x0000000000001448       0x20 c:/pspsdk/bin/../lib/gcc/psp/4.3.5/../../../../psp/lib\libm.a(lib_a-s_ispos.o)
 .debug_aranges
                0x0000000000001468       0x20 c:/pspsdk/bin/../lib/gcc/psp/4.3.5/../../../../psp/lib\libm.a(lib_a-s_ldexp.o)
 .debug_aranges
                0x0000000000001488       0x20 c:/pspsdk/bin/../lib/gcc/psp/4.3.5/../../../../psp/lib\libm.a(lib_a-s_numtest.o)
 .debug_aranges
                0x00000000000014a8       0x20 c:/pspsdk/bin/../lib/gcc/psp/4.3.5/../../../../psp/lib\libc.a(fprintf.o)
 .debug_aranges
                0x00000000000014c8       0x20 c:/pspsdk/bin/../lib/gcc/psp/4.3.5/../../../../psp/lib\libc.a(lib_a-abort.o)
 .debug_aranges
                0x00000000000014e8       0x20 c:/pspsdk/bin/../lib/gcc/psp/4.3.5/../../../../psp/lib\libc.a(lib_a-atexit.o)
 .debug_aranges
                0x0000000000001508       0x20 c:/pspsdk/bin/../lib/gcc/psp/4.3.5/../../../../psp/lib\libc.a(lib_a-atof.o)
 .debug_aranges
                0x0000000000001528       0x20 c:/pspsdk/bin/../lib/gcc/psp/4.3.5/../../../../psp/lib\libc.a(lib_a-atoi.o)
 .debug_aranges
                0x0000000000001548       0x20 c:/pspsdk/bin/../lib/gcc/psp/4.3.5/../../../../psp/lib\libc.a(lib_a-calloc.o)
 .debug_aranges
                0x0000000000001568       0x20 c:/pspsdk/bin/../lib/gcc/psp/4.3.5/../../../../psp/lib\libc.a(lib_a-callocr.o)
 .debug_aranges
                0x0000000000001588       0x20 c:/pspsdk/bin/../lib/gcc/psp/4.3.5/../../../../psp/lib\libc.a(lib_a-errno.o)
 .debug_aranges
                0x00000000000015a8       0x20 c:/pspsdk/bin/../lib/gcc/psp/4.3.5/../../../../psp/lib\libc.a(lib_a-exit.o)
 .debug_aranges
                0x00000000000015c8       0x20 c:/pspsdk/bin/../lib/gcc/psp/4.3.5/../../../../psp/lib\libc.a(lib_a-fclose.o)
 .debug_aranges
                0x00000000000015e8       0x20 c:/pspsdk/bin/../lib/gcc/psp/4.3.5/../../../../psp/lib\libc.a(lib_a-fdopen.o)
 .debug_aranges
                0x0000000000001608       0x20 c:/pspsdk/bin/../lib/gcc/psp/4.3.5/../../../../psp/lib\libc.a(lib_a-fflush.o)
 .debug_aranges
                0x0000000000001628       0x20 c:/pspsdk/bin/../lib/gcc/psp/4.3.5/../../../../psp/lib\libc.a(lib_a-fgetc.o)
 .debug_aranges
                0x0000000000001648       0x20 c:/pspsdk/bin/../lib/gcc/psp/4.3.5/../../../../psp/lib\libc.a(lib_a-fgets.o)
 .debug_aranges
                0x0000000000001668       0x20 c:/pspsdk/bin/../lib/gcc/psp/4.3.5/../../../../psp/lib\libc.a(lib_a-findfp.o)
 .debug_aranges
                0x0000000000001688       0x20 c:/pspsdk/bin/../lib/gcc/psp/4.3.5/../../../../psp/lib\libc.a(lib_a-flags.o)
 .debug_aranges
                0x00000000000016a8       0x20 c:/pspsdk/bin/../lib/gcc/psp/4.3.5/../../../../psp/lib\libc.a(lib_a-fmemopen.o)
 .debug_aranges
                0x00000000000016c8       0x20 c:/pspsdk/bin/../lib/gcc/psp/4.3.5/../../../../psp/lib\libc.a(lib_a-fopen.o)
 .debug_aranges
                0x00000000000016e8       0x20 c:/pspsdk/bin/../lib/gcc/psp/4.3.5/../../../../psp/lib\libc.a(lib_a-fputc.o)
 .debug_aranges
                0x0000000000001708       0x20 c:/pspsdk/bin/../lib/gcc/psp/4.3.5/../../../../psp/lib\libc.a(lib_a-fputs.o)
 .debug_aranges
                0x0000000000001728       0x20 c:/pspsdk/bin/../lib/gcc/psp/4.3.5/../../../../psp/lib\libc.a(lib_a-fread.o)
 .debug_aranges
                0x0000000000001748       0x20 c:/pspsdk/bin/../lib/gcc/psp/4.3.5/../../../../psp/lib\libc.a(lib_a-freer.o)
 .debug_aranges
                0x0000000000001768       0x20 c:/pspsdk/bin/../lib/gcc/psp/4.3.5/../../../../psp/lib\libc.a(lib_a-fseek.o)
 .debug_aranges
                0x0000000000001788       0x20 c:/pspsdk/bin/../lib/gcc/psp/4.3.5/../../../../psp/lib\libc.a(lib_a-fstatr.o)
 .debug_aranges
                0x00000000000017a8       0x20 c:/pspsdk/bin/../lib/gcc/psp/4.3.5/../../../../psp/lib\libc.a(lib_a-ftell.o)
 .debug_aranges
                0x00000000000017c8       0x20 c:/pspsdk/bin/../lib/gcc/psp/4.3.5/../../../../psp/lib\libc.a(lib_a-fvwrite.o)
 .debug_aranges
                0x00000000000017e8       0x20 c:/pspsdk/bin/../lib/gcc/psp/4.3.5/../../../../psp/lib\libc.a(lib_a-fwalk.o)
 .debug_aranges
                0x0000000000001808       0x20 c:/pspsdk/bin/../lib/gcc/psp/4.3.5/../../../../psp/lib\libc.a(lib_a-fwrite.o)
 .debug_aranges
                0x0000000000001828       0x20 c:/pspsdk/bin/../lib/gcc/psp/4.3.5/../../../../psp/lib\libc.a(lib_a-getenv.o)
 .debug_aranges
                0x0000000000001848       0x20 c:/pspsdk/bin/../lib/gcc/psp/4.3.5/../../../../psp/lib\libc.a(lib_a-getenv_r.o)
 .debug_aranges
                0x0000000000001868       0x20 c:/pspsdk/bin/../lib/gcc/psp/4.3.5/../../../../psp/lib\libc.a(lib_a-gmtime.o)
 .debug_aranges
                0x0000000000001888       0x20 c:/pspsdk/bin/../lib/gcc/psp/4.3.5/../../../../psp/lib\libc.a(lib_a-gmtime_r.o)
 .debug_aranges
                0x00000000000018a8       0x20 c:/pspsdk/bin/../lib/gcc/psp/4.3.5/../../../../psp/lib\libc.a(lib_a-iprintf.o)
 .debug_aranges
                0x00000000000018c8       0x20 c:/pspsdk/bin/../lib/gcc/psp/4.3.5/../../../../psp/lib\libc.a(lib_a-lcltime.o)
 .debug_aranges
                0x00000000000018e8       0x20 c:/pspsdk/bin/../lib/gcc/psp/4.3.5/../../../../psp/lib\libc.a(lib_a-lcltime_r.o)
 .debug_aranges
                0x0000000000001908       0x20 c:/pspsdk/bin/../lib/gcc/psp/4.3.5/../../../../psp/lib\libc.a(lib_a-makebuf.o)
 .debug_aranges
                0x0000000000001928       0x20 c:/pspsdk/bin/../lib/gcc/psp/4.3.5/../../../../psp/lib\libc.a(lib_a-malign.o)
 .debug_aranges
                0x0000000000001948       0x20 c:/pspsdk/bin/../lib/gcc/psp/4.3.5/../../../../psp/lib\libc.a(lib_a-malignr.o)
 .debug_aranges
                0x0000000000001968       0x20 c:/pspsdk/bin/../lib/gcc/psp/4.3.5/../../../../psp/lib\libc.a(lib_a-malloc.o)
 .debug_aranges
                0x0000000000001988       0x20 c:/pspsdk/bin/../lib/gcc/psp/4.3.5/../../../../psp/lib\libc.a(lib_a-mallocr.o)
 .debug_aranges
                0x00000000000019a8       0x20 c:/pspsdk/bin/../lib/gcc/psp/4.3.5/../../../../psp/lib\libc.a(lib_a-memchr.o)
 .debug_aranges
                0x00000000000019c8       0x20 c:/pspsdk/bin/../lib/gcc/psp/4.3.5/../../../../psp/lib\libc.a(lib_a-memcmp.o)
 .debug_aranges
                0x00000000000019e8       0x20 c:/pspsdk/bin/../lib/gcc/psp/4.3.5/../../../../psp/lib\libc.a(lib_a-memcpy.o)
 .debug_aranges
                0x0000000000001a08       0x20 c:/pspsdk/bin/../lib/gcc/psp/4.3.5/../../../../psp/lib\libc.a(lib_a-memmove.o)
 .debug_aranges
                0x0000000000001a28       0x20 c:/pspsdk/bin/../lib/gcc/psp/4.3.5/../../../../psp/lib\libc.a(lib_a-memset.o)
 .debug_aranges
                0x0000000000001a48       0x20 c:/pspsdk/bin/../lib/gcc/psp/4.3.5/../../../../psp/lib\libc.a(lib_a-mktm_r.o)
 .debug_aranges
                0x0000000000001a68       0x20 c:/pspsdk/bin/../lib/gcc/psp/4.3.5/../../../../psp/lib\libc.a(lib_a-mlock.o)
 .debug_aranges
                0x0000000000001a88       0x20 c:/pspsdk/bin/../lib/gcc/psp/4.3.5/../../../../psp/lib\libc.a(lib_a-openr.o)
 .debug_aranges
                0x0000000000001aa8       0x20 c:/pspsdk/bin/../lib/gcc/psp/4.3.5/../../../../psp/lib\libc.a(lib_a-putc.o)
 .debug_aranges
                0x0000000000001ac8       0x20 c:/pspsdk/bin/../lib/gcc/psp/4.3.5/../../../../psp/lib\libc.a(lib_a-rand.o)
 .debug_aranges
                0x0000000000001ae8       0x20 c:/pspsdk/bin/../lib/gcc/psp/4.3.5/../../../../psp/lib\libc.a(lib_a-realloc.o)
 .debug_aranges
                0x0000000000001b08       0x20 c:/pspsdk/bin/../lib/gcc/psp/4.3.5/../../../../psp/lib\libc.a(lib_a-reallocr.o)
 .debug_aranges
                0x0000000000001b28       0x20 c:/pspsdk/bin/../lib/gcc/psp/4.3.5/../../../../psp/lib\libc.a(lib_a-reent.o)
 .debug_aranges
                0x0000000000001b48       0x20 c:/pspsdk/bin/../lib/gcc/psp/4.3.5/../../../../psp/lib\libc.a(lib_a-refill.o)
 .debug_aranges
                0x0000000000001b68       0x20 c:/pspsdk/bin/../lib/gcc/psp/4.3.5/../../../../psp/lib\libc.a(lib_a-rget.o)
 .debug_aranges
                0x0000000000001b88       0x20 c:/pspsdk/bin/../lib/gcc/psp/4.3.5/../../../../psp/lib\libc.a(lib_a-sbrkr.o)
 .debug_aranges
                0x0000000000001ba8       0x20 c:/pspsdk/bin/../lib/gcc/psp/4.3.5/../../../../psp/lib\libc.a(lib_a-setjmp.o)
 .debug_aranges
                0x0000000000001bc8       0x20 c:/pspsdk/bin/../lib/gcc/psp/4.3.5/../../../../psp/lib\libc.a(lib_a-signal.o)
 .debug_aranges
                0x0000000000001be8       0x20 c:/pspsdk/bin/../lib/gcc/psp/4.3.5/../../../../psp/lib\libc.a(lib_a-signalr.o)
 .debug_aranges
                0x0000000000001c08       0x20 c:/pspsdk/bin/../lib/gcc/psp/4.3.5/../../../../psp/lib\libc.a(lib_a-snprintf.o)
 .debug_aranges
                0x0000000000001c28       0x20 c:/pspsdk/bin/../lib/gcc/psp/4.3.5/../../../../psp/lib\libc.a(lib_a-sprintf.o)
 .debug_aranges
                0x0000000000001c48       0x20 c:/pspsdk/bin/../lib/gcc/psp/4.3.5/../../../../psp/lib\libc.a(lib_a-sscanf.o)
 .debug_aranges
                0x0000000000001c68       0x20 c:/pspsdk/bin/../lib/gcc/psp/4.3.5/../../../../psp/lib\libc.a(lib_a-stdio.o)
 .debug_aranges
                0x0000000000001c88       0x20 c:/pspsdk/bin/../lib/gcc/psp/4.3.5/../../../../psp/lib\libc.a(lib_a-strcasecmp.o)
 .debug_aranges
                0x0000000000001ca8       0x20 c:/pspsdk/bin/../lib/gcc/psp/4.3.5/../../../../psp/lib\libc.a(lib_a-strcat.o)
 .debug_aranges
                0x0000000000001cc8       0x20 c:/pspsdk/bin/../lib/gcc/psp/4.3.5/../../../../psp/lib\libc.a(lib_a-strchr.o)
 .debug_aranges
                0x0000000000001ce8       0x20 c:/pspsdk/bin/../lib/gcc/psp/4.3.5/../../../../psp/lib\libc.a(lib_a-strcmp.o)
 .debug_aranges
                0x0000000000001d08       0x20 c:/pspsdk/bin/../lib/gcc/psp/4.3.5/../../../../psp/lib\libc.a(lib_a-strcpy.o)
 .debug_aranges
                0x0000000000001d28       0x20 c:/pspsdk/bin/../lib/gcc/psp/4.3.5/../../../../psp/lib\libc.a(lib_a-strerror.o)
 .debug_aranges
                0x0000000000001d48       0x20 c:/pspsdk/bin/../lib/gcc/psp/4.3.5/../../../../psp/lib\libc.a(lib_a-strlen.o)
 .debug_aranges
                0x0000000000001d68       0x20 c:/pspsdk/bin/../lib/gcc/psp/4.3.5/../../../../psp/lib\libc.a(lib_a-strncmp.o)
 .debug_aranges
                0x0000000000001d88       0x20 c:/pspsdk/bin/../lib/gcc/psp/4.3.5/../../../../psp/lib\libc.a(lib_a-strncpy.o)
 .debug_aranges
                0x0000000000001da8       0x20 c:/pspsdk/bin/../lib/gcc/psp/4.3.5/../../../../psp/lib\libc.a(lib_a-strrchr.o)
 .debug_aranges
                0x0000000000001dc8       0x20 c:/pspsdk/bin/../lib/gcc/psp/4.3.5/../../../../psp/lib\libc.a(lib_a-strtod.o)
 .debug_aranges
                0x0000000000001de8       0x20 c:/pspsdk/bin/../lib/gcc/psp/4.3.5/../../../../psp/lib\libc.a(lib_a-strtol.o)
 .debug_aranges
                0x0000000000001e08       0x20 c:/pspsdk/bin/../lib/gcc/psp/4.3.5/../../../../psp/lib\libc.a(lib_a-svfprintf.o)
 .debug_aranges
                0x0000000000001e28       0x20 c:/pspsdk/bin/../lib/gcc/psp/4.3.5/../../../../psp/lib\libc.a(lib_a-svfscanf.o)
 .debug_aranges
                0x0000000000001e48       0x20 c:/pspsdk/bin/../lib/gcc/psp/4.3.5/../../../../psp/lib\libc.a(lib_a-sysgettod.o)
 .debug_aranges
                0x0000000000001e68       0x20 c:/pspsdk/bin/../lib/gcc/psp/4.3.5/../../../../psp/lib\libc.a(lib_a-syswrite.o)
 .debug_aranges
                0x0000000000001e88       0x20 c:/pspsdk/bin/../lib/gcc/psp/4.3.5/../../../../psp/lib\libc.a(lib_a-time.o)
 .debug_aranges
                0x0000000000001ea8       0x20 c:/pspsdk/bin/../lib/gcc/psp/4.3.5/../../../../psp/lib\libc.a(lib_a-tzlock.o)
 .debug_aranges
                0x0000000000001ec8       0x20 c:/pspsdk/bin/../lib/gcc/psp/4.3.5/../../../../psp/lib\libc.a(lib_a-u_strerr.o)
 .debug_aranges
                0x0000000000001ee8       0x20 c:/pspsdk/bin/../lib/gcc/psp/4.3.5/../../../../psp/lib\libc.a(lib_a-ungetc.o)
 .debug_aranges
                0x0000000000001f08       0x20 c:/pspsdk/bin/../lib/gcc/psp/4.3.5/../../../../psp/lib\libc.a(lib_a-vfiprintf.o)
 .debug_aranges
                0x0000000000001f28       0x20 c:/pspsdk/bin/../lib/gcc/psp/4.3.5/../../../../psp/lib\libc.a(lib_a-vsnprintf.o)
 .debug_aranges
                0x0000000000001f48       0x20 c:/pspsdk/bin/../lib/gcc/psp/4.3.5/../../../../psp/lib\libc.a(lib_a-wbuf.o)
 .debug_aranges
                0x0000000000001f68       0x20 c:/pspsdk/bin/../lib/gcc/psp/4.3.5/../../../../psp/lib\libc.a(lib_a-writer.o)
 .debug_aranges
                0x0000000000001f88       0x20 c:/pspsdk/bin/../lib/gcc/psp/4.3.5/../../../../psp/lib\libc.a(lib_a-wsetup.o)
 .debug_aranges
                0x0000000000001fa8       0x20 c:/pspsdk/bin/../lib/gcc/psp/4.3.5/../../../../psp/lib\libc.a(vxprintf.o)
 .debug_aranges
                0x0000000000001fc8       0x20 c:/pspsdk/bin/../lib/gcc/psp/4.3.5/../../../../psp/lib\libc.a(__fout.o)
 .debug_aranges
                0x0000000000001fe8       0x20 c:/pspsdk/bin/../lib/gcc/psp/4.3.5/../../../../psp/lib\libc.a(_exit.o)
 .debug_aranges
                0x0000000000002008       0x20 c:/pspsdk/bin/../lib/gcc/psp/4.3.5/../../../../psp/lib\libc.a(_fstat.o)
 .debug_aranges
                0x0000000000002028       0x20 c:/pspsdk/bin/../lib/gcc/psp/4.3.5/../../../../psp/lib\libc.a(_getpid.o)
 .debug_aranges
                0x0000000000002048       0x20 c:/pspsdk/bin/../lib/gcc/psp/4.3.5/../../../../psp/lib\libc.a(_kill.o)
 .debug_aranges
                0x0000000000002068       0x20 c:/pspsdk/bin/../lib/gcc/psp/4.3.5/../../../../psp/lib\libc.a(_open.o)
 .debug_aranges
                0x0000000000002088       0x20 c:/pspsdk/bin/../lib/gcc/psp/4.3.5/../../../../psp/lib\libc.a(_sbrk.o)
 .debug_aranges
                0x00000000000020a8       0x20 c:/pspsdk/bin/../lib/gcc/psp/4.3.5/../../../../psp/lib\libc.a(_write.o)
 .debug_aranges
                0x00000000000020c8       0x20 c:/pspsdk/bin/../lib/gcc/psp/4.3.5/../../../../psp/lib\libc.a(fdman.o)
 .debug_aranges
                0x00000000000020e8       0x20 c:/pspsdk/bin/../lib/gcc/psp/4.3.5/../../../../psp/lib\libc.a(interrupt.o)
 .debug_aranges
                0x0000000000002108       0x20 c:/pspsdk/bin/../lib/gcc/psp/4.3.5/../../../../psp/lib\libc.a(isatty.o)
 .debug_aranges
                0x0000000000002128       0x20 c:/pspsdk/bin/../lib/gcc/psp/4.3.5/../../../../psp/lib\libc.a(lib_a-__atexit.o)
 .debug_aranges
                0x0000000000002148       0x20 c:/pspsdk/bin/../lib/gcc/psp/4.3.5/../../../../psp/lib\libc.a(lib_a-__call_atexit.o)
 .debug_aranges
                0x0000000000002168       0x20 c:/pspsdk/bin/../lib/gcc/psp/4.3.5/../../../../psp/lib\libc.a(lib_a-closer.o)
 .debug_aranges
                0x0000000000002188       0x20 c:/pspsdk/bin/../lib/gcc/psp/4.3.5/../../../../psp/lib\libc.a(lib_a-dtoa.o)
 .debug_aranges
                0x00000000000021a8       0x20 c:/pspsdk/bin/../lib/gcc/psp/4.3.5/../../../../psp/lib\libc.a(lib_a-envlock.o)
 .debug_aranges
                0x00000000000021c8       0x20 c:/pspsdk/bin/../lib/gcc/psp/4.3.5/../../../../psp/lib\libc.a(lib_a-fcntlr.o)
 .debug_aranges
                0x00000000000021e8       0x20 c:/pspsdk/bin/../lib/gcc/psp/4.3.5/../../../../psp/lib\libc.a(lib_a-fputwc.o)
 .debug_aranges
                0x0000000000002208       0x20 c:/pspsdk/bin/../lib/gcc/psp/4.3.5/../../../../psp/lib\libc.a(lib_a-gdtoa-gethex.o)
 .debug_aranges
                0x0000000000002228       0x20 c:/pspsdk/bin/../lib/gcc/psp/4.3.5/../../../../psp/lib\libc.a(lib_a-gdtoa-hexnan.o)
 .debug_aranges
                0x0000000000002248       0x20 c:/pspsdk/bin/../lib/gcc/psp/4.3.5/../../../../psp/lib\libc.a(lib_a-gettimeofdayr.o)
 .debug_aranges
                0x0000000000002268       0x20 c:/pspsdk/bin/../lib/gcc/psp/4.3.5/../../../../psp/lib\libc.a(lib_a-gettzinfo.o)
 .debug_aranges
                0x0000000000002288       0x20 c:/pspsdk/bin/../lib/gcc/psp/4.3.5/../../../../psp/lib\libc.a(lib_a-isdigit.o)
 .debug_aranges
                0x00000000000022a8       0x20 c:/pspsdk/bin/../lib/gcc/psp/4.3.5/../../../../psp/lib\libc.a(lib_a-iswspace.o)
 .debug_aranges
                0x00000000000022c8       0x20 c:/pspsdk/bin/../lib/gcc/psp/4.3.5/../../../../psp/lib\libc.a(lib_a-locale.o)
 .debug_aranges
                0x00000000000022e8       0x20 c:/pspsdk/bin/../lib/gcc/psp/4.3.5/../../../../psp/lib\libc.a(lib_a-lseekr.o)
 .debug_aranges
                0x0000000000002308       0x20 c:/pspsdk/bin/../lib/gcc/psp/4.3.5/../../../../psp/lib\libc.a(lib_a-mbrtowc.o)
 .debug_aranges
                0x0000000000002328       0x20 c:/pspsdk/bin/../lib/gcc/psp/4.3.5/../../../../psp/lib\libc.a(lib_a-mbtowc_r.o)
 .debug_aranges
                0x0000000000002348       0x20 c:/pspsdk/bin/../lib/gcc/psp/4.3.5/../../../../psp/lib\libc.a(lib_a-mprec.o)
 .debug_aranges
                0x0000000000002368       0x20 c:/pspsdk/bin/../lib/gcc/psp/4.3.5/../../../../psp/lib\libc.a(lib_a-readr.o)
 .debug_aranges
                0x0000000000002388       0x20 c:/pspsdk/bin/../lib/gcc/psp/4.3.5/../../../../psp/lib\libc.a(lib_a-sccl.o)
 .debug_aranges
                0x00000000000023a8       0x20 c:/pspsdk/bin/../lib/gcc/psp/4.3.5/../../../../psp/lib\libc.a(lib_a-sf_nan.o)
 .debug_aranges
                0x00000000000023c8       0x20 c:/pspsdk/bin/../lib/gcc/psp/4.3.5/../../../../psp/lib\libc.a(lib_a-strdup.o)
 .debug_aranges
                0x00000000000023e8       0x20 c:/pspsdk/bin/../lib/gcc/psp/4.3.5/../../../../psp/lib\libc.a(lib_a-strdup_r.o)
 .debug_aranges
                0x0000000000002408       0x20 c:/pspsdk/bin/../lib/gcc/psp/4.3.5/../../../../psp/lib\libc.a(lib_a-strtoll_r.o)
 .debug_aranges
                0x0000000000002428       0x20 c:/pspsdk/bin/../lib/gcc/psp/4.3.5/../../../../psp/lib\libc.a(lib_a-strtoul.o)
 .debug_aranges
                0x0000000000002448       0x20 c:/pspsdk/bin/../lib/gcc/psp/4.3.5/../../../../psp/lib\libc.a(lib_a-strtoull_r.o)
 .debug_aranges
                0x0000000000002468       0x20 c:/pspsdk/bin/../lib/gcc/psp/4.3.5/../../../../psp/lib\libc.a(lib_a-svfiprintf.o)
 .debug_aranges
                0x0000000000002488       0x20 c:/pspsdk/bin/../lib/gcc/psp/4.3.5/../../../../psp/lib\libc.a(lib_a-svfiscanf.o)
 .debug_aranges
                0x00000000000024a8       0x20 c:/pspsdk/bin/../lib/gcc/psp/4.3.5/../../../../psp/lib\libc.a(lib_a-sysstat.o)
 .debug_aranges
                0x00000000000024c8       0x20 c:/pspsdk/bin/../lib/gcc/psp/4.3.5/../../../../psp/lib\libc.a(lib_a-wcrtomb.o)
 .debug_aranges
                0x00000000000024e8       0x20 c:/pspsdk/bin/../lib/gcc/psp/4.3.5/../../../../psp/lib\libc.a(lib_a-wctomb_r.o)
 .debug_aranges
                0x0000000000002508       0x20 c:/pspsdk/bin/../lib/gcc/psp/4.3.5/../../../../psp/lib\libc.a(pipe.o)
 .debug_aranges
                0x0000000000002528       0x20 c:/pspsdk/bin/../lib/gcc/psp/4.3.5/../../../../psp/lib\libc.a(pspcwd.o)
 .debug_aranges
                0x0000000000002548       0x20 c:/pspsdk/bin/../lib/gcc/psp/4.3.5/../../../../psp/lib\libc.a(__psp_set_errno.o)
 .debug_aranges
                0x0000000000002568       0x20 c:/pspsdk/bin/../lib/gcc/psp/4.3.5/../../../../psp/lib\libc.a(_close.o)
 .debug_aranges
                0x0000000000002588       0x20 c:/pspsdk/bin/../lib/gcc/psp/4.3.5/../../../../psp/lib\libc.a(_fcntl.o)
 .debug_aranges
                0x00000000000025a8       0x20 c:/pspsdk/bin/../lib/gcc/psp/4.3.5/../../../../psp/lib\libc.a(_gettimeofday.o)
 .debug_aranges
                0x00000000000025c8       0x20 c:/pspsdk/bin/../lib/gcc/psp/4.3.5/../../../../psp/lib\libc.a(_lseek.o)
 .debug_aranges
                0x00000000000025e8       0x20 c:/pspsdk/bin/../lib/gcc/psp/4.3.5/../../../../psp/lib\libc.a(_read.o)
 .debug_aranges
                0x0000000000002608       0x20 c:/pspsdk/bin/../lib/gcc/psp/4.3.5/../../../../psp/lib\libc.a(chdir.o)
 .debug_aranges
                0x0000000000002628       0x20 c:/pspsdk/bin/../lib/gcc/psp/4.3.5/../../../../psp/lib\libc.a(lib_a-statr.o)
 .debug_aranges
                0x0000000000002648       0x20 c:/pspsdk/bin/../lib/gcc/psp/4.3.5/../../../../psp/lib\libc.a(setsockopt.o)
 .debug_aranges
                0x0000000000002668       0x20 c:/pspsdk/bin/../lib/gcc/psp/4.3.5/../../../../psp/lib\libc.a(_stat.o)
 .debug_aranges
                0x0000000000002688       0x20 c:/pspsdk/bin/../lib/gcc/psp/4.3.5/../../../../psp/lib\libc.a(lib_a-mktime.o)
 .debug_aranges
                0x00000000000026a8       0x20 c:/pspsdk/bin/../lib/gcc/psp/4.3.5/../../../../psp/lib\libc.a(lib_a-div.o)
 .debug_aranges
                0x00000000000026c8       0x20 c:/pspsdk/bin/../lib/gcc/psp/4.3.5\libgcc.a(_fixunsdfsi.o)
 .debug_aranges
                0x00000000000026e8       0x20 c:/pspsdk/bin/../lib/gcc/psp/4.3.5\libgcc.a(_udivdi3.o)
 .debug_aranges
                0x0000000000002708       0x20 c:/pspsdk/bin/../lib/gcc/psp/4.3.5\libgcc.a(_umoddi3.o)
 .debug_aranges
                0x0000000000002728       0x20 c:/pspsdk/bin/../lib/gcc/psp/4.3.5\libgcc.a(_sf_to_df.o)
 .debug_aranges
                0x0000000000002748       0x20 c:/pspsdk/bin/../lib/gcc/psp/4.3.5\libgcc.a(_addsub_df.o)
 .debug_aranges
                0x0000000000002768       0x20 c:/pspsdk/bin/../lib/gcc/psp/4.3.5\libgcc.a(_mul_df.o)
 .debug_aranges
                0x0000000000002788       0x20 c:/pspsdk/bin/../lib/gcc/psp/4.3.5\libgcc.a(_div_df.o)
 .debug_aranges
                0x00000000000027a8       0x20 c:/pspsdk/bin/../lib/gcc/psp/4.3.5\libgcc.a(_eq_df.o)
 .debug_aranges
                0x00000000000027c8       0x20 c:/pspsdk/bin/../lib/gcc/psp/4.3.5\libgcc.a(_ne_df.o)
 .debug_aranges
                0x00000000000027e8       0x20 c:/pspsdk/bin/../lib/gcc/psp/4.3.5\libgcc.a(_gt_df.o)
 .debug_aranges
                0x0000000000002808       0x20 c:/pspsdk/bin/../lib/gcc/psp/4.3.5\libgcc.a(_ge_df.o)
 .debug_aranges
                0x0000000000002828       0x20 c:/pspsdk/bin/../lib/gcc/psp/4.3.5\libgcc.a(_lt_df.o)
 .debug_aranges
                0x0000000000002848       0x20 c:/pspsdk/bin/../lib/gcc/psp/4.3.5\libgcc.a(_le_df.o)
 .debug_aranges
                0x0000000000002868       0x20 c:/pspsdk/bin/../lib/gcc/psp/4.3.5\libgcc.a(_si_to_df.o)
 .debug_aranges
                0x0000000000002888       0x20 c:/pspsdk/bin/../lib/gcc/psp/4.3.5\libgcc.a(_df_to_si.o)
 .debug_aranges
                0x00000000000028a8       0x20 c:/pspsdk/bin/../lib/gcc/psp/4.3.5\libgcc.a(_make_df.o)
 .debug_aranges
                0x00000000000028c8       0x20 c:/pspsdk/bin/../lib/gcc/psp/4.3.5\libgcc.a(_df_to_sf.o)
 .debug_aranges
                0x00000000000028e8       0x20 c:/pspsdk/bin/../lib/gcc/psp/4.3.5\libgcc.a(_usi_to_df.o)
 .debug_aranges
                0x0000000000002908       0x20 c:/pspsdk/bin/../lib/gcc/psp/4.3.5\libgcc.a(unwind-dw2.o)
 .debug_aranges
                0x0000000000002928       0x20 c:/pspsdk/bin/../lib/gcc/psp/4.3.5\libgcc.a(unwind-dw2-fde.o)
 .debug_aranges
                0x0000000000002948       0x20 c:/pspsdk/bin/../lib/gcc/psp/4.3.5\libgcc.a(_ucmpdi2.o)
 .debug_aranges
                0x0000000000002968       0x20 c:/pspsdk/bin/../lib/gcc/psp/4.3.5\libgcc.a(_unpack_sf.o)
 .debug_aranges
                0x0000000000002988       0x20 c:/pspsdk/bin/../lib/gcc/psp/4.3.5\libgcc.a(_make_sf.o)
 .debug_aranges
                0x00000000000029a8       0x20 c:/pspsdk/bin/../lib/gcc/psp/4.3.5\libgcc.a(_pack_df.o)
 .debug_aranges
                0x00000000000029c8       0x20 c:/pspsdk/bin/../lib/gcc/psp/4.3.5\libgcc.a(_unpack_df.o)
 .debug_aranges
                0x00000000000029e8       0x20 c:/pspsdk/bin/../lib/gcc/psp/4.3.5\libgcc.a(_fpcmp_parts_df.o)
 .debug_aranges
                0x0000000000002a08       0x20 c:/pspsdk/bin/../lib/gcc/psp/4.3.5\libgcc.a(_pack_sf.o)

.debug_pubnames
                0x0000000000000000     0x7384
 *(.debug_pubnames)
 .debug_pubnames
                0x0000000000000000       0x27 c:/pspsdk/bin/../lib/gcc/psp/4.3.5/../../../../psp/lib/crt0.o
 .debug_pubnames
                0x0000000000000027      0x45f psp/sound.o
 .debug_pubnames
                0x0000000000000486      0x538 psp/gym/gym.o
 .debug_pubnames
                0x00000000000009be      0x103 psp/gym/gym_play.o
 .debug_pubnames
                0x0000000000000ac1      0x474 psp/vgm/In_vgm.o
 .debug_pubnames
                0x0000000000000f35      0x358 c:/pspsdk/bin/../lib/gcc/psp/4.3.5/../../../../psp/lib\libosl.a(oslib.o)
 .debug_pubnames
                0x000000000000128d      0x3ea c:/pspsdk/bin/../lib/gcc/psp/4.3.5/../../../../psp/lib\libosl.a(drawing.o)
 .debug_pubnames
                0x0000000000001677      0x177 c:/pspsdk/bin/../lib/gcc/psp/4.3.5/../../../../psp/lib\libosl.a(image.o)
 .debug_pubnames
                0x00000000000017ee       0x84 c:/pspsdk/bin/../lib/gcc/psp/4.3.5/../../../../psp/lib\libosl.a(palette.o)
 .debug_pubnames
                0x0000000000001872       0x71 c:/pspsdk/bin/../lib/gcc/psp/4.3.5/../../../../psp/lib\libosl.a(shape.o)
 .debug_pubnames
                0x00000000000018e3       0x3d c:/pspsdk/bin/../lib/gcc/psp/4.3.5/../../../../psp/lib\libosl.a(messagebox.o)
 .debug_pubnames
                0x0000000000001920      0x113 c:/pspsdk/bin/../lib/gcc/psp/4.3.5/../../../../psp/lib\libosl.a(keys.o)
 .debug_pubnames
                0x0000000000001a33       0x58 c:/pspsdk/bin/../lib/gcc/psp/4.3.5/../../../../psp/lib\libosl.a(vfpu.o)
 .debug_pubnames
                0x0000000000001a8b      0x2c5 c:/pspsdk/bin/../lib/gcc/psp/4.3.5/../../../../psp/lib\libosl.a(text.o)
 .debug_pubnames
                0x0000000000001d50      0x100 c:/pspsdk/bin/../lib/gcc/psp/4.3.5/../../../../psp/lib\libosl.a(vram_mgr.o)
 .debug_pubnames
                0x0000000000001e50      0x3d5 c:/pspsdk/bin/../lib/gcc/psp/4.3.5/../../../../psp/lib\libosl.a(audio.o)
 .debug_pubnames
                0x0000000000002225      0x14b c:/pspsdk/bin/../lib/gcc/psp/4.3.5/../../../../psp/lib\libosl.a(bgm.o)
 .debug_pubnames
                0x0000000000002370       0x91 c:/pspsdk/bin/../lib/gcc/psp/4.3.5/../../../../psp/lib\libosl.a(usb.o)
 .debug_pubnames
                0x0000000000002401      0x289 c:/pspsdk/bin/../lib/gcc/psp/4.3.5/../../../../psp/lib\libosl.a(VirtualFile.o)
 .debug_pubnames
                0x000000000000268a       0xee c:/pspsdk/bin/../lib/gcc/psp/4.3.5/../../../../psp/lib\libosl.a(vfsFile.o)
 .debug_pubnames
                0x0000000000002778       0x23 c:/pspsdk/bin/../lib/gcc/psp/4.3.5/../../../../psp/lib\libosl.a(oslDrawImage.o)
 .debug_pubnames
                0x000000000000279b       0x29 c:/pspsdk/bin/../lib/gcc/psp/4.3.5/../../../../psp/lib\libosl.a(oslDrawImageSimple.o)
 .debug_pubnames
                0x00000000000027c4       0x36 c:/pspsdk/bin/../lib/gcc/psp/4.3.5/../../../../psp/lib\libosl.a(oslLockImage.o)
 .debug_pubnames
                0x00000000000027fa       0x6e c:/pspsdk/bin/../lib/gcc/psp/4.3.5/../../../../psp/lib\libosl.a(oslSwizzleImage.o)
 .debug_pubnames
                0x0000000000002868       0x27 c:/pspsdk/bin/../lib/gcc/psp/4.3.5/../../../../psp/lib\libosl.a(oslSetDrawBuffer.o)
 .debug_pubnames
                0x000000000000288f       0x3d c:/pspsdk/bin/../lib/gcc/psp/4.3.5/../../../../psp/lib\libosl.a(oslWriteImageFilePNG.o)
 .debug_pubnames
                0x00000000000028cc       0x27 c:/pspsdk/bin/../lib/gcc/psp/4.3.5/../../../../psp/lib\libosl.a(oslLoadImageFile.o)
 .debug_pubnames
                0x00000000000028f3      0x284 c:/pspsdk/bin/../lib/gcc/psp/4.3.5/../../../../psp/lib\libosl.a(intraFont.o)
 .debug_pubnames
                0x0000000000002b77      0x1ab c:/pspsdk/bin/../lib/gcc/psp/4.3.5/../../../../psp/lib\libosl.a(libccc.o)
 .debug_pubnames
                0x0000000000002d22       0x64 c:/pspsdk/bin/../lib/gcc/psp/4.3.5/../../../../psp/lib\libosl.a(oslHandleLoadNoFailError.o)
 .debug_pubnames
                0x0000000000002d86       0x4d c:/pspsdk/bin/../lib/gcc/psp/4.3.5/../../../../psp/lib\libosl.a(oslLoadImageFilePNG.o)
 .debug_pubnames
                0x0000000000002dd3       0x2a c:/pspsdk/bin/../lib/gcc/psp/4.3.5/../../../../psp/lib\libosl.a(oslLoadImageFileJPG.o)
 .debug_pubnames
                0x0000000000002dfd       0xb2 c:/pspsdk/bin/../lib/gcc/psp/4.3.5/../../../../psp/lib\libosl.a(oslLoadImageFileGIF.o)
 .debug_pubnames
                0x0000000000002eaf       0x28 c:/pspsdk/bin/../lib/gcc/psp/4.3.5/../../../../psp/lib\libosl.a(oslConvertImageTo.o)
 .debug_pubnames
                0x0000000000002ed7       0x27 c:/pspsdk/bin/../lib/gcc/psp/4.3.5/../../../../psp/lib\libosl.a(oslSetImagePixel.o)
 .debug_pubnames
                0x0000000000002efe       0x27 c:/pspsdk/bin/../lib/gcc/psp/4.3.5/../../../../psp/lib\libosl.a(oslGetImagePixel.o)
 .debug_pubnames
                0x0000000000002f25       0xf8 c:/pspsdk/bin/../lib/gcc/psp/4.3.5/../../../../psp/lib\libosl.a(dgif_lib.o)
 .debug_pubnames
                0x000000000000301d       0x31 c:/pspsdk/bin/../lib/gcc/psp/4.3.5/../../../../psp/lib\libosl.a(gif_err.o)
 .debug_pubnames
                0x000000000000304e       0xe1 c:/pspsdk/bin/../lib/gcc/psp/4.3.5/../../../../psp/lib\libosl.a(gifalloc.o)
 .debug_pubnames
                0x000000000000312f       0xdd c:/pspsdk/bin/../lib/gcc/psp/4.3.5/../../../../psp/lib\libjpeg.a(jdapimin.o)
 .debug_pubnames
                0x000000000000320c       0x88 c:/pspsdk/bin/../lib/gcc/psp/4.3.5/../../../../psp/lib\libjpeg.a(jdapistd.o)
 .debug_pubnames
                0x0000000000003294       0x36 c:/pspsdk/bin/../lib/gcc/psp/4.3.5/../../../../psp/lib\libjpeg.a(jdatasrc.o)
 .debug_pubnames
                0x00000000000032ca       0x64 c:/pspsdk/bin/../lib/gcc/psp/4.3.5/../../../../psp/lib\libjpeg.a(jdmaster.o)
 .debug_pubnames
                0x000000000000332e       0x4d c:/pspsdk/bin/../lib/gcc/psp/4.3.5/../../../../psp/lib\libjpeg.a(jdinput.o)
 .debug_pubnames
                0x000000000000337b       0x79 c:/pspsdk/bin/../lib/gcc/psp/4.3.5/../../../../psp/lib\libjpeg.a(jdmarker.o)
 .debug_pubnames
                0x00000000000033f4       0x29 c:/pspsdk/bin/../lib/gcc/psp/4.3.5/../../../../psp/lib\libjpeg.a(jdhuff.o)
 .debug_pubnames
                0x000000000000341d       0x2e c:/pspsdk/bin/../lib/gcc/psp/4.3.5/../../../../psp/lib\libjpeg.a(jdmainct.o)
 .debug_pubnames
                0x000000000000344b       0x2e c:/pspsdk/bin/../lib/gcc/psp/4.3.5/../../../../psp/lib\libjpeg.a(jdcoefct.o)
 .debug_pubnames
                0x0000000000003479       0x2e c:/pspsdk/bin/../lib/gcc/psp/4.3.5/../../../../psp/lib\libjpeg.a(jdpostct.o)
 .debug_pubnames
                0x00000000000034a7       0x28 c:/pspsdk/bin/../lib/gcc/psp/4.3.5/../../../../psp/lib\libjpeg.a(jddctmgr.o)
 .debug_pubnames
                0x00000000000034cf       0x26 c:/pspsdk/bin/../lib/gcc/psp/4.3.5/../../../../psp/lib\libjpeg.a(jidctfst.o)
 .debug_pubnames
                0x00000000000034f5       0x26 c:/pspsdk/bin/../lib/gcc/psp/4.3.5/../../../../psp/lib\libjpeg.a(jidctflt.o)
 .debug_pubnames
                0x000000000000351b      0x26a c:/pspsdk/bin/../lib/gcc/psp/4.3.5/../../../../psp/lib\libjpeg.a(jidctint.o)
 .debug_pubnames
                0x0000000000003785       0x26 c:/pspsdk/bin/../lib/gcc/psp/4.3.5/../../../../psp/lib\libjpeg.a(jdsample.o)
 .debug_pubnames
                0x00000000000037ab       0x2e c:/pspsdk/bin/../lib/gcc/psp/4.3.5/../../../../psp/lib\libjpeg.a(jdcolor.o)
 .debug_pubnames
                0x00000000000037d9       0x2c c:/pspsdk/bin/../lib/gcc/psp/4.3.5/../../../../psp/lib\libjpeg.a(jquant1.o)
 .debug_pubnames
                0x0000000000003805       0x2c c:/pspsdk/bin/../lib/gcc/psp/4.3.5/../../../../psp/lib\libjpeg.a(jquant2.o)
 .debug_pubnames
                0x0000000000003831       0x2d c:/pspsdk/bin/../lib/gcc/psp/4.3.5/../../../../psp/lib\libjpeg.a(jdmerge.o)
 .debug_pubnames
                0x000000000000385e       0x67 c:/pspsdk/bin/../lib/gcc/psp/4.3.5/../../../../psp/lib\libjpeg.a(jcomapi.o)
 .debug_pubnames
                0x00000000000038c5      0x111 c:/pspsdk/bin/../lib/gcc/psp/4.3.5/../../../../psp/lib\libjpeg.a(jutils.o)
 .debug_pubnames
                0x00000000000039d6       0x40 c:/pspsdk/bin/../lib/gcc/psp/4.3.5/../../../../psp/lib\libjpeg.a(jerror.o)
 .debug_pubnames
                0x0000000000003a16       0x27 c:/pspsdk/bin/../lib/gcc/psp/4.3.5/../../../../psp/lib\libjpeg.a(jmemmgr.o)
 .debug_pubnames
                0x0000000000003a3d       0xb7 c:/pspsdk/bin/../lib/gcc/psp/4.3.5/../../../../psp/lib\libjpeg.a(jmemnobs.o)
 .debug_pubnames
                0x0000000000003af4       0x2a c:/pspsdk/bin/../lib/gcc/psp/4.3.5/../../../../psp/lib\libjpeg.a(jdarith.o)
 .debug_pubnames
                0x0000000000003b1e       0x22 c:/pspsdk/bin/../lib/gcc/psp/4.3.5/../../../../psp/lib\libjpeg.a(jaricom.o)
 .debug_pubnames
                0x0000000000003b40       0x4e c:/pspsdk/psp/sdk/lib\libpspsdk.a(loadmodule.o)
 .debug_pubnames
                0x0000000000003b8e       0x25 c:/pspsdk/psp/sdk/lib\libpspgu.a(sceGuAlphaFunc.o)
 .debug_pubnames
                0x0000000000003bb3       0x28 c:/pspsdk/psp/sdk/lib\libpspgu.a(sceGuAmbientColor.o)
 .debug_pubnames
                0x0000000000003bdb       0x25 c:/pspsdk/psp/sdk/lib\libpspgu.a(sceGuBlendFunc.o)
 .debug_pubnames
                0x0000000000003c00       0x21 c:/pspsdk/psp/sdk/lib\libpspgu.a(sceGuClear.o)
 .debug_pubnames
                0x0000000000003c21       0x26 c:/pspsdk/psp/sdk/lib\libpspgu.a(sceGuClearColor.o)
 .debug_pubnames
                0x0000000000003c47       0x24 c:/pspsdk/psp/sdk/lib\libpspgu.a(sceGuClutLoad.o)
 .debug_pubnames
                0x0000000000003c6b       0x24 c:/pspsdk/psp/sdk/lib\libpspgu.a(sceGuClutMode.o)
 .debug_pubnames
                0x0000000000003c8f       0x25 c:/pspsdk/psp/sdk/lib\libpspgu.a(sceGuColorFunc.o)
 .debug_pubnames
                0x0000000000003cb4       0x27 c:/pspsdk/psp/sdk/lib\libpspgu.a(sceGuDepthBuffer.o)
 .debug_pubnames
                0x0000000000003cdb       0x25 c:/pspsdk/psp/sdk/lib\libpspgu.a(sceGuDepthFunc.o)
 .debug_pubnames
                0x0000000000003d00       0x26 c:/pspsdk/psp/sdk/lib\libpspgu.a(sceGuDepthRange.o)
 .debug_pubnames
                0x0000000000003d26       0x23 c:/pspsdk/psp/sdk/lib\libpspgu.a(sceGuDisable.o)
 .debug_pubnames
                0x0000000000003d49       0x35 c:/pspsdk/psp/sdk/lib\libpspgu.a(sceGuDispBuffer.o)
 .debug_pubnames
                0x0000000000003d7e       0x23 c:/pspsdk/psp/sdk/lib\libpspgu.a(sceGuDisplay.o)
 .debug_pubnames
                0x0000000000003da1       0x25 c:/pspsdk/psp/sdk/lib\libpspgu.a(sceGuDrawArray.o)
 .debug_pubnames
                0x0000000000003dc6       0x26 c:/pspsdk/psp/sdk/lib\libpspgu.a(sceGuDrawBuffer.o)
 .debug_pubnames
                0x0000000000003dec       0x22 c:/pspsdk/psp/sdk/lib\libpspgu.a(sceGuEnable.o)
 .debug_pubnames
                0x0000000000003e0e       0x34 c:/pspsdk/psp/sdk/lib\libpspgu.a(sceGuFinish.o)
 .debug_pubnames
                0x0000000000003e42       0x25 c:/pspsdk/psp/sdk/lib\libpspgu.a(sceGuFrontFace.o)
 .debug_pubnames
                0x0000000000003e67       0x25 c:/pspsdk/psp/sdk/lib\libpspgu.a(sceGuGetMemory.o)
 .debug_pubnames
                0x0000000000003e8c       0x31 c:/pspsdk/psp/sdk/lib\libpspgu.a(sceGuInit.o)
 .debug_pubnames
                0x0000000000003ebd       0x22 c:/pspsdk/psp/sdk/lib\libpspgu.a(sceGuOffset.o)
 .debug_pubnames
                0x0000000000003edf       0x23 c:/pspsdk/psp/sdk/lib\libpspgu.a(sceGuScissor.o)
 .debug_pubnames
                0x0000000000003f02       0x26 c:/pspsdk/psp/sdk/lib\libpspgu.a(sceGuShadeModel.o)
 .debug_pubnames
                0x0000000000003f28       0x21 c:/pspsdk/psp/sdk/lib\libpspgu.a(sceGuStart.o)
 .debug_pubnames
                0x0000000000003f49       0x27 c:/pspsdk/psp/sdk/lib\libpspgu.a(sceGuStencilFunc.o)
 .debug_pubnames
                0x0000000000003f70       0x25 c:/pspsdk/psp/sdk/lib\libpspgu.a(sceGuStencilOp.o)
 .debug_pubnames
                0x0000000000003f95       0x5c c:/pspsdk/psp/sdk/lib\libpspgu.a(sceGuSwapBuffers.o)
 .debug_pubnames
                0x0000000000003ff1       0x20 c:/pspsdk/psp/sdk/lib\libpspgu.a(sceGuSync.o)
 .debug_pubnames
                0x0000000000004011       0x20 c:/pspsdk/psp/sdk/lib\libpspgu.a(sceGuTerm.o)
 .debug_pubnames
                0x0000000000004031       0x27 c:/pspsdk/psp/sdk/lib\libpspgu.a(sceGuTexEnvColor.o)
 .debug_pubnames
                0x0000000000004058       0x25 c:/pspsdk/psp/sdk/lib\libpspgu.a(sceGuTexFilter.o)
 .debug_pubnames
                0x000000000000407d       0x23 c:/pspsdk/psp/sdk/lib\libpspgu.a(sceGuTexFunc.o)
 .debug_pubnames
                0x00000000000040a0       0x2f c:/pspsdk/psp/sdk/lib\libpspgu.a(sceGuTexImage.o)
 .debug_pubnames
                0x00000000000040cf       0x23 c:/pspsdk/psp/sdk/lib\libpspgu.a(sceGuTexMode.o)
 .debug_pubnames
                0x00000000000040f2       0x25 c:/pspsdk/psp/sdk/lib\libpspgu.a(sceGuTexOffset.o)
 .debug_pubnames
                0x0000000000004117       0x24 c:/pspsdk/psp/sdk/lib\libpspgu.a(sceGuTexScale.o)
 .debug_pubnames
                0x000000000000413b       0x23 c:/pspsdk/psp/sdk/lib\libpspgu.a(sceGuTexWrap.o)
 .debug_pubnames
                0x000000000000415e       0x24 c:/pspsdk/psp/sdk/lib\libpspgu.a(sceGuViewport.o)
 .debug_pubnames
                0x0000000000004182       0x4a c:/pspsdk/psp/sdk/lib\libpspgu.a(sendCommand.o)
 .debug_pubnames
                0x00000000000041cc       0x22 c:/pspsdk/psp/sdk/lib\libpspgu.a(callbackFin.o)
 .debug_pubnames
                0x00000000000041ee       0x22 c:/pspsdk/psp/sdk/lib\libpspgu.a(callbackSig.o)
 .debug_pubnames
                0x0000000000004210      0x122 c:/pspsdk/psp/sdk/lib\libpspgu.a(guInternal.o)
 .debug_pubnames
                0x0000000000004332       0x22 c:/pspsdk/psp/sdk/lib\libpspgu.a(resetValues.o)
 .debug_pubnames
                0x0000000000004354       0x29 c:/pspsdk/psp/sdk/lib\libpspgu.a(sceGuColorMaterial.o)
 .debug_pubnames
                0x000000000000437d       0x27 c:/pspsdk/psp/sdk/lib\libpspgu.a(sceGuPatchDivide.o)
 .debug_pubnames
                0x00000000000043a4       0x25 c:/pspsdk/psp/sdk/lib\libpspgu.a(sceGuSetDither.o)
 .debug_pubnames
                0x00000000000043c9       0x24 c:/pspsdk/psp/sdk/lib\libpspgu.a(sceGuSpecular.o)
 .debug_pubnames
                0x00000000000043ed       0x24 c:/pspsdk/psp/sdk/lib\libpspgu.a(sceGuTexFlush.o)
 .debug_pubnames
                0x0000000000004411       0x26 c:/pspsdk/bin/../lib/gcc/psp/4.3.5/../../../../psp/lib\libstdc++.a(del_op.o)
 .debug_pubnames
                0x0000000000004437       0x29 c:/pspsdk/bin/../lib/gcc/psp/4.3.5/../../../../psp/lib\libstdc++.a(del_opv.o)
 .debug_pubnames
                0x0000000000004460       0x23 c:/pspsdk/bin/../lib/gcc/psp/4.3.5/../../../../psp/lib\libstdc++.a(new_op.o)
 .debug_pubnames
                0x0000000000004483       0x26 c:/pspsdk/bin/../lib/gcc/psp/4.3.5/../../../../psp/lib\libstdc++.a(new_opv.o)
 .debug_pubnames
                0x00000000000044a9       0x60 c:/pspsdk/bin/../lib/gcc/psp/4.3.5/../../../../psp/lib\libstdc++.a(eh_alloc.o)
 .debug_pubnames
                0x0000000000004509       0x5b c:/pspsdk/bin/../lib/gcc/psp/4.3.5/../../../../psp/lib\libstdc++.a(eh_globals.o)
 .debug_pubnames
                0x0000000000004564       0x5d c:/pspsdk/bin/../lib/gcc/psp/4.3.5/../../../../psp/lib\libstdc++.a(eh_personality.o)
 .debug_pubnames
                0x00000000000045c1       0xa1 c:/pspsdk/bin/../lib/gcc/psp/4.3.5/../../../../psp/lib\libstdc++.a(eh_terminate.o)
 .debug_pubnames
                0x0000000000004662       0x36 c:/pspsdk/bin/../lib/gcc/psp/4.3.5/../../../../psp/lib\libstdc++.a(eh_term_handler.o)
 .debug_pubnames
                0x0000000000004698       0x4c c:/pspsdk/bin/../lib/gcc/psp/4.3.5/../../../../psp/lib\libstdc++.a(eh_throw.o)
 .debug_pubnames
                0x00000000000046e4       0x37 c:/pspsdk/bin/../lib/gcc/psp/4.3.5/../../../../psp/lib\libstdc++.a(eh_unex_handler.o)
 .debug_pubnames
                0x000000000000471b       0xc4 c:/pspsdk/bin/../lib/gcc/psp/4.3.5/../../../../psp/lib\libstdc++.a(new_handler.o)
 .debug_pubnames
                0x00000000000047df      0x166 c:/pspsdk/bin/../lib/gcc/psp/4.3.5/../../../../psp/lib\libstdc++.a(si_class_type_info.o)
 .debug_pubnames
                0x0000000000004945       0xf5 c:/pspsdk/bin/../lib/gcc/psp/4.3.5/../../../../psp/lib\libstdc++.a(tinfo.o)
 .debug_pubnames
                0x0000000000004a3a       0x3d c:/pspsdk/bin/../lib/gcc/psp/4.3.5/../../../../psp/lib\libstdc++.a(vterminate.o)
 .debug_pubnames
                0x0000000000004a77      0x1a8 c:/pspsdk/bin/../lib/gcc/psp/4.3.5/../../../../psp/lib\libstdc++.a(class_type_info.o)
 .debug_pubnames
                0x0000000000004c1f       0x2b c:/pspsdk/bin/../lib/gcc/psp/4.3.5/../../../../psp/lib\libstdc++.a(eh_call.o)
 .debug_pubnames
                0x0000000000004c4a       0x98 c:/pspsdk/bin/../lib/gcc/psp/4.3.5/../../../../psp/lib\libstdc++.a(eh_catch.o)
 .debug_pubnames
                0x0000000000004ce2      0x25e c:/pspsdk/bin/../lib/gcc/psp/4.3.5/../../../../psp/lib\libstdc++.a(eh_exception.o)
 .debug_pubnames
                0x0000000000004f40       0x3f c:/pspsdk/bin/../lib/gcc/psp/4.3.5/../../../../psp/lib\libstdc++.a(eh_type.o)
 .debug_pubnames
                0x0000000000004f7f       0x35 c:/pspsdk/bin/../lib/gcc/psp/4.3.5/../../../../psp/lib\libstdc++.a(pure.o)
 .debug_pubnames
                0x0000000000004fb4       0x1b c:/pspsdk/bin/../lib/gcc/psp/4.3.5/../../../../psp/lib\libm.a(lib_a-s_ceil.o)
 .debug_pubnames
                0x0000000000004fcf       0x1c c:/pspsdk/bin/../lib/gcc/psp/4.3.5/../../../../psp/lib\libm.a(lib_a-s_floor.o)
 .debug_pubnames
                0x0000000000004feb       0x1a c:/pspsdk/bin/../lib/gcc/psp/4.3.5/../../../../psp/lib\libm.a(lib_a-s_log.o)
 .debug_pubnames
                0x0000000000005005       0x1c c:/pspsdk/bin/../lib/gcc/psp/4.3.5/../../../../psp/lib\libm.a(lib_a-s_log10.o)
 .debug_pubnames
                0x0000000000005021       0x20 c:/pspsdk/bin/../lib/gcc/psp/4.3.5/../../../../psp/lib\libm.a(lib_a-s_logarithm.o)
 .debug_pubnames
                0x0000000000005041       0xa0 c:/pspsdk/bin/../lib/gcc/psp/4.3.5/../../../../psp/lib\libm.a(lib_a-s_mathcnst.o)
 .debug_pubnames
                0x00000000000050e1       0x1b c:/pspsdk/bin/../lib/gcc/psp/4.3.5/../../../../psp/lib\libm.a(lib_a-s_modf.o)
 .debug_pubnames
                0x00000000000050fc       0x1a c:/pspsdk/bin/../lib/gcc/psp/4.3.5/../../../../psp/lib\libm.a(lib_a-s_pow.o)
 .debug_pubnames
                0x0000000000005116       0x1a c:/pspsdk/bin/../lib/gcc/psp/4.3.5/../../../../psp/lib\libm.a(lib_a-s_sin.o)
 .debug_pubnames
                0x0000000000005130       0x1b c:/pspsdk/bin/../lib/gcc/psp/4.3.5/../../../../psp/lib\libm.a(lib_a-s_sine.o)
 .debug_pubnames
                0x000000000000514b       0x1b c:/pspsdk/bin/../lib/gcc/psp/4.3.5/../../../../psp/lib\libm.a(lib_a-s_sqrt.o)
 .debug_pubnames
                0x0000000000005166       0x1a c:/pspsdk/bin/../lib/gcc/psp/4.3.5/../../../../psp/lib\libm.a(lib_a-s_exp.o)
 .debug_pubnames
                0x0000000000005180       0x1b c:/pspsdk/bin/../lib/gcc/psp/4.3.5/../../../../psp/lib\libm.a(lib_a-s_fabs.o)
 .debug_pubnames
                0x000000000000519b       0x24 c:/pspsdk/bin/../lib/gcc/psp/4.3.5/../../../../psp/lib\libm.a(lib_a-s_fpclassify.o)
 .debug_pubnames
                0x00000000000051bf       0x1c c:/pspsdk/bin/../lib/gcc/psp/4.3.5/../../../../psp/lib\libm.a(lib_a-s_frexp.o)
 .debug_pubnames
                0x00000000000051db       0x1c c:/pspsdk/bin/../lib/gcc/psp/4.3.5/../../../../psp/lib\libm.a(lib_a-s_ispos.o)
 .debug_pubnames
                0x00000000000051f7       0x1c c:/pspsdk/bin/../lib/gcc/psp/4.3.5/../../../../psp/lib\libm.a(lib_a-s_ldexp.o)
 .debug_pubnames
                0x0000000000005213       0x1e c:/pspsdk/bin/../lib/gcc/psp/4.3.5/../../../../psp/lib\libm.a(lib_a-s_numtest.o)
 .debug_pubnames
                0x0000000000005231       0x1e c:/pspsdk/bin/../lib/gcc/psp/4.3.5/../../../../psp/lib\libc.a(fprintf.o)
 .debug_pubnames
                0x000000000000524f       0x1c c:/pspsdk/bin/../lib/gcc/psp/4.3.5/../../../../psp/lib\libc.a(lib_a-abort.o)
 .debug_pubnames
                0x000000000000526b       0x1d c:/pspsdk/bin/../lib/gcc/psp/4.3.5/../../../../psp/lib\libc.a(lib_a-atexit.o)
 .debug_pubnames
                0x0000000000005288       0x1b c:/pspsdk/bin/../lib/gcc/psp/4.3.5/../../../../psp/lib\libc.a(lib_a-atof.o)
 .debug_pubnames
                0x00000000000052a3       0x27 c:/pspsdk/bin/../lib/gcc/psp/4.3.5/../../../../psp/lib\libc.a(lib_a-atoi.o)
 .debug_pubnames
                0x00000000000052ca       0x1d c:/pspsdk/bin/../lib/gcc/psp/4.3.5/../../../../psp/lib\libc.a(lib_a-calloc.o)
 .debug_pubnames
                0x00000000000052e7       0x20 c:/pspsdk/bin/../lib/gcc/psp/4.3.5/../../../../psp/lib\libc.a(lib_a-callocr.o)
 .debug_pubnames
                0x0000000000005307       0x30 c:/pspsdk/bin/../lib/gcc/psp/4.3.5/../../../../psp/lib\libc.a(lib_a-ctype_.o)
 .debug_pubnames
                0x0000000000005337       0x1e c:/pspsdk/bin/../lib/gcc/psp/4.3.5/../../../../psp/lib\libc.a(lib_a-errno.o)
 .debug_pubnames
                0x0000000000005355       0x1b c:/pspsdk/bin/../lib/gcc/psp/4.3.5/../../../../psp/lib\libc.a(lib_a-exit.o)
 .debug_pubnames
                0x0000000000005370       0x2b c:/pspsdk/bin/../lib/gcc/psp/4.3.5/../../../../psp/lib\libc.a(lib_a-fclose.o)
 .debug_pubnames
                0x000000000000539b       0x2b c:/pspsdk/bin/../lib/gcc/psp/4.3.5/../../../../psp/lib\libc.a(lib_a-fdopen.o)
 .debug_pubnames
                0x00000000000053c6       0x2b c:/pspsdk/bin/../lib/gcc/psp/4.3.5/../../../../psp/lib\libc.a(lib_a-fflush.o)
 .debug_pubnames
                0x00000000000053f1       0x29 c:/pspsdk/bin/../lib/gcc/psp/4.3.5/../../../../psp/lib\libc.a(lib_a-fgetc.o)
 .debug_pubnames
                0x000000000000541a       0x29 c:/pspsdk/bin/../lib/gcc/psp/4.3.5/../../../../psp/lib\libc.a(lib_a-fgets.o)
 .debug_pubnames
                0x0000000000005443       0xdb c:/pspsdk/bin/../lib/gcc/psp/4.3.5/../../../../psp/lib\libc.a(lib_a-findfp.o)
 .debug_pubnames
                0x000000000000551e       0x1f c:/pspsdk/bin/../lib/gcc/psp/4.3.5/../../../../psp/lib\libc.a(lib_a-flags.o)
 .debug_pubnames
                0x000000000000553d       0x2f c:/pspsdk/bin/../lib/gcc/psp/4.3.5/../../../../psp/lib\libc.a(lib_a-fmemopen.o)
 .debug_pubnames
                0x000000000000556c       0x29 c:/pspsdk/bin/../lib/gcc/psp/4.3.5/../../../../psp/lib\libc.a(lib_a-fopen.o)
 .debug_pubnames
                0x0000000000005595       0x29 c:/pspsdk/bin/../lib/gcc/psp/4.3.5/../../../../psp/lib\libc.a(lib_a-fputc.o)
 .debug_pubnames
                0x00000000000055be       0x29 c:/pspsdk/bin/../lib/gcc/psp/4.3.5/../../../../psp/lib\libc.a(lib_a-fputs.o)
 .debug_pubnames
                0x00000000000055e7       0x29 c:/pspsdk/bin/../lib/gcc/psp/4.3.5/../../../../psp/lib\libc.a(lib_a-fread.o)
 .debug_pubnames
                0x0000000000005610       0x31 c:/pspsdk/bin/../lib/gcc/psp/4.3.5/../../../../psp/lib\libc.a(lib_a-freer.o)
 .debug_pubnames
                0x0000000000005641       0x29 c:/pspsdk/bin/../lib/gcc/psp/4.3.5/../../../../psp/lib\libc.a(lib_a-fseek.o)
 .debug_pubnames
                0x000000000000566a       0x1f c:/pspsdk/bin/../lib/gcc/psp/4.3.5/../../../../psp/lib\libc.a(lib_a-fstatr.o)
 .debug_pubnames
                0x0000000000005689       0x29 c:/pspsdk/bin/../lib/gcc/psp/4.3.5/../../../../psp/lib\libc.a(lib_a-ftell.o)
 .debug_pubnames
                0x00000000000056b2       0x23 c:/pspsdk/bin/../lib/gcc/psp/4.3.5/../../../../psp/lib\libc.a(lib_a-fvwrite.o)
 .debug_pubnames
                0x00000000000056d5       0x2e c:/pspsdk/bin/../lib/gcc/psp/4.3.5/../../../../psp/lib\libc.a(lib_a-fwalk.o)
 .debug_pubnames
                0x0000000000005703       0x2b c:/pspsdk/bin/../lib/gcc/psp/4.3.5/../../../../psp/lib\libc.a(lib_a-fwrite.o)
 .debug_pubnames
                0x000000000000572e       0x2a c:/pspsdk/bin/../lib/gcc/psp/4.3.5/../../../../psp/lib\libc.a(lib_a-getenv.o)
 .debug_pubnames
                0x0000000000005758       0x2f c:/pspsdk/bin/../lib/gcc/psp/4.3.5/../../../../psp/lib\libc.a(lib_a-getenv_r.o)
 .debug_pubnames
                0x0000000000005787       0x1d c:/pspsdk/bin/../lib/gcc/psp/4.3.5/../../../../psp/lib\libc.a(lib_a-gmtime.o)
 .debug_pubnames
                0x00000000000057a4       0x1f c:/pspsdk/bin/../lib/gcc/psp/4.3.5/../../../../psp/lib\libc.a(lib_a-gmtime_r.o)
 .debug_pubnames
                0x00000000000057c3       0x39 c:/pspsdk/bin/../lib/gcc/psp/4.3.5/../../../../psp/lib\libc.a(lib_a-impure.o)
 .debug_pubnames
                0x00000000000057fc       0x2d c:/pspsdk/bin/../lib/gcc/psp/4.3.5/../../../../psp/lib\libc.a(lib_a-iprintf.o)
 .debug_pubnames
                0x0000000000005829       0x20 c:/pspsdk/bin/../lib/gcc/psp/4.3.5/../../../../psp/lib\libc.a(lib_a-lcltime.o)
 .debug_pubnames
                0x0000000000005849       0x22 c:/pspsdk/bin/../lib/gcc/psp/4.3.5/../../../../psp/lib\libc.a(lib_a-lcltime_r.o)
 .debug_pubnames
                0x000000000000586b       0x23 c:/pspsdk/bin/../lib/gcc/psp/4.3.5/../../../../psp/lib\libc.a(lib_a-makebuf.o)
 .debug_pubnames
                0x000000000000588e       0x1f c:/pspsdk/bin/../lib/gcc/psp/4.3.5/../../../../psp/lib\libc.a(lib_a-malign.o)
 .debug_pubnames
                0x00000000000058ad       0x22 c:/pspsdk/bin/../lib/gcc/psp/4.3.5/../../../../psp/lib\libc.a(lib_a-malignr.o)
 .debug_pubnames
                0x00000000000058cf       0x26 c:/pspsdk/bin/../lib/gcc/psp/4.3.5/../../../../psp/lib\libc.a(lib_a-malloc.o)
 .debug_pubnames
                0x00000000000058f5       0xce c:/pspsdk/bin/../lib/gcc/psp/4.3.5/../../../../psp/lib\libc.a(lib_a-mallocr.o)
 .debug_pubnames
                0x00000000000059c3       0x1d c:/pspsdk/bin/../lib/gcc/psp/4.3.5/../../../../psp/lib\libc.a(lib_a-memchr.o)
 .debug_pubnames
                0x00000000000059e0       0x1d c:/pspsdk/bin/../lib/gcc/psp/4.3.5/../../../../psp/lib\libc.a(lib_a-memcmp.o)
 .debug_pubnames
                0x00000000000059fd       0x1d c:/pspsdk/bin/../lib/gcc/psp/4.3.5/../../../../psp/lib\libc.a(lib_a-memcpy.o)
 .debug_pubnames
                0x0000000000005a1a       0x1e c:/pspsdk/bin/../lib/gcc/psp/4.3.5/../../../../psp/lib\libc.a(lib_a-memmove.o)
 .debug_pubnames
                0x0000000000005a38       0x1d c:/pspsdk/bin/../lib/gcc/psp/4.3.5/../../../../psp/lib\libc.a(lib_a-memset.o)
 .debug_pubnames
                0x0000000000005a55       0x32 c:/pspsdk/bin/../lib/gcc/psp/4.3.5/../../../../psp/lib\libc.a(lib_a-mktm_r.o)
 .debug_pubnames
                0x0000000000005a87       0x38 c:/pspsdk/bin/../lib/gcc/psp/4.3.5/../../../../psp/lib\libc.a(lib_a-mlock.o)
 .debug_pubnames
                0x0000000000005abf       0x1e c:/pspsdk/bin/../lib/gcc/psp/4.3.5/../../../../psp/lib\libc.a(lib_a-openr.o)
 .debug_pubnames
                0x0000000000005add       0x27 c:/pspsdk/bin/../lib/gcc/psp/4.3.5/../../../../psp/lib\libc.a(lib_a-putc.o)
 .debug_pubnames
                0x0000000000005b04       0x25 c:/pspsdk/bin/../lib/gcc/psp/4.3.5/../../../../psp/lib\libc.a(lib_a-rand.o)
 .debug_pubnames
                0x0000000000005b29       0x1e c:/pspsdk/bin/../lib/gcc/psp/4.3.5/../../../../psp/lib\libc.a(lib_a-realloc.o)
 .debug_pubnames
                0x0000000000005b47       0x21 c:/pspsdk/bin/../lib/gcc/psp/4.3.5/../../../../psp/lib\libc.a(lib_a-reallocr.o)
 .debug_pubnames
                0x0000000000005b68       0x52 c:/pspsdk/bin/../lib/gcc/psp/4.3.5/../../../../psp/lib\libc.a(lib_a-reent.o)
 .debug_pubnames
                0x0000000000005bba       0x22 c:/pspsdk/bin/../lib/gcc/psp/4.3.5/../../../../psp/lib\libc.a(lib_a-refill.o)
 .debug_pubnames
                0x0000000000005bdc       0x2c c:/pspsdk/bin/../lib/gcc/psp/4.3.5/../../../../psp/lib\libc.a(lib_a-rget.o)
 .debug_pubnames
                0x0000000000005c08       0x1e c:/pspsdk/bin/../lib/gcc/psp/4.3.5/../../../../psp/lib\libc.a(lib_a-sbrkr.o)
 .debug_pubnames
                0x0000000000005c26       0x86 c:/pspsdk/bin/../lib/gcc/psp/4.3.5/../../../../psp/lib\libc.a(lib_a-signal.o)
 .debug_pubnames
                0x0000000000005cac       0x2c c:/pspsdk/bin/../lib/gcc/psp/4.3.5/../../../../psp/lib\libc.a(lib_a-signalr.o)
 .debug_pubnames
                0x0000000000005cd8       0x2f c:/pspsdk/bin/../lib/gcc/psp/4.3.5/../../../../psp/lib\libc.a(lib_a-snprintf.o)
 .debug_pubnames
                0x0000000000005d07       0x2d c:/pspsdk/bin/../lib/gcc/psp/4.3.5/../../../../psp/lib\libc.a(lib_a-sprintf.o)
 .debug_pubnames
                0x0000000000005d34       0x2b c:/pspsdk/bin/../lib/gcc/psp/4.3.5/../../../../psp/lib\libc.a(lib_a-sscanf.o)
 .debug_pubnames
                0x0000000000005d5f       0x53 c:/pspsdk/bin/../lib/gcc/psp/4.3.5/../../../../psp/lib\libc.a(lib_a-stdio.o)
 .debug_pubnames
                0x0000000000005db2       0x21 c:/pspsdk/bin/../lib/gcc/psp/4.3.5/../../../../psp/lib\libc.a(lib_a-strcasecmp.o)
 .debug_pubnames
                0x0000000000005dd3       0x1d c:/pspsdk/bin/../lib/gcc/psp/4.3.5/../../../../psp/lib\libc.a(lib_a-strcat.o)
 .debug_pubnames
                0x0000000000005df0       0x1d c:/pspsdk/bin/../lib/gcc/psp/4.3.5/../../../../psp/lib\libc.a(lib_a-strchr.o)
 .debug_pubnames
                0x0000000000005e0d       0x1d c:/pspsdk/bin/../lib/gcc/psp/4.3.5/../../../../psp/lib\libc.a(lib_a-strcmp.o)
 .debug_pubnames
                0x0000000000005e2a       0x1d c:/pspsdk/bin/../lib/gcc/psp/4.3.5/../../../../psp/lib\libc.a(lib_a-strcpy.o)
 .debug_pubnames
                0x0000000000005e47       0x1f c:/pspsdk/bin/../lib/gcc/psp/4.3.5/../../../../psp/lib\libc.a(lib_a-strerror.o)
 .debug_pubnames
                0x0000000000005e66       0x1d c:/pspsdk/bin/../lib/gcc/psp/4.3.5/../../../../psp/lib\libc.a(lib_a-strlen.o)
 .debug_pubnames
                0x0000000000005e83       0x1e c:/pspsdk/bin/../lib/gcc/psp/4.3.5/../../../../psp/lib\libc.a(lib_a-strncmp.o)
 .debug_pubnames
                0x0000000000005ea1       0x1e c:/pspsdk/bin/../lib/gcc/psp/4.3.5/../../../../psp/lib\libc.a(lib_a-strncpy.o)
 .debug_pubnames
                0x0000000000005ebf       0x1e c:/pspsdk/bin/../lib/gcc/psp/4.3.5/../../../../psp/lib\libc.a(lib_a-strrchr.o)
 .debug_pubnames
                0x0000000000005edd       0x36 c:/pspsdk/bin/../lib/gcc/psp/4.3.5/../../../../psp/lib\libc.a(lib_a-strtod.o)
 .debug_pubnames
                0x0000000000005f13       0x2b c:/pspsdk/bin/../lib/gcc/psp/4.3.5/../../../../psp/lib\libc.a(lib_a-strtol.o)
 .debug_pubnames
                0x0000000000005f3e       0x23 c:/pspsdk/bin/../lib/gcc/psp/4.3.5/../../../../psp/lib\libc.a(lib_a-svfprintf.o)
 .debug_pubnames
                0x0000000000005f61       0x24 c:/pspsdk/bin/../lib/gcc/psp/4.3.5/../../../../psp/lib\libc.a(lib_a-svfscanf.o)
 .debug_pubnames
                0x0000000000005f85       0x23 c:/pspsdk/bin/../lib/gcc/psp/4.3.5/../../../../psp/lib\libc.a(lib_a-sysgettod.o)
 .debug_pubnames
                0x0000000000005fa8       0x1c c:/pspsdk/bin/../lib/gcc/psp/4.3.5/../../../../psp/lib\libc.a(lib_a-syswrite.o)
 .debug_pubnames
                0x0000000000005fc4       0x1b c:/pspsdk/bin/../lib/gcc/psp/4.3.5/../../../../psp/lib\libc.a(lib_a-time.o)
 .debug_pubnames
                0x0000000000005fdf       0x30 c:/pspsdk/bin/../lib/gcc/psp/4.3.5/../../../../psp/lib\libc.a(lib_a-tzlock.o)
 .debug_pubnames
                0x000000000000600f       0x3a c:/pspsdk/bin/../lib/gcc/psp/4.3.5/../../../../psp/lib\libc.a(lib_a-tzvars.o)
 .debug_pubnames
                0x0000000000006049       0x25 c:/pspsdk/bin/../lib/gcc/psp/4.3.5/../../../../psp/lib\libc.a(lib_a-u_strerr.o)
 .debug_pubnames
                0x000000000000606e       0x39 c:/pspsdk/bin/../lib/gcc/psp/4.3.5/../../../../psp/lib\libc.a(lib_a-ungetc.o)
 .debug_pubnames
                0x00000000000060a7       0x40 c:/pspsdk/bin/../lib/gcc/psp/4.3.5/../../../../psp/lib\libc.a(lib_a-vfiprintf.o)
 .debug_pubnames
                0x00000000000060e7       0x31 c:/pspsdk/bin/../lib/gcc/psp/4.3.5/../../../../psp/lib\libc.a(lib_a-vsnprintf.o)
 .debug_pubnames
                0x0000000000006118       0x2c c:/pspsdk/bin/../lib/gcc/psp/4.3.5/../../../../psp/lib\libc.a(lib_a-wbuf.o)
 .debug_pubnames
                0x0000000000006144       0x1f c:/pspsdk/bin/../lib/gcc/psp/4.3.5/../../../../psp/lib\libc.a(lib_a-writer.o)
 .debug_pubnames
                0x0000000000006163       0x22 c:/pspsdk/bin/../lib/gcc/psp/4.3.5/../../../../psp/lib\libc.a(lib_a-wsetup.o)
 .debug_pubnames
                0x0000000000006185       0x1f c:/pspsdk/bin/../lib/gcc/psp/4.3.5/../../../../psp/lib\libc.a(vxprintf.o)
 .debug_pubnames
                0x00000000000061a4       0x1d c:/pspsdk/bin/../lib/gcc/psp/4.3.5/../../../../psp/lib\libc.a(__fout.o)
 .debug_pubnames
                0x00000000000061c1       0x30 c:/pspsdk/bin/../lib/gcc/psp/4.3.5/../../../../psp/lib\libc.a(_exit.o)
 .debug_pubnames
                0x00000000000061f1       0x1d c:/pspsdk/bin/../lib/gcc/psp/4.3.5/../../../../psp/lib\libc.a(_fstat.o)
 .debug_pubnames
                0x000000000000620e       0x1e c:/pspsdk/bin/../lib/gcc/psp/4.3.5/../../../../psp/lib\libc.a(_getpid.o)
 .debug_pubnames
                0x000000000000622c       0x1c c:/pspsdk/bin/../lib/gcc/psp/4.3.5/../../../../psp/lib\libc.a(_kill.o)
 .debug_pubnames
                0x0000000000006248       0x1c c:/pspsdk/bin/../lib/gcc/psp/4.3.5/../../../../psp/lib\libc.a(_open.o)
 .debug_pubnames
                0x0000000000006264       0x30 c:/pspsdk/bin/../lib/gcc/psp/4.3.5/../../../../psp/lib\libc.a(_sbrk.o)
 .debug_pubnames
                0x0000000000006294       0x1d c:/pspsdk/bin/../lib/gcc/psp/4.3.5/../../../../psp/lib\libc.a(_write.o)
 .debug_pubnames
                0x00000000000062b1       0xa8 c:/pspsdk/bin/../lib/gcc/psp/4.3.5/../../../../psp/lib\libc.a(fdman.o)
 .debug_pubnames
                0x0000000000006359       0x2b c:/pspsdk/bin/../lib/gcc/psp/4.3.5/../../../../psp/lib\libc.a(isatty.o)
 .debug_pubnames
                0x0000000000006384       0x2a c:/pspsdk/bin/../lib/gcc/psp/4.3.5/../../../../psp/lib\libc.a(lib_a-__atexit.o)
 .debug_pubnames
                0x00000000000063ae       0x27 c:/pspsdk/bin/../lib/gcc/psp/4.3.5/../../../../psp/lib\libc.a(lib_a-__call_atexit.o)
 .debug_pubnames
                0x00000000000063d5       0x1f c:/pspsdk/bin/../lib/gcc/psp/4.3.5/../../../../psp/lib\libc.a(lib_a-closer.o)
 .debug_pubnames
                0x00000000000063f4       0x1e c:/pspsdk/bin/../lib/gcc/psp/4.3.5/../../../../psp/lib\libc.a(lib_a-dtoa.o)
 .debug_pubnames
                0x0000000000006412       0x1e c:/pspsdk/bin/../lib/gcc/psp/4.3.5/../../../../psp/lib\libc.a(lib_a-environ.o)
 .debug_pubnames
                0x0000000000006430       0x32 c:/pspsdk/bin/../lib/gcc/psp/4.3.5/../../../../psp/lib\libc.a(lib_a-envlock.o)
 .debug_pubnames
                0x0000000000006462       0x1f c:/pspsdk/bin/../lib/gcc/psp/4.3.5/../../../../psp/lib\libc.a(lib_a-fcntlr.o)
 .debug_pubnames
                0x0000000000006481       0x2b c:/pspsdk/bin/../lib/gcc/psp/4.3.5/../../../../psp/lib\libc.a(lib_a-fputwc.o)
 .debug_pubnames
                0x00000000000064ac       0x3e c:/pspsdk/bin/../lib/gcc/psp/4.3.5/../../../../psp/lib\libc.a(lib_a-gdtoa-gethex.o)
 .debug_pubnames
                0x00000000000064ea       0x1f c:/pspsdk/bin/../lib/gcc/psp/4.3.5/../../../../psp/lib\libc.a(lib_a-gdtoa-hexnan.o)
 .debug_pubnames
                0x0000000000006509       0x26 c:/pspsdk/bin/../lib/gcc/psp/4.3.5/../../../../psp/lib\libc.a(lib_a-gettimeofdayr.o)
 .debug_pubnames
                0x000000000000652f       0x22 c:/pspsdk/bin/../lib/gcc/psp/4.3.5/../../../../psp/lib\libc.a(lib_a-gettzinfo.o)
 .debug_pubnames
                0x0000000000006551       0x1e c:/pspsdk/bin/../lib/gcc/psp/4.3.5/../../../../psp/lib\libc.a(lib_a-isdigit.o)
 .debug_pubnames
                0x000000000000656f       0x1f c:/pspsdk/bin/../lib/gcc/psp/4.3.5/../../../../psp/lib\libc.a(lib_a-iswspace.o)
 .debug_pubnames
                0x000000000000658e       0xe2 c:/pspsdk/bin/../lib/gcc/psp/4.3.5/../../../../psp/lib\libc.a(lib_a-locale.o)
 .debug_pubnames
                0x0000000000006670       0x1f c:/pspsdk/bin/../lib/gcc/psp/4.3.5/../../../../psp/lib\libc.a(lib_a-lseekr.o)
 .debug_pubnames
                0x000000000000668f       0x2d c:/pspsdk/bin/../lib/gcc/psp/4.3.5/../../../../psp/lib\libc.a(lib_a-mbrtowc.o)
 .debug_pubnames
                0x00000000000066bc       0x40 c:/pspsdk/bin/../lib/gcc/psp/4.3.5/../../../../psp/lib\libc.a(lib_a-mbtowc_r.o)
 .debug_pubnames
                0x00000000000066fc      0x13a c:/pspsdk/bin/../lib/gcc/psp/4.3.5/../../../../psp/lib\libc.a(lib_a-mprec.o)
 .debug_pubnames
                0x0000000000006836       0x1e c:/pspsdk/bin/../lib/gcc/psp/4.3.5/../../../../psp/lib\libc.a(lib_a-readr.o)
 .debug_pubnames
                0x0000000000006854       0x1d c:/pspsdk/bin/../lib/gcc/psp/4.3.5/../../../../psp/lib\libc.a(lib_a-sccl.o)
 .debug_pubnames
                0x0000000000006871       0x1b c:/pspsdk/bin/../lib/gcc/psp/4.3.5/../../../../psp/lib\libc.a(lib_a-sf_nan.o)
 .debug_pubnames
                0x000000000000688c       0x1d c:/pspsdk/bin/../lib/gcc/psp/4.3.5/../../../../psp/lib\libc.a(lib_a-strdup.o)
 .debug_pubnames
                0x00000000000068a9       0x20 c:/pspsdk/bin/../lib/gcc/psp/4.3.5/../../../../psp/lib\libc.a(lib_a-strdup_r.o)
 .debug_pubnames
                0x00000000000068c9       0x21 c:/pspsdk/bin/../lib/gcc/psp/4.3.5/../../../../psp/lib\libc.a(lib_a-strtoll_r.o)
 .debug_pubnames
                0x00000000000068ea       0x2d c:/pspsdk/bin/../lib/gcc/psp/4.3.5/../../../../psp/lib\libc.a(lib_a-strtoul.o)
 .debug_pubnames
                0x0000000000006917       0x22 c:/pspsdk/bin/../lib/gcc/psp/4.3.5/../../../../psp/lib\libc.a(lib_a-strtoull_r.o)
 .debug_pubnames
                0x0000000000006939       0x34 c:/pspsdk/bin/../lib/gcc/psp/4.3.5/../../../../psp/lib\libc.a(lib_a-svfiprintf.o)
 .debug_pubnames
                0x000000000000696d       0x53 c:/pspsdk/bin/../lib/gcc/psp/4.3.5/../../../../psp/lib\libc.a(lib_a-svfiscanf.o)
 .debug_pubnames
                0x00000000000069c0       0x1b c:/pspsdk/bin/../lib/gcc/psp/4.3.5/../../../../psp/lib\libc.a(lib_a-sysstat.o)
 .debug_pubnames
                0x00000000000069db       0x2d c:/pspsdk/bin/../lib/gcc/psp/4.3.5/../../../../psp/lib\libc.a(lib_a-wcrtomb.o)
 .debug_pubnames
                0x0000000000006a08       0x40 c:/pspsdk/bin/../lib/gcc/psp/4.3.5/../../../../psp/lib\libc.a(lib_a-wctomb_r.o)
 .debug_pubnames
                0x0000000000006a48       0xb5 c:/pspsdk/bin/../lib/gcc/psp/4.3.5/../../../../psp/lib\libc.a(pipe.o)
 .debug_pubnames
                0x0000000000006afd       0xa4 c:/pspsdk/bin/../lib/gcc/psp/4.3.5/../../../../psp/lib\libc.a(pspcwd.o)
 .debug_pubnames
                0x0000000000006ba1       0x26 c:/pspsdk/bin/../lib/gcc/psp/4.3.5/../../../../psp/lib\libc.a(__psp_set_errno.o)
 .debug_pubnames
                0x0000000000006bc7       0x1d c:/pspsdk/bin/../lib/gcc/psp/4.3.5/../../../../psp/lib\libc.a(_close.o)
 .debug_pubnames
                0x0000000000006be4       0x1d c:/pspsdk/bin/../lib/gcc/psp/4.3.5/../../../../psp/lib\libc.a(_fcntl.o)
 .debug_pubnames
                0x0000000000006c01       0x24 c:/pspsdk/bin/../lib/gcc/psp/4.3.5/../../../../psp/lib\libc.a(_gettimeofday.o)
 .debug_pubnames
                0x0000000000006c25       0x1d c:/pspsdk/bin/../lib/gcc/psp/4.3.5/../../../../psp/lib\libc.a(_lseek.o)
 .debug_pubnames
                0x0000000000006c42       0x1c c:/pspsdk/bin/../lib/gcc/psp/4.3.5/../../../../psp/lib\libc.a(_read.o)
 .debug_pubnames
                0x0000000000006c5e       0x1c c:/pspsdk/bin/../lib/gcc/psp/4.3.5/../../../../psp/lib\libc.a(chdir.o)
 .debug_pubnames
                0x0000000000006c7a       0x1e c:/pspsdk/bin/../lib/gcc/psp/4.3.5/../../../../psp/lib\libc.a(lib_a-statr.o)
 .debug_pubnames
                0x0000000000006c98       0x30 c:/pspsdk/bin/../lib/gcc/psp/4.3.5/../../../../psp/lib\libc.a(setsockopt.o)
 .debug_pubnames
                0x0000000000006cc8       0x1c c:/pspsdk/bin/../lib/gcc/psp/4.3.5/../../../../psp/lib\libc.a(_stat.o)
 .debug_pubnames
                0x0000000000006ce4       0x1d c:/pspsdk/bin/../lib/gcc/psp/4.3.5/../../../../psp/lib\libc.a(lib_a-mktime.o)
 .debug_pubnames
                0x0000000000006d01       0x1a c:/pspsdk/bin/../lib/gcc/psp/4.3.5/../../../../psp/lib\libc.a(lib_a-div.o)
 .debug_pubnames
                0x0000000000006d1b       0x23 c:/pspsdk/bin/../lib/gcc/psp/4.3.5\libgcc.a(_fixunsdfsi.o)
 .debug_pubnames
                0x0000000000006d3e       0x20 c:/pspsdk/bin/../lib/gcc/psp/4.3.5\libgcc.a(_udivdi3.o)
 .debug_pubnames
                0x0000000000006d5e       0x20 c:/pspsdk/bin/../lib/gcc/psp/4.3.5\libgcc.a(_umoddi3.o)
 .debug_pubnames
                0x0000000000006d7e       0x24 c:/pspsdk/bin/../lib/gcc/psp/4.3.5\libgcc.a(_sf_to_df.o)
 .debug_pubnames
                0x0000000000006da2       0x2c c:/pspsdk/bin/../lib/gcc/psp/4.3.5\libgcc.a(_addsub_df.o)
 .debug_pubnames
                0x0000000000006dce       0x1f c:/pspsdk/bin/../lib/gcc/psp/4.3.5\libgcc.a(_mul_df.o)
 .debug_pubnames
                0x0000000000006ded       0x1f c:/pspsdk/bin/../lib/gcc/psp/4.3.5\libgcc.a(_div_df.o)
 .debug_pubnames
                0x0000000000006e0c       0x1e c:/pspsdk/bin/../lib/gcc/psp/4.3.5\libgcc.a(_eq_df.o)
 .debug_pubnames
                0x0000000000006e2a       0x1e c:/pspsdk/bin/../lib/gcc/psp/4.3.5\libgcc.a(_ne_df.o)
 .debug_pubnames
                0x0000000000006e48       0x1e c:/pspsdk/bin/../lib/gcc/psp/4.3.5\libgcc.a(_gt_df.o)
 .debug_pubnames
                0x0000000000006e66       0x1e c:/pspsdk/bin/../lib/gcc/psp/4.3.5\libgcc.a(_ge_df.o)
 .debug_pubnames
                0x0000000000006e84       0x1e c:/pspsdk/bin/../lib/gcc/psp/4.3.5\libgcc.a(_lt_df.o)
 .debug_pubnames
                0x0000000000006ea2       0x1e c:/pspsdk/bin/../lib/gcc/psp/4.3.5\libgcc.a(_le_df.o)
 .debug_pubnames
                0x0000000000006ec0       0x22 c:/pspsdk/bin/../lib/gcc/psp/4.3.5\libgcc.a(_si_to_df.o)
 .debug_pubnames
                0x0000000000006ee2       0x20 c:/pspsdk/bin/../lib/gcc/psp/4.3.5\libgcc.a(_df_to_si.o)
 .debug_pubnames
                0x0000000000006f02       0x20 c:/pspsdk/bin/../lib/gcc/psp/4.3.5\libgcc.a(_make_df.o)
 .debug_pubnames
                0x0000000000006f22       0x23 c:/pspsdk/bin/../lib/gcc/psp/4.3.5\libgcc.a(_df_to_sf.o)
 .debug_pubnames
                0x0000000000006f45       0x22 c:/pspsdk/bin/../lib/gcc/psp/4.3.5\libgcc.a(_thenan_df.o)
 .debug_pubnames
                0x0000000000006f67       0x24 c:/pspsdk/bin/../lib/gcc/psp/4.3.5\libgcc.a(_usi_to_df.o)
 .debug_pubnames
                0x0000000000006f8b      0x1c7 c:/pspsdk/bin/../lib/gcc/psp/4.3.5\libgcc.a(unwind-dw2.o)
 .debug_pubnames
                0x0000000000007152      0x12c c:/pspsdk/bin/../lib/gcc/psp/4.3.5\libgcc.a(unwind-dw2-fde.o)
 .debug_pubnames
                0x000000000000727e       0x20 c:/pspsdk/bin/../lib/gcc/psp/4.3.5\libgcc.a(_ucmpdi2.o)
 .debug_pubnames
                0x000000000000729e       0x20 c:/pspsdk/bin/../lib/gcc/psp/4.3.5\libgcc.a(_clz.o)
 .debug_pubnames
                0x00000000000072be       0x21 c:/pspsdk/bin/../lib/gcc/psp/4.3.5\libgcc.a(_unpack_sf.o)
 .debug_pubnames
                0x00000000000072df       0x20 c:/pspsdk/bin/../lib/gcc/psp/4.3.5\libgcc.a(_make_sf.o)
 .debug_pubnames
                0x00000000000072ff       0x1f c:/pspsdk/bin/../lib/gcc/psp/4.3.5\libgcc.a(_pack_df.o)
 .debug_pubnames
                0x000000000000731e       0x21 c:/pspsdk/bin/../lib/gcc/psp/4.3.5\libgcc.a(_unpack_df.o)
 .debug_pubnames
                0x000000000000733f       0x26 c:/pspsdk/bin/../lib/gcc/psp/4.3.5\libgcc.a(_fpcmp_parts_df.o)
 .debug_pubnames
                0x0000000000007365       0x1f c:/pspsdk/bin/../lib/gcc/psp/4.3.5\libgcc.a(_pack_sf.o)

.debug_info     0x0000000000000000    0xa83ad
 *(.debug_info .gnu.linkonce.wi.*)
 .debug_info    0x0000000000000000      0x3f1 c:/pspsdk/bin/../lib/gcc/psp/4.3.5/../../../../psp/lib/crt0.o
 .debug_info    0x00000000000003f1     0x23df psp/sound.o
 .debug_info    0x00000000000027d0     0x2738 psp/gym/gym.o
 .debug_info    0x0000000000004f08      0x5bb psp/gym/gym_play.o
 .debug_info    0x00000000000054c3     0x22d5 psp/vgm/In_vgm.o
 .debug_info    0x0000000000007798      0xe93 c:/pspsdk/bin/../lib/gcc/psp/4.3.5/../../../../psp/lib\libosl.a(oslib.o)
 .debug_info    0x000000000000862b      0xba2 c:/pspsdk/bin/../lib/gcc/psp/4.3.5/../../../../psp/lib\libosl.a(drawing.o)
 .debug_info    0x00000000000091cd      0xb78 c:/pspsdk/bin/../lib/gcc/psp/4.3.5/../../../../psp/lib\libosl.a(image.o)
 .debug_info    0x0000000000009d45      0x336 c:/pspsdk/bin/../lib/gcc/psp/4.3.5/../../../../psp/lib\libosl.a(palette.o)
 .debug_info    0x000000000000a07b      0x495 c:/pspsdk/bin/../lib/gcc/psp/4.3.5/../../../../psp/lib\libosl.a(shape.o)
 .debug_info    0x000000000000a510      0xb71 c:/pspsdk/bin/../lib/gcc/psp/4.3.5/../../../../psp/lib\libosl.a(messagebox.o)
 .debug_info    0x000000000000b081      0x848 c:/pspsdk/bin/../lib/gcc/psp/4.3.5/../../../../psp/lib\libosl.a(keys.o)
 .debug_info    0x000000000000b8c9      0x266 c:/pspsdk/bin/../lib/gcc/psp/4.3.5/../../../../psp/lib\libosl.a(vfpu.o)
 .debug_info    0x000000000000bb2f     0x1775 c:/pspsdk/bin/../lib/gcc/psp/4.3.5/../../../../psp/lib\libosl.a(text.o)
 .debug_info    0x000000000000d2a4      0x362 c:/pspsdk/bin/../lib/gcc/psp/4.3.5/../../../../psp/lib\libosl.a(vram_mgr.o)
 .debug_info    0x000000000000d606       0x6c c:/pspsdk/bin/../lib/gcc/psp/4.3.5/../../../../psp/lib\libosl.a(stub.o)
 .debug_info    0x000000000000d672     0x16f1 c:/pspsdk/bin/../lib/gcc/psp/4.3.5/../../../../psp/lib\libosl.a(audio.o)
 .debug_info    0x000000000000ed63      0xbae c:/pspsdk/bin/../lib/gcc/psp/4.3.5/../../../../psp/lib\libosl.a(bgm.o)
 .debug_info    0x000000000000f911      0x247 c:/pspsdk/bin/../lib/gcc/psp/4.3.5/../../../../psp/lib\libosl.a(usb.o)
 .debug_info    0x000000000000fb58      0xb3a c:/pspsdk/bin/../lib/gcc/psp/4.3.5/../../../../psp/lib\libosl.a(VirtualFile.o)
 .debug_info    0x0000000000010692      0x692 c:/pspsdk/bin/../lib/gcc/psp/4.3.5/../../../../psp/lib\libosl.a(vfsFile.o)
 .debug_info    0x0000000000010d24      0x441 c:/pspsdk/bin/../lib/gcc/psp/4.3.5/../../../../psp/lib\libosl.a(oslDrawImage.o)
 .debug_info    0x0000000000011165      0x401 c:/pspsdk/bin/../lib/gcc/psp/4.3.5/../../../../psp/lib\libosl.a(oslDrawImageSimple.o)
 .debug_info    0x0000000000011566      0x3a6 c:/pspsdk/bin/../lib/gcc/psp/4.3.5/../../../../psp/lib\libosl.a(oslLockImage.o)
 .debug_info    0x000000000001190c      0x710 c:/pspsdk/bin/../lib/gcc/psp/4.3.5/../../../../psp/lib\libosl.a(oslSwizzleImage.o)
 .debug_info    0x000000000001201c      0x36d c:/pspsdk/bin/../lib/gcc/psp/4.3.5/../../../../psp/lib\libosl.a(oslSetDrawBuffer.o)
 .debug_info    0x0000000000012389     0x1c84 c:/pspsdk/bin/../lib/gcc/psp/4.3.5/../../../../psp/lib\libosl.a(oslWriteImageFilePNG.o)
 .debug_info    0x000000000001400d      0x3df c:/pspsdk/bin/../lib/gcc/psp/4.3.5/../../../../psp/lib\libosl.a(oslLoadImageFile.o)
 .debug_info    0x00000000000143ec     0x1ffd c:/pspsdk/bin/../lib/gcc/psp/4.3.5/../../../../psp/lib\libosl.a(intraFont.o)
 .debug_info    0x00000000000163e9      0xe05 c:/pspsdk/bin/../lib/gcc/psp/4.3.5/../../../../psp/lib\libosl.a(libccc.o)
 .debug_info    0x00000000000171ee      0x28b c:/pspsdk/bin/../lib/gcc/psp/4.3.5/../../../../psp/lib\libosl.a(oslHandleLoadNoFailError.o)
 .debug_info    0x0000000000017479     0x1e28 c:/pspsdk/bin/../lib/gcc/psp/4.3.5/../../../../psp/lib\libosl.a(oslLoadImageFilePNG.o)
 .debug_info    0x00000000000192a1     0x1d5d c:/pspsdk/bin/../lib/gcc/psp/4.3.5/../../../../psp/lib\libosl.a(oslLoadImageFileJPG.o)
 .debug_info    0x000000000001affe      0xca9 c:/pspsdk/bin/../lib/gcc/psp/4.3.5/../../../../psp/lib\libosl.a(oslLoadImageFileGIF.o)
 .debug_info    0x000000000001bca7      0x596 c:/pspsdk/bin/../lib/gcc/psp/4.3.5/../../../../psp/lib\libosl.a(oslConvertImageTo.o)
 .debug_info    0x000000000001c23d      0x3c7 c:/pspsdk/bin/../lib/gcc/psp/4.3.5/../../../../psp/lib\libosl.a(oslSetImagePixel.o)
 .debug_info    0x000000000001c604      0x3be c:/pspsdk/bin/../lib/gcc/psp/4.3.5/../../../../psp/lib\libosl.a(oslGetImagePixel.o)
 .debug_info    0x000000000001c9c2     0x16b4 c:/pspsdk/bin/../lib/gcc/psp/4.3.5/../../../../psp/lib\libosl.a(dgif_lib.o)
 .debug_info    0x000000000001e076       0xb5 c:/pspsdk/bin/../lib/gcc/psp/4.3.5/../../../../psp/lib\libosl.a(gif_err.o)
 .debug_info    0x000000000001e12b      0x715 c:/pspsdk/bin/../lib/gcc/psp/4.3.5/../../../../psp/lib\libosl.a(gifalloc.o)
 .debug_info    0x000000000001e840     0x1a3b c:/pspsdk/bin/../lib/gcc/psp/4.3.5/../../../../psp/lib\libjpeg.a(jdapimin.o)
 .debug_info    0x000000000002027b     0x1969 c:/pspsdk/bin/../lib/gcc/psp/4.3.5/../../../../psp/lib\libjpeg.a(jdapistd.o)
 .debug_info    0x0000000000021be4     0x1ea0 c:/pspsdk/bin/../lib/gcc/psp/4.3.5/../../../../psp/lib\libjpeg.a(jdatasrc.o)
 .debug_info    0x0000000000023a84     0x1aa7 c:/pspsdk/bin/../lib/gcc/psp/4.3.5/../../../../psp/lib\libjpeg.a(jdmaster.o)
 .debug_info    0x000000000002552b     0x1b52 c:/pspsdk/bin/../lib/gcc/psp/4.3.5/../../../../psp/lib\libjpeg.a(jdinput.o)
 .debug_info    0x000000000002707d     0x2717 c:/pspsdk/bin/../lib/gcc/psp/4.3.5/../../../../psp/lib\libjpeg.a(jdmarker.o)
 .debug_info    0x0000000000029794     0x283f c:/pspsdk/bin/../lib/gcc/psp/4.3.5/../../../../psp/lib\libjpeg.a(jdhuff.o)
 .debug_info    0x000000000002bfd3     0x1db2 c:/pspsdk/bin/../lib/gcc/psp/4.3.5/../../../../psp/lib\libjpeg.a(jdmainct.o)
 .debug_info    0x000000000002dd85     0x1d70 c:/pspsdk/bin/../lib/gcc/psp/4.3.5/../../../../psp/lib\libjpeg.a(jdcoefct.o)
 .debug_info    0x000000000002faf5     0x1ac7 c:/pspsdk/bin/../lib/gcc/psp/4.3.5/../../../../psp/lib\libjpeg.a(jdpostct.o)
 .debug_info    0x00000000000315bc     0x19cf c:/pspsdk/bin/../lib/gcc/psp/4.3.5/../../../../psp/lib\libjpeg.a(jddctmgr.o)
 .debug_info    0x0000000000032f8b     0x1684 c:/pspsdk/bin/../lib/gcc/psp/4.3.5/../../../../psp/lib\libjpeg.a(jidctfst.o)
 .debug_info    0x000000000003460f     0x166b c:/pspsdk/bin/../lib/gcc/psp/4.3.5/../../../../psp/lib\libjpeg.a(jidctflt.o)
 .debug_info    0x0000000000035c7a     0x474c c:/pspsdk/bin/../lib/gcc/psp/4.3.5/../../../../psp/lib\libjpeg.a(jidctint.o)
 .debug_info    0x000000000003a3c6     0x1d39 c:/pspsdk/bin/../lib/gcc/psp/4.3.5/../../../../psp/lib\libjpeg.a(jdsample.o)
 .debug_info    0x000000000003c0ff     0x1d19 c:/pspsdk/bin/../lib/gcc/psp/4.3.5/../../../../psp/lib\libjpeg.a(jdcolor.o)
 .debug_info    0x000000000003de18     0x25f9 c:/pspsdk/bin/../lib/gcc/psp/4.3.5/../../../../psp/lib\libjpeg.a(jquant1.o)
 .debug_info    0x0000000000040411     0x2aa7 c:/pspsdk/bin/../lib/gcc/psp/4.3.5/../../../../psp/lib\libjpeg.a(jquant2.o)
 .debug_info    0x0000000000042eb8     0x1a4d c:/pspsdk/bin/../lib/gcc/psp/4.3.5/../../../../psp/lib\libjpeg.a(jdmerge.o)
 .debug_info    0x0000000000044905     0x1541 c:/pspsdk/bin/../lib/gcc/psp/4.3.5/../../../../psp/lib\libjpeg.a(jcomapi.o)
 .debug_info    0x0000000000045e46      0x3ab c:/pspsdk/bin/../lib/gcc/psp/4.3.5/../../../../psp/lib\libjpeg.a(jutils.o)
 .debug_info    0x00000000000461f1     0x135b c:/pspsdk/bin/../lib/gcc/psp/4.3.5/../../../../psp/lib\libjpeg.a(jerror.o)
 .debug_info    0x000000000004754c     0x1f62 c:/pspsdk/bin/../lib/gcc/psp/4.3.5/../../../../psp/lib\libjpeg.a(jmemmgr.o)
 .debug_info    0x00000000000494ae     0x143d c:/pspsdk/bin/../lib/gcc/psp/4.3.5/../../../../psp/lib\libjpeg.a(jmemnobs.o)
 .debug_info    0x000000000004a8eb     0x1f09 c:/pspsdk/bin/../lib/gcc/psp/4.3.5/../../../../psp/lib\libjpeg.a(jdarith.o)
 .debug_info    0x000000000004c7f4       0xaf c:/pspsdk/bin/../lib/gcc/psp/4.3.5/../../../../psp/lib\libjpeg.a(jaricom.o)
 .debug_info    0x000000000004c8a3      0x256 c:/pspsdk/psp/sdk/lib\libpspsdk.a(loadmodule.o)
 .debug_info    0x000000000004caf9       0xbc c:/pspsdk/psp/sdk/lib\libpspgu.a(sceGuAlphaFunc.o)
 .debug_info    0x000000000004cbb5       0x98 c:/pspsdk/psp/sdk/lib\libpspgu.a(sceGuAmbientColor.o)
 .debug_info    0x000000000004cc4d       0xd3 c:/pspsdk/psp/sdk/lib\libpspgu.a(sceGuBlendFunc.o)
 .debug_info    0x000000000004cd20      0x3b4 c:/pspsdk/psp/sdk/lib\libpspgu.a(sceGuClear.o)
 .debug_info    0x000000000004d0d4      0x22b c:/pspsdk/psp/sdk/lib\libpspgu.a(sceGuClearColor.o)
 .debug_info    0x000000000004d2ff       0xb2 c:/pspsdk/psp/sdk/lib\libpspgu.a(sceGuClutLoad.o)
 .debug_info    0x000000000004d3b1       0xcd c:/pspsdk/psp/sdk/lib\libpspgu.a(sceGuClutMode.o)
 .debug_info    0x000000000004d47e       0xb6 c:/pspsdk/psp/sdk/lib\libpspgu.a(sceGuColorFunc.o)
 .debug_info    0x000000000004d534      0x13e c:/pspsdk/psp/sdk/lib\libpspgu.a(sceGuDepthBuffer.o)
 .debug_info    0x000000000004d672       0x96 c:/pspsdk/psp/sdk/lib\libpspgu.a(sceGuDepthFunc.o)
 .debug_info    0x000000000004d708      0x269 c:/pspsdk/psp/sdk/lib\libpspgu.a(sceGuDepthRange.o)
 .debug_info    0x000000000004d971      0x2f6 c:/pspsdk/psp/sdk/lib\libpspgu.a(sceGuDisable.o)
 .debug_info    0x000000000004dc67      0x1f3 c:/pspsdk/psp/sdk/lib\libpspgu.a(sceGuDispBuffer.o)
 .debug_info    0x000000000004de5a      0x174 c:/pspsdk/psp/sdk/lib\libpspgu.a(sceGuDisplay.o)
 .debug_info    0x000000000004dfce       0xdf c:/pspsdk/psp/sdk/lib\libpspgu.a(sceGuDrawArray.o)
 .debug_info    0x000000000004e0ad      0x14d c:/pspsdk/psp/sdk/lib\libpspgu.a(sceGuDrawBuffer.o)
 .debug_info    0x000000000004e1fa      0x267 c:/pspsdk/psp/sdk/lib\libpspgu.a(sceGuEnable.o)
 .debug_info    0x000000000004e461      0x279 c:/pspsdk/psp/sdk/lib\libpspgu.a(sceGuFinish.o)
 .debug_info    0x000000000004e6da       0x96 c:/pspsdk/psp/sdk/lib\libpspgu.a(sceGuFrontFace.o)
 .debug_info    0x000000000004e770      0x163 c:/pspsdk/psp/sdk/lib\libpspgu.a(sceGuGetMemory.o)
 .debug_info    0x000000000004e8d3      0x269 c:/pspsdk/psp/sdk/lib\libpspgu.a(sceGuInit.o)
 .debug_info    0x000000000004eb3c       0xa3 c:/pspsdk/psp/sdk/lib\libpspgu.a(sceGuOffset.o)
 .debug_info    0x000000000004ebdf      0x25c c:/pspsdk/psp/sdk/lib\libpspgu.a(sceGuScissor.o)
 .debug_info    0x000000000004ee3b       0x96 c:/pspsdk/psp/sdk/lib\libpspgu.a(sceGuShadeModel.o)
 .debug_info    0x000000000004eed1      0x4ba c:/pspsdk/psp/sdk/lib\libpspgu.a(sceGuStart.o)
 .debug_info    0x000000000004f38b       0xb4 c:/pspsdk/psp/sdk/lib\libpspgu.a(sceGuStencilFunc.o)
 .debug_info    0x000000000004f43f       0xb4 c:/pspsdk/psp/sdk/lib\libpspgu.a(sceGuStencilOp.o)
 .debug_info    0x000000000004f4f3      0x2ab c:/pspsdk/psp/sdk/lib\libpspgu.a(sceGuSwapBuffers.o)
 .debug_info    0x000000000004f79e       0xd8 c:/pspsdk/psp/sdk/lib\libpspgu.a(sceGuSync.o)
 .debug_info    0x000000000004f876      0x17f c:/pspsdk/psp/sdk/lib\libpspgu.a(sceGuTerm.o)
 .debug_info    0x000000000004f9f5       0x96 c:/pspsdk/psp/sdk/lib\libpspgu.a(sceGuTexEnvColor.o)
 .debug_info    0x000000000004fa8b       0xa5 c:/pspsdk/psp/sdk/lib\libpspgu.a(sceGuTexFilter.o)
 .debug_info    0x000000000004fb30      0x240 c:/pspsdk/psp/sdk/lib\libpspgu.a(sceGuTexFunc.o)
 .debug_info    0x000000000004fd70      0x1d4 c:/pspsdk/psp/sdk/lib\libpspgu.a(sceGuTexImage.o)
 .debug_info    0x000000000004ff44      0x25b c:/pspsdk/psp/sdk/lib\libpspgu.a(sceGuTexMode.o)
 .debug_info    0x000000000005019f       0xa3 c:/pspsdk/psp/sdk/lib\libpspgu.a(sceGuTexOffset.o)
 .debug_info    0x0000000000050242       0xa3 c:/pspsdk/psp/sdk/lib\libpspgu.a(sceGuTexScale.o)
 .debug_info    0x00000000000502e5       0xa1 c:/pspsdk/psp/sdk/lib\libpspgu.a(sceGuTexWrap.o)
 .debug_info    0x0000000000050386       0xc3 c:/pspsdk/psp/sdk/lib\libpspgu.a(sceGuViewport.o)
 .debug_info    0x0000000000050449      0x223 c:/pspsdk/psp/sdk/lib\libpspgu.a(sendCommand.o)
 .debug_info    0x000000000005066c      0x195 c:/pspsdk/psp/sdk/lib\libpspgu.a(callbackFin.o)
 .debug_info    0x0000000000050801      0x1a9 c:/pspsdk/psp/sdk/lib\libpspgu.a(callbackSig.o)
 .debug_info    0x00000000000509aa      0x55f c:/pspsdk/psp/sdk/lib\libpspgu.a(guInternal.o)
 .debug_info    0x0000000000050f09      0x3eb c:/pspsdk/psp/sdk/lib\libpspgu.a(resetValues.o)
 .debug_info    0x00000000000512f4       0x95 c:/pspsdk/psp/sdk/lib\libpspgu.a(sceGuColorMaterial.o)
 .debug_info    0x0000000000051389       0xa3 c:/pspsdk/psp/sdk/lib\libpspgu.a(sceGuPatchDivide.o)
 .debug_info    0x000000000005142c      0x13d c:/pspsdk/psp/sdk/lib\libpspgu.a(sceGuSetDither.o)
 .debug_info    0x0000000000051569       0x96 c:/pspsdk/psp/sdk/lib\libpspgu.a(sceGuSpecular.o)
 .debug_info    0x00000000000515ff       0x86 c:/pspsdk/psp/sdk/lib\libpspgu.a(sceGuTexFlush.o)
 .debug_info    0x0000000000051685      0x443 c:/pspsdk/bin/../lib/gcc/psp/4.3.5/../../../../psp/lib\libstdc++.a(del_op.o)
 .debug_info    0x0000000000051ac8       0x88 c:/pspsdk/bin/../lib/gcc/psp/4.3.5/../../../../psp/lib\libstdc++.a(del_opv.o)
 .debug_info    0x0000000000051b50      0x51b c:/pspsdk/bin/../lib/gcc/psp/4.3.5/../../../../psp/lib\libstdc++.a(new_op.o)
 .debug_info    0x000000000005206b       0x98 c:/pspsdk/bin/../lib/gcc/psp/4.3.5/../../../../psp/lib\libstdc++.a(new_opv.o)
 .debug_info    0x0000000000052103      0xafb c:/pspsdk/bin/../lib/gcc/psp/4.3.5/../../../../psp/lib\libstdc++.a(eh_alloc.o)
 .debug_info    0x0000000000052bfe      0x6b2 c:/pspsdk/bin/../lib/gcc/psp/4.3.5/../../../../psp/lib\libstdc++.a(eh_globals.o)
 .debug_info    0x00000000000532b0     0x1405 c:/pspsdk/bin/../lib/gcc/psp/4.3.5/../../../../psp/lib\libstdc++.a(eh_personality.o)
 .debug_info    0x00000000000546b5      0x611 c:/pspsdk/bin/../lib/gcc/psp/4.3.5/../../../../psp/lib\libstdc++.a(eh_terminate.o)
 .debug_info    0x0000000000054cc6       0xd3 c:/pspsdk/bin/../lib/gcc/psp/4.3.5/../../../../psp/lib\libstdc++.a(eh_term_handler.o)
 .debug_info    0x0000000000054d99      0x491 c:/pspsdk/bin/../lib/gcc/psp/4.3.5/../../../../psp/lib\libstdc++.a(eh_throw.o)
 .debug_info    0x000000000005522a       0xd3 c:/pspsdk/bin/../lib/gcc/psp/4.3.5/../../../../psp/lib\libstdc++.a(eh_unex_handler.o)
 .debug_info    0x00000000000552fd      0x254 c:/pspsdk/bin/../lib/gcc/psp/4.3.5/../../../../psp/lib\libstdc++.a(new_handler.o)
 .debug_info    0x0000000000055551      0x658 c:/pspsdk/bin/../lib/gcc/psp/4.3.5/../../../../psp/lib\libstdc++.a(si_class_type_info.o)
 .debug_info    0x0000000000055ba9      0x44b c:/pspsdk/bin/../lib/gcc/psp/4.3.5/../../../../psp/lib\libstdc++.a(tinfo.o)
 .debug_info    0x0000000000055ff4     0x11a4 c:/pspsdk/bin/../lib/gcc/psp/4.3.5/../../../../psp/lib\libstdc++.a(vterminate.o)
 .debug_info    0x0000000000057198      0x748 c:/pspsdk/bin/../lib/gcc/psp/4.3.5/../../../../psp/lib\libstdc++.a(class_type_info.o)
 .debug_info    0x00000000000578e0      0x6b6 c:/pspsdk/bin/../lib/gcc/psp/4.3.5/../../../../psp/lib\libstdc++.a(eh_call.o)
 .debug_info    0x0000000000057f96      0x85a c:/pspsdk/bin/../lib/gcc/psp/4.3.5/../../../../psp/lib\libstdc++.a(eh_catch.o)
 .debug_info    0x00000000000587f0      0x53e c:/pspsdk/bin/../lib/gcc/psp/4.3.5/../../../../psp/lib\libstdc++.a(eh_exception.o)
 .debug_info    0x0000000000058d2e      0x2f1 c:/pspsdk/bin/../lib/gcc/psp/4.3.5/../../../../psp/lib\libstdc++.a(eh_type.o)
 .debug_info    0x000000000005901f      0x100 c:/pspsdk/bin/../lib/gcc/psp/4.3.5/../../../../psp/lib\libstdc++.a(pure.o)
 .debug_info    0x000000000005911f       0xcc c:/pspsdk/bin/../lib/gcc/psp/4.3.5/../../../../psp/lib\libm.a(lib_a-s_ceil.o)
 .debug_info    0x00000000000591eb       0xcc c:/pspsdk/bin/../lib/gcc/psp/4.3.5/../../../../psp/lib\libm.a(lib_a-s_floor.o)
 .debug_info    0x00000000000592b7       0xb4 c:/pspsdk/bin/../lib/gcc/psp/4.3.5/../../../../psp/lib\libm.a(lib_a-s_log.o)
 .debug_info    0x000000000005936b       0xb4 c:/pspsdk/bin/../lib/gcc/psp/4.3.5/../../../../psp/lib\libm.a(lib_a-s_log10.o)
 .debug_info    0x000000000005941f      0x1c2 c:/pspsdk/bin/../lib/gcc/psp/4.3.5/../../../../psp/lib\libm.a(lib_a-s_logarithm.o)
 .debug_info    0x00000000000595e1      0x18f c:/pspsdk/bin/../lib/gcc/psp/4.3.5/../../../../psp/lib\libm.a(lib_a-s_mathcnst.o)
 .debug_info    0x0000000000059770      0x201 c:/pspsdk/bin/../lib/gcc/psp/4.3.5/../../../../psp/lib\libm.a(lib_a-s_modf.o)
 .debug_info    0x0000000000059971      0x201 c:/pspsdk/bin/../lib/gcc/psp/4.3.5/../../../../psp/lib\libm.a(lib_a-s_pow.o)
 .debug_info    0x0000000000059b72       0xb4 c:/pspsdk/bin/../lib/gcc/psp/4.3.5/../../../../psp/lib\libm.a(lib_a-s_sin.o)
 .debug_info    0x0000000000059c26      0x1c1 c:/pspsdk/bin/../lib/gcc/psp/4.3.5/../../../../psp/lib\libm.a(lib_a-s_sine.o)
 .debug_info    0x0000000000059de7      0x141 c:/pspsdk/bin/../lib/gcc/psp/4.3.5/../../../../psp/lib\libm.a(lib_a-s_sqrt.o)
 .debug_info    0x0000000000059f28      0x1c1 c:/pspsdk/bin/../lib/gcc/psp/4.3.5/../../../../psp/lib\libm.a(lib_a-s_exp.o)
 .debug_info    0x000000000005a0e9       0xb6 c:/pspsdk/bin/../lib/gcc/psp/4.3.5/../../../../psp/lib\libm.a(lib_a-s_fabs.o)
 .debug_info    0x000000000005a19f       0xde c:/pspsdk/bin/../lib/gcc/psp/4.3.5/../../../../psp/lib\libm.a(lib_a-s_fpclassify.o)
 .debug_info    0x000000000005a27d      0x176 c:/pspsdk/bin/../lib/gcc/psp/4.3.5/../../../../psp/lib\libm.a(lib_a-s_frexp.o)
 .debug_info    0x000000000005a3f3      0x137 c:/pspsdk/bin/../lib/gcc/psp/4.3.5/../../../../psp/lib\libm.a(lib_a-s_ispos.o)
 .debug_info    0x000000000005a52a      0x197 c:/pspsdk/bin/../lib/gcc/psp/4.3.5/../../../../psp/lib\libm.a(lib_a-s_ldexp.o)
 .debug_info    0x000000000005a6c1      0x14f c:/pspsdk/bin/../lib/gcc/psp/4.3.5/../../../../psp/lib\libm.a(lib_a-s_numtest.o)
 .debug_info    0x000000000005a810      0x9b7 c:/pspsdk/bin/../lib/gcc/psp/4.3.5/../../../../psp/lib\libc.a(fprintf.o)
 .debug_info    0x000000000005b1c7       0x8f c:/pspsdk/bin/../lib/gcc/psp/4.3.5/../../../../psp/lib\libc.a(lib_a-abort.o)
 .debug_info    0x000000000005b256       0xc7 c:/pspsdk/bin/../lib/gcc/psp/4.3.5/../../../../psp/lib\libc.a(lib_a-atexit.o)
 .debug_info    0x000000000005b31d       0xb5 c:/pspsdk/bin/../lib/gcc/psp/4.3.5/../../../../psp/lib\libc.a(lib_a-atof.o)
 .debug_info    0x000000000005b3d2      0x991 c:/pspsdk/bin/../lib/gcc/psp/4.3.5/../../../../psp/lib\libc.a(lib_a-atoi.o)
 .debug_info    0x000000000005bd63      0x981 c:/pspsdk/bin/../lib/gcc/psp/4.3.5/../../../../psp/lib\libc.a(lib_a-calloc.o)
 .debug_info    0x000000000005c6e4      0xa48 c:/pspsdk/bin/../lib/gcc/psp/4.3.5/../../../../psp/lib\libc.a(lib_a-callocr.o)
 .debug_info    0x000000000005d12c       0x75 c:/pspsdk/bin/../lib/gcc/psp/4.3.5/../../../../psp/lib\libc.a(lib_a-ctype_.o)
 .debug_info    0x000000000005d1a1      0x95b c:/pspsdk/bin/../lib/gcc/psp/4.3.5/../../../../psp/lib\libc.a(lib_a-errno.o)
 .debug_info    0x000000000005dafc      0x96c c:/pspsdk/bin/../lib/gcc/psp/4.3.5/../../../../psp/lib\libc.a(lib_a-exit.o)
 .debug_info    0x000000000005e468      0x9c5 c:/pspsdk/bin/../lib/gcc/psp/4.3.5/../../../../psp/lib\libc.a(lib_a-fclose.o)
 .debug_info    0x000000000005ee2d      0xa20 c:/pspsdk/bin/../lib/gcc/psp/4.3.5/../../../../psp/lib\libc.a(lib_a-fdopen.o)
 .debug_info    0x000000000005f84d      0xa2b c:/pspsdk/bin/../lib/gcc/psp/4.3.5/../../../../psp/lib\libc.a(lib_a-fflush.o)
 .debug_info    0x0000000000060278      0x9d8 c:/pspsdk/bin/../lib/gcc/psp/4.3.5/../../../../psp/lib\libc.a(lib_a-fgetc.o)
 .debug_info    0x0000000000060c50      0xa31 c:/pspsdk/bin/../lib/gcc/psp/4.3.5/../../../../psp/lib\libc.a(lib_a-fgets.o)
 .debug_info    0x0000000000061681      0xc1e c:/pspsdk/bin/../lib/gcc/psp/4.3.5/../../../../psp/lib\libc.a(lib_a-findfp.o)
 .debug_info    0x000000000006229f      0x9a4 c:/pspsdk/bin/../lib/gcc/psp/4.3.5/../../../../psp/lib\libc.a(lib_a-flags.o)
 .debug_info    0x0000000000062c43      0xc7c c:/pspsdk/bin/../lib/gcc/psp/4.3.5/../../../../psp/lib\libc.a(lib_a-fmemopen.o)
 .debug_info    0x00000000000638bf      0xa11 c:/pspsdk/bin/../lib/gcc/psp/4.3.5/../../../../psp/lib\libc.a(lib_a-fopen.o)
 .debug_info    0x00000000000642d0      0x9ee c:/pspsdk/bin/../lib/gcc/psp/4.3.5/../../../../psp/lib\libc.a(lib_a-fputc.o)
 .debug_info    0x0000000000064cbe      0xa71 c:/pspsdk/bin/../lib/gcc/psp/4.3.5/../../../../psp/lib\libc.a(lib_a-fputs.o)
 .debug_info    0x000000000006572f      0xaa0 c:/pspsdk/bin/../lib/gcc/psp/4.3.5/../../../../psp/lib\libc.a(lib_a-fread.o)
 .debug_info    0x00000000000661cf      0xbfa c:/pspsdk/bin/../lib/gcc/psp/4.3.5/../../../../psp/lib\libc.a(lib_a-freer.o)
 .debug_info    0x0000000000066dc9      0xc09 c:/pspsdk/bin/../lib/gcc/psp/4.3.5/../../../../psp/lib\libc.a(lib_a-fseek.o)
 .debug_info    0x00000000000679d2      0xb29 c:/pspsdk/bin/../lib/gcc/psp/4.3.5/../../../../psp/lib\libc.a(lib_a-fstatr.o)
 .debug_info    0x00000000000684fb      0x9c7 c:/pspsdk/bin/../lib/gcc/psp/4.3.5/../../../../psp/lib\libc.a(lib_a-ftell.o)
 .debug_info    0x0000000000068ec2      0xab1 c:/pspsdk/bin/../lib/gcc/psp/4.3.5/../../../../psp/lib\libc.a(lib_a-fvwrite.o)
 .debug_info    0x0000000000069973      0xb1e c:/pspsdk/bin/../lib/gcc/psp/4.3.5/../../../../psp/lib\libc.a(lib_a-fwalk.o)
 .debug_info    0x000000000006a491      0xab3 c:/pspsdk/bin/../lib/gcc/psp/4.3.5/../../../../psp/lib\libc.a(lib_a-fwrite.o)
 .debug_info    0x000000000006af44      0x9bd c:/pspsdk/bin/../lib/gcc/psp/4.3.5/../../../../psp/lib\libc.a(lib_a-getenv.o)
 .debug_info    0x000000000006b901      0xa21 c:/pspsdk/bin/../lib/gcc/psp/4.3.5/../../../../psp/lib\libc.a(lib_a-getenv_r.o)
 .debug_info    0x000000000006c322      0xa0f c:/pspsdk/bin/../lib/gcc/psp/4.3.5/../../../../psp/lib\libc.a(lib_a-gmtime.o)
 .debug_info    0x000000000006cd31      0x15a c:/pspsdk/bin/../lib/gcc/psp/4.3.5/../../../../psp/lib\libc.a(lib_a-gmtime_r.o)
 .debug_info    0x000000000006ce8b      0x966 c:/pspsdk/bin/../lib/gcc/psp/4.3.5/../../../../psp/lib\libc.a(lib_a-impure.o)
 .debug_info    0x000000000006d7f1      0xa04 c:/pspsdk/bin/../lib/gcc/psp/4.3.5/../../../../psp/lib\libc.a(lib_a-iprintf.o)
 .debug_info    0x000000000006e1f5      0xa0f c:/pspsdk/bin/../lib/gcc/psp/4.3.5/../../../../psp/lib\libc.a(lib_a-lcltime.o)
 .debug_info    0x000000000006ec04      0x15a c:/pspsdk/bin/../lib/gcc/psp/4.3.5/../../../../psp/lib\libc.a(lib_a-lcltime_r.o)
 .debug_info    0x000000000006ed5e      0xb4b c:/pspsdk/bin/../lib/gcc/psp/4.3.5/../../../../psp/lib\libc.a(lib_a-makebuf.o)
 .debug_info    0x000000000006f8a9      0x983 c:/pspsdk/bin/../lib/gcc/psp/4.3.5/../../../../psp/lib\libc.a(lib_a-malign.o)
 .debug_info    0x000000000007022c      0xa5f c:/pspsdk/bin/../lib/gcc/psp/4.3.5/../../../../psp/lib\libc.a(lib_a-malignr.o)
 .debug_info    0x0000000000070c8b      0x99f c:/pspsdk/bin/../lib/gcc/psp/4.3.5/../../../../psp/lib\libc.a(lib_a-malloc.o)
 .debug_info    0x000000000007162a      0xcfd c:/pspsdk/bin/../lib/gcc/psp/4.3.5/../../../../psp/lib\libc.a(lib_a-mallocr.o)
 .debug_info    0x0000000000072327      0x125 c:/pspsdk/bin/../lib/gcc/psp/4.3.5/../../../../psp/lib\libc.a(lib_a-memchr.o)
 .debug_info    0x000000000007244c      0x115 c:/pspsdk/bin/../lib/gcc/psp/4.3.5/../../../../psp/lib\libc.a(lib_a-memcmp.o)
 .debug_info    0x0000000000072561      0x19a c:/pspsdk/bin/../lib/gcc/psp/4.3.5/../../../../psp/lib\libc.a(lib_a-memcpy.o)
 .debug_info    0x00000000000726fb      0x144 c:/pspsdk/bin/../lib/gcc/psp/4.3.5/../../../../psp/lib\libc.a(lib_a-memmove.o)
 .debug_info    0x000000000007283f      0x13f c:/pspsdk/bin/../lib/gcc/psp/4.3.5/../../../../psp/lib\libc.a(lib_a-memset.o)
 .debug_info    0x000000000007297e      0x40f c:/pspsdk/bin/../lib/gcc/psp/4.3.5/../../../../psp/lib\libc.a(lib_a-mktm_r.o)
 .debug_info    0x0000000000072d8d      0x988 c:/pspsdk/bin/../lib/gcc/psp/4.3.5/../../../../psp/lib\libc.a(lib_a-mlock.o)
 .debug_info    0x0000000000073715      0x9a4 c:/pspsdk/bin/../lib/gcc/psp/4.3.5/../../../../psp/lib\libc.a(lib_a-openr.o)
 .debug_info    0x00000000000740b9      0x9f2 c:/pspsdk/bin/../lib/gcc/psp/4.3.5/../../../../psp/lib\libc.a(lib_a-putc.o)
 .debug_info    0x0000000000074aab      0x980 c:/pspsdk/bin/../lib/gcc/psp/4.3.5/../../../../psp/lib\libc.a(lib_a-rand.o)
 .debug_info    0x000000000007542b      0x982 c:/pspsdk/bin/../lib/gcc/psp/4.3.5/../../../../psp/lib\libc.a(lib_a-realloc.o)
 .debug_info    0x0000000000075dad      0xc0c c:/pspsdk/bin/../lib/gcc/psp/4.3.5/../../../../psp/lib\libc.a(lib_a-reallocr.o)
 .debug_info    0x00000000000769b9      0xa5b c:/pspsdk/bin/../lib/gcc/psp/4.3.5/../../../../psp/lib\libc.a(lib_a-reent.o)
 .debug_info    0x0000000000077414      0x9bc c:/pspsdk/bin/../lib/gcc/psp/4.3.5/../../../../psp/lib\libc.a(lib_a-refill.o)
 .debug_info    0x0000000000077dd0      0x9b8 c:/pspsdk/bin/../lib/gcc/psp/4.3.5/../../../../psp/lib\libc.a(lib_a-rget.o)
 .debug_info    0x0000000000078788      0x991 c:/pspsdk/bin/../lib/gcc/psp/4.3.5/../../../../psp/lib\libc.a(lib_a-sbrkr.o)
 .debug_info    0x0000000000079119       0xc9 c:/pspsdk/bin/../lib/gcc/psp/4.3.5/../../../../psp/lib\libc.a(lib_a-setjmp.o)
 .debug_info    0x00000000000791e2      0xb32 c:/pspsdk/bin/../lib/gcc/psp/4.3.5/../../../../psp/lib\libc.a(lib_a-signal.o)
 .debug_info    0x0000000000079d14      0x9cf c:/pspsdk/bin/../lib/gcc/psp/4.3.5/../../../../psp/lib\libc.a(lib_a-signalr.o)
 .debug_info    0x000000000007a6e3      0xa7e c:/pspsdk/bin/../lib/gcc/psp/4.3.5/../../../../psp/lib\libc.a(lib_a-snprintf.o)
 .debug_info    0x000000000007b161      0xa49 c:/pspsdk/bin/../lib/gcc/psp/4.3.5/../../../../psp/lib\libc.a(lib_a-sprintf.o)
 .debug_info    0x000000000007bbaa      0xa49 c:/pspsdk/bin/../lib/gcc/psp/4.3.5/../../../../psp/lib\libc.a(lib_a-sscanf.o)
 .debug_info    0x000000000007c5f3      0xb39 c:/pspsdk/bin/../lib/gcc/psp/4.3.5/../../../../psp/lib\libc.a(lib_a-stdio.o)
 .debug_info    0x000000000007d12c      0x14b c:/pspsdk/bin/../lib/gcc/psp/4.3.5/../../../../psp/lib\libc.a(lib_a-strcasecmp.o)
 .debug_info    0x000000000007d277       0xed c:/pspsdk/bin/../lib/gcc/psp/4.3.5/../../../../psp/lib\libc.a(lib_a-strcat.o)
 .debug_info    0x000000000007d364      0x114 c:/pspsdk/bin/../lib/gcc/psp/4.3.5/../../../../psp/lib\libc.a(lib_a-strchr.o)
 .debug_info    0x000000000007d478      0x127 c:/pspsdk/bin/../lib/gcc/psp/4.3.5/../../../../psp/lib\libc.a(lib_a-strcmp.o)
 .debug_info    0x000000000007d59f      0x112 c:/pspsdk/bin/../lib/gcc/psp/4.3.5/../../../../psp/lib\libc.a(lib_a-strcpy.o)
 .debug_info    0x000000000007d6b1       0xbb c:/pspsdk/bin/../lib/gcc/psp/4.3.5/../../../../psp/lib\libc.a(lib_a-strerror.o)
 .debug_info    0x000000000007d76c       0xc2 c:/pspsdk/bin/../lib/gcc/psp/4.3.5/../../../../psp/lib\libc.a(lib_a-strlen.o)
 .debug_info    0x000000000007d82e       0xf1 c:/pspsdk/bin/../lib/gcc/psp/4.3.5/../../../../psp/lib\libc.a(lib_a-strncmp.o)
 .debug_info    0x000000000007d91f      0x19e c:/pspsdk/bin/../lib/gcc/psp/4.3.5/../../../../psp/lib\libc.a(lib_a-strncpy.o)
 .debug_info    0x000000000007dabd       0xce c:/pspsdk/bin/../lib/gcc/psp/4.3.5/../../../../psp/lib\libc.a(lib_a-strrchr.o)
 .debug_info    0x000000000007db8b     0x1017 c:/pspsdk/bin/../lib/gcc/psp/4.3.5/../../../../psp/lib\libc.a(lib_a-strtod.o)
 .debug_info    0x000000000007eba2      0xa51 c:/pspsdk/bin/../lib/gcc/psp/4.3.5/../../../../psp/lib\libc.a(lib_a-strtol.o)
 .debug_info    0x000000000007f5f3      0xf5a c:/pspsdk/bin/../lib/gcc/psp/4.3.5/../../../../psp/lib\libc.a(lib_a-svfprintf.o)
 .debug_info    0x000000000008054d      0xdc7 c:/pspsdk/bin/../lib/gcc/psp/4.3.5/../../../../psp/lib\libc.a(lib_a-svfscanf.o)
 .debug_info    0x0000000000081314      0x9be c:/pspsdk/bin/../lib/gcc/psp/4.3.5/../../../../psp/lib\libc.a(lib_a-sysgettod.o)
 .debug_info    0x0000000000081cd2      0x998 c:/pspsdk/bin/../lib/gcc/psp/4.3.5/../../../../psp/lib\libc.a(lib_a-syswrite.o)
 .debug_info    0x000000000008266a      0x9bd c:/pspsdk/bin/../lib/gcc/psp/4.3.5/../../../../psp/lib\libc.a(lib_a-time.o)
 .debug_info    0x0000000000083027       0xb0 c:/pspsdk/bin/../lib/gcc/psp/4.3.5/../../../../psp/lib\libc.a(lib_a-tzlock.o)
 .debug_info    0x00000000000830d7       0xc2 c:/pspsdk/bin/../lib/gcc/psp/4.3.5/../../../../psp/lib\libc.a(lib_a-tzvars.o)
 .debug_info    0x0000000000083199       0x67 c:/pspsdk/bin/../lib/gcc/psp/4.3.5/../../../../psp/lib\libc.a(lib_a-u_strerr.o)
 .debug_info    0x0000000000083200      0xa29 c:/pspsdk/bin/../lib/gcc/psp/4.3.5/../../../../psp/lib\libc.a(lib_a-ungetc.o)
 .debug_info    0x0000000000083c29      0xe7f c:/pspsdk/bin/../lib/gcc/psp/4.3.5/../../../../psp/lib\libc.a(lib_a-vfiprintf.o)
 .debug_info    0x0000000000084aa8      0xa4f c:/pspsdk/bin/../lib/gcc/psp/4.3.5/../../../../psp/lib\libc.a(lib_a-vsnprintf.o)
 .debug_info    0x00000000000854f7      0x9df c:/pspsdk/bin/../lib/gcc/psp/4.3.5/../../../../psp/lib\libc.a(lib_a-wbuf.o)
 .debug_info    0x0000000000085ed6      0x9c0 c:/pspsdk/bin/../lib/gcc/psp/4.3.5/../../../../psp/lib\libc.a(lib_a-writer.o)
 .debug_info    0x0000000000086896      0x98a c:/pspsdk/bin/../lib/gcc/psp/4.3.5/../../../../psp/lib\libc.a(lib_a-wsetup.o)
 .debug_info    0x0000000000087220      0x664 c:/pspsdk/bin/../lib/gcc/psp/4.3.5/../../../../psp/lib\libc.a(vxprintf.o)
 .debug_info    0x0000000000087884      0x975 c:/pspsdk/bin/../lib/gcc/psp/4.3.5/../../../../psp/lib\libc.a(__fout.o)
 .debug_info    0x00000000000881f9      0x105 c:/pspsdk/bin/../lib/gcc/psp/4.3.5/../../../../psp/lib\libc.a(_exit.o)
 .debug_info    0x00000000000882fe      0x369 c:/pspsdk/bin/../lib/gcc/psp/4.3.5/../../../../psp/lib\libc.a(_fstat.o)
 .debug_info    0x0000000000088667       0xa6 c:/pspsdk/bin/../lib/gcc/psp/4.3.5/../../../../psp/lib\libc.a(_getpid.o)
 .debug_info    0x000000000008870d       0xbc c:/pspsdk/bin/../lib/gcc/psp/4.3.5/../../../../psp/lib\libc.a(_kill.o)
 .debug_info    0x00000000000887c9      0x1f3 c:/pspsdk/bin/../lib/gcc/psp/4.3.5/../../../../psp/lib\libc.a(_open.o)
 .debug_info    0x00000000000889bc      0x1ac c:/pspsdk/bin/../lib/gcc/psp/4.3.5/../../../../psp/lib\libc.a(_sbrk.o)
 .debug_info    0x0000000000088b68      0x1b1 c:/pspsdk/bin/../lib/gcc/psp/4.3.5/../../../../psp/lib\libc.a(_write.o)
 .debug_info    0x0000000000088d19      0x255 c:/pspsdk/bin/../lib/gcc/psp/4.3.5/../../../../psp/lib\libc.a(fdman.o)
 .debug_info    0x0000000000088f6e       0xc2 c:/pspsdk/bin/../lib/gcc/psp/4.3.5/../../../../psp/lib\libc.a(interrupt.o)
 .debug_info    0x0000000000089030      0xa81 c:/pspsdk/bin/../lib/gcc/psp/4.3.5/../../../../psp/lib\libc.a(isatty.o)
 .debug_info    0x0000000000089ab1      0x9d7 c:/pspsdk/bin/../lib/gcc/psp/4.3.5/../../../../psp/lib\libc.a(lib_a-__atexit.o)
 .debug_info    0x000000000008a488      0x9ec c:/pspsdk/bin/../lib/gcc/psp/4.3.5/../../../../psp/lib\libc.a(lib_a-__call_atexit.o)
 .debug_info    0x000000000008ae74      0x985 c:/pspsdk/bin/../lib/gcc/psp/4.3.5/../../../../psp/lib\libc.a(lib_a-closer.o)
 .debug_info    0x000000000008b7f9      0xd9d c:/pspsdk/bin/../lib/gcc/psp/4.3.5/../../../../psp/lib\libc.a(lib_a-dtoa.o)
 .debug_info    0x000000000008c596       0x6f c:/pspsdk/bin/../lib/gcc/psp/4.3.5/../../../../psp/lib\libc.a(lib_a-environ.o)
 .debug_info    0x000000000008c605      0x98a c:/pspsdk/bin/../lib/gcc/psp/4.3.5/../../../../psp/lib\libc.a(lib_a-envlock.o)
 .debug_info    0x000000000008cf8f      0x9a3 c:/pspsdk/bin/../lib/gcc/psp/4.3.5/../../../../psp/lib\libc.a(lib_a-fcntlr.o)
 .debug_info    0x000000000008d932      0xaa2 c:/pspsdk/bin/../lib/gcc/psp/4.3.5/../../../../psp/lib\libc.a(lib_a-fputwc.o)
 .debug_info    0x000000000008e3d4      0xe4f c:/pspsdk/bin/../lib/gcc/psp/4.3.5/../../../../psp/lib\libc.a(lib_a-gdtoa-gethex.o)
 .debug_info    0x000000000008f223      0x2f3 c:/pspsdk/bin/../lib/gcc/psp/4.3.5/../../../../psp/lib\libc.a(lib_a-gdtoa-hexnan.o)
 .debug_info    0x000000000008f516      0x9db c:/pspsdk/bin/../lib/gcc/psp/4.3.5/../../../../psp/lib\libc.a(lib_a-gettimeofdayr.o)
 .debug_info    0x000000000008fef1      0x176 c:/pspsdk/bin/../lib/gcc/psp/4.3.5/../../../../psp/lib\libc.a(lib_a-gettzinfo.o)
 .debug_info    0x0000000000090067       0x77 c:/pspsdk/bin/../lib/gcc/psp/4.3.5/../../../../psp/lib\libc.a(lib_a-isdigit.o)
 .debug_info    0x00000000000900de       0xc5 c:/pspsdk/bin/../lib/gcc/psp/4.3.5/../../../../psp/lib\libc.a(lib_a-iswspace.o)
 .debug_info    0x00000000000901a3      0xc80 c:/pspsdk/bin/../lib/gcc/psp/4.3.5/../../../../psp/lib\libc.a(lib_a-locale.o)
 .debug_info    0x0000000000090e23      0x9ae c:/pspsdk/bin/../lib/gcc/psp/4.3.5/../../../../psp/lib\libc.a(lib_a-lseekr.o)
 .debug_info    0x00000000000917d1      0xa83 c:/pspsdk/bin/../lib/gcc/psp/4.3.5/../../../../psp/lib\libc.a(lib_a-mbrtowc.o)
 .debug_info    0x0000000000092254      0xa85 c:/pspsdk/bin/../lib/gcc/psp/4.3.5/../../../../psp/lib\libc.a(lib_a-mbtowc_r.o)
 .debug_info    0x0000000000092cd9     0x1574 c:/pspsdk/bin/../lib/gcc/psp/4.3.5/../../../../psp/lib\libc.a(lib_a-mprec.o)
 .debug_info    0x000000000009424d      0x9b9 c:/pspsdk/bin/../lib/gcc/psp/4.3.5/../../../../psp/lib\libc.a(lib_a-readr.o)
 .debug_info    0x0000000000094c06       0xf9 c:/pspsdk/bin/../lib/gcc/psp/4.3.5/../../../../psp/lib\libc.a(lib_a-sccl.o)
 .debug_info    0x0000000000094cff       0xc8 c:/pspsdk/bin/../lib/gcc/psp/4.3.5/../../../../psp/lib\libc.a(lib_a-sf_nan.o)
 .debug_info    0x0000000000094dc7      0x969 c:/pspsdk/bin/../lib/gcc/psp/4.3.5/../../../../psp/lib\libc.a(lib_a-strdup.o)
 .debug_info    0x0000000000095730      0x991 c:/pspsdk/bin/../lib/gcc/psp/4.3.5/../../../../psp/lib\libc.a(lib_a-strdup_r.o)
 .debug_info    0x00000000000960c1      0xa02 c:/pspsdk/bin/../lib/gcc/psp/4.3.5/../../../../psp/lib\libc.a(lib_a-strtoll_r.o)
 .debug_info    0x0000000000096ac3      0xa4d c:/pspsdk/bin/../lib/gcc/psp/4.3.5/../../../../psp/lib\libc.a(lib_a-strtoul.o)
 .debug_info    0x0000000000097510      0x9fa c:/pspsdk/bin/../lib/gcc/psp/4.3.5/../../../../psp/lib\libc.a(lib_a-strtoull_r.o)
 .debug_info    0x0000000000097f0a      0xd65 c:/pspsdk/bin/../lib/gcc/psp/4.3.5/../../../../psp/lib\libc.a(lib_a-svfiprintf.o)
 .debug_info    0x0000000000098c6f      0xdf8 c:/pspsdk/bin/../lib/gcc/psp/4.3.5/../../../../psp/lib\libc.a(lib_a-svfiscanf.o)
 .debug_info    0x0000000000099a67      0xb0d c:/pspsdk/bin/../lib/gcc/psp/4.3.5/../../../../psp/lib\libc.a(lib_a-sysstat.o)
 .debug_info    0x000000000009a574      0xa88 c:/pspsdk/bin/../lib/gcc/psp/4.3.5/../../../../psp/lib\libc.a(lib_a-wcrtomb.o)
 .debug_info    0x000000000009affc      0xa47 c:/pspsdk/bin/../lib/gcc/psp/4.3.5/../../../../psp/lib\libc.a(lib_a-wctomb_r.o)
 .debug_info    0x000000000009ba43      0xc85 c:/pspsdk/bin/../lib/gcc/psp/4.3.5/../../../../psp/lib\libc.a(pipe.o)
 .debug_info    0x000000000009c6c8      0x40d c:/pspsdk/bin/../lib/gcc/psp/4.3.5/../../../../psp/lib\libc.a(pspcwd.o)
 .debug_info    0x000000000009cad5       0xaa c:/pspsdk/bin/../lib/gcc/psp/4.3.5/../../../../psp/lib\libc.a(__psp_set_errno.o)
 .debug_info    0x000000000009cb7f      0x18c c:/pspsdk/bin/../lib/gcc/psp/4.3.5/../../../../psp/lib\libc.a(_close.o)
 .debug_info    0x000000000009cd0b      0x20a c:/pspsdk/bin/../lib/gcc/psp/4.3.5/../../../../psp/lib\libc.a(_fcntl.o)
 .debug_info    0x000000000009cf15      0x17c c:/pspsdk/bin/../lib/gcc/psp/4.3.5/../../../../psp/lib\libc.a(_gettimeofday.o)
 .debug_info    0x000000000009d091      0x1b5 c:/pspsdk/bin/../lib/gcc/psp/4.3.5/../../../../psp/lib\libc.a(_lseek.o)
 .debug_info    0x000000000009d246      0x1ac c:/pspsdk/bin/../lib/gcc/psp/4.3.5/../../../../psp/lib\libc.a(_read.o)
 .debug_info    0x000000000009d3f2      0x100 c:/pspsdk/bin/../lib/gcc/psp/4.3.5/../../../../psp/lib\libc.a(chdir.o)
 .debug_info    0x000000000009d4f2      0xb2a c:/pspsdk/bin/../lib/gcc/psp/4.3.5/../../../../psp/lib\libc.a(lib_a-statr.o)
 .debug_info    0x000000000009e01c      0x25a c:/pspsdk/bin/../lib/gcc/psp/4.3.5/../../../../psp/lib\libc.a(setsockopt.o)
 .debug_info    0x000000000009e276      0x58f c:/pspsdk/bin/../lib/gcc/psp/4.3.5/../../../../psp/lib\libc.a(_stat.o)
 .debug_info    0x000000000009e805      0x37d c:/pspsdk/bin/../lib/gcc/psp/4.3.5/../../../../psp/lib\libc.a(lib_a-mktime.o)
 .debug_info    0x000000000009eb82       0xea c:/pspsdk/bin/../lib/gcc/psp/4.3.5/../../../../psp/lib\libc.a(lib_a-div.o)
 .debug_info    0x000000000009ec6c       0xd5 c:/pspsdk/bin/../lib/gcc/psp/4.3.5\libgcc.a(_fixunsdfsi.o)
 .debug_info    0x000000000009ed41      0x64d c:/pspsdk/bin/../lib/gcc/psp/4.3.5\libgcc.a(_udivdi3.o)
 .debug_info    0x000000000009f38e      0x67a c:/pspsdk/bin/../lib/gcc/psp/4.3.5\libgcc.a(_umoddi3.o)
 .debug_info    0x000000000009fa08      0x245 c:/pspsdk/bin/../lib/gcc/psp/4.3.5\libgcc.a(_sf_to_df.o)
 .debug_info    0x000000000009fc4d      0x495 c:/pspsdk/bin/../lib/gcc/psp/4.3.5\libgcc.a(_addsub_df.o)
 .debug_info    0x00000000000a00e2      0x4b4 c:/pspsdk/bin/../lib/gcc/psp/4.3.5\libgcc.a(_mul_df.o)
 .debug_info    0x00000000000a0596      0x3d3 c:/pspsdk/bin/../lib/gcc/psp/4.3.5\libgcc.a(_div_df.o)
 .debug_info    0x00000000000a0969      0x29e c:/pspsdk/bin/../lib/gcc/psp/4.3.5\libgcc.a(_eq_df.o)
 .debug_info    0x00000000000a0c07      0x29e c:/pspsdk/bin/../lib/gcc/psp/4.3.5\libgcc.a(_ne_df.o)
 .debug_info    0x00000000000a0ea5      0x29e c:/pspsdk/bin/../lib/gcc/psp/4.3.5\libgcc.a(_gt_df.o)
 .debug_info    0x00000000000a1143      0x29e c:/pspsdk/bin/../lib/gcc/psp/4.3.5\libgcc.a(_ge_df.o)
 .debug_info    0x00000000000a13e1      0x29e c:/pspsdk/bin/../lib/gcc/psp/4.3.5\libgcc.a(_lt_df.o)
 .debug_info    0x00000000000a167f      0x29e c:/pspsdk/bin/../lib/gcc/psp/4.3.5\libgcc.a(_le_df.o)
 .debug_info    0x00000000000a191d      0x218 c:/pspsdk/bin/../lib/gcc/psp/4.3.5\libgcc.a(_si_to_df.o)
 .debug_info    0x00000000000a1b35      0x2cd c:/pspsdk/bin/../lib/gcc/psp/4.3.5\libgcc.a(_df_to_si.o)
 .debug_info    0x00000000000a1e02      0x1d7 c:/pspsdk/bin/../lib/gcc/psp/4.3.5\libgcc.a(_make_df.o)
 .debug_info    0x00000000000a1fd9      0x261 c:/pspsdk/bin/../lib/gcc/psp/4.3.5\libgcc.a(_df_to_sf.o)
 .debug_info    0x00000000000a223a      0x160 c:/pspsdk/bin/../lib/gcc/psp/4.3.5\libgcc.a(_thenan_df.o)
 .debug_info    0x00000000000a239a      0x213 c:/pspsdk/bin/../lib/gcc/psp/4.3.5\libgcc.a(_usi_to_df.o)
 .debug_info    0x00000000000a25ad     0x32bd c:/pspsdk/bin/../lib/gcc/psp/4.3.5\libgcc.a(unwind-dw2.o)
 .debug_info    0x00000000000a586a     0x1a6f c:/pspsdk/bin/../lib/gcc/psp/4.3.5\libgcc.a(unwind-dw2-fde.o)
 .debug_info    0x00000000000a72d9      0x162 c:/pspsdk/bin/../lib/gcc/psp/4.3.5\libgcc.a(_ucmpdi2.o)
 .debug_info    0x00000000000a743b       0xc5 c:/pspsdk/bin/../lib/gcc/psp/4.3.5\libgcc.a(_clz.o)
 .debug_info    0x00000000000a7500      0x25e c:/pspsdk/bin/../lib/gcc/psp/4.3.5\libgcc.a(_unpack_sf.o)
 .debug_info    0x00000000000a775e      0x1d7 c:/pspsdk/bin/../lib/gcc/psp/4.3.5\libgcc.a(_make_sf.o)
 .debug_info    0x00000000000a7935      0x2fc c:/pspsdk/bin/../lib/gcc/psp/4.3.5\libgcc.a(_pack_df.o)
 .debug_info    0x00000000000a7c31      0x26c c:/pspsdk/bin/../lib/gcc/psp/4.3.5\libgcc.a(_unpack_df.o)
 .debug_info    0x00000000000a7e9d      0x21d c:/pspsdk/bin/../lib/gcc/psp/4.3.5\libgcc.a(_fpcmp_parts_df.o)
 .debug_info    0x00000000000a80ba      0x2f3 c:/pspsdk/bin/../lib/gcc/psp/4.3.5\libgcc.a(_pack_sf.o)

.debug_abbrev   0x0000000000000000    0x1e979
 *(.debug_abbrev)
 .debug_abbrev  0x0000000000000000      0x15c c:/pspsdk/bin/../lib/gcc/psp/4.3.5/../../../../psp/lib/crt0.o
 .debug_abbrev  0x000000000000015c      0x5cf psp/sound.o
 .debug_abbrev  0x000000000000072b      0x639 psp/gym/gym.o
 .debug_abbrev  0x0000000000000d64      0x215 psp/gym/gym_play.o
 .debug_abbrev  0x0000000000000f79      0x451 psp/vgm/In_vgm.o
 .debug_abbrev  0x00000000000013ca      0x3a8 c:/pspsdk/bin/../lib/gcc/psp/4.3.5/../../../../psp/lib\libosl.a(oslib.o)
 .debug_abbrev  0x0000000000001772      0x2e0 c:/pspsdk/bin/../lib/gcc/psp/4.3.5/../../../../psp/lib\libosl.a(drawing.o)
 .debug_abbrev  0x0000000000001a52      0x313 c:/pspsdk/bin/../lib/gcc/psp/4.3.5/../../../../psp/lib\libosl.a(image.o)
 .debug_abbrev  0x0000000000001d65      0x18e c:/pspsdk/bin/../lib/gcc/psp/4.3.5/../../../../psp/lib\libosl.a(palette.o)
 .debug_abbrev  0x0000000000001ef3      0x186 c:/pspsdk/bin/../lib/gcc/psp/4.3.5/../../../../psp/lib\libosl.a(shape.o)
 .debug_abbrev  0x0000000000002079      0x20f c:/pspsdk/bin/../lib/gcc/psp/4.3.5/../../../../psp/lib\libosl.a(messagebox.o)
 .debug_abbrev  0x0000000000002288      0x221 c:/pspsdk/bin/../lib/gcc/psp/4.3.5/../../../../psp/lib\libosl.a(keys.o)
 .debug_abbrev  0x00000000000024a9      0x126 c:/pspsdk/bin/../lib/gcc/psp/4.3.5/../../../../psp/lib\libosl.a(vfpu.o)
 .debug_abbrev  0x00000000000025cf      0x35d c:/pspsdk/bin/../lib/gcc/psp/4.3.5/../../../../psp/lib\libosl.a(text.o)
 .debug_abbrev  0x000000000000292c      0x17d c:/pspsdk/bin/../lib/gcc/psp/4.3.5/../../../../psp/lib\libosl.a(vram_mgr.o)
 .debug_abbrev  0x0000000000002aa9       0x14 c:/pspsdk/bin/../lib/gcc/psp/4.3.5/../../../../psp/lib\libosl.a(stub.o)
 .debug_abbrev  0x0000000000002abd      0x487 c:/pspsdk/bin/../lib/gcc/psp/4.3.5/../../../../psp/lib\libosl.a(audio.o)
 .debug_abbrev  0x0000000000002f44      0x2a8 c:/pspsdk/bin/../lib/gcc/psp/4.3.5/../../../../psp/lib\libosl.a(bgm.o)
 .debug_abbrev  0x00000000000031ec      0x13c c:/pspsdk/bin/../lib/gcc/psp/4.3.5/../../../../psp/lib\libosl.a(usb.o)
 .debug_abbrev  0x0000000000003328      0x32b c:/pspsdk/bin/../lib/gcc/psp/4.3.5/../../../../psp/lib\libosl.a(VirtualFile.o)
 .debug_abbrev  0x0000000000003653      0x1a5 c:/pspsdk/bin/../lib/gcc/psp/4.3.5/../../../../psp/lib\libosl.a(vfsFile.o)
 .debug_abbrev  0x00000000000037f8      0x10c c:/pspsdk/bin/../lib/gcc/psp/4.3.5/../../../../psp/lib\libosl.a(oslDrawImage.o)
 .debug_abbrev  0x0000000000003904      0x122 c:/pspsdk/bin/../lib/gcc/psp/4.3.5/../../../../psp/lib\libosl.a(oslDrawImageSimple.o)
 .debug_abbrev  0x0000000000003a26      0x108 c:/pspsdk/bin/../lib/gcc/psp/4.3.5/../../../../psp/lib\libosl.a(oslLockImage.o)
 .debug_abbrev  0x0000000000003b2e      0x213 c:/pspsdk/bin/../lib/gcc/psp/4.3.5/../../../../psp/lib\libosl.a(oslSwizzleImage.o)
 .debug_abbrev  0x0000000000003d41       0xee c:/pspsdk/bin/../lib/gcc/psp/4.3.5/../../../../psp/lib\libosl.a(oslSetDrawBuffer.o)
 .debug_abbrev  0x0000000000003e2f      0x218 c:/pspsdk/bin/../lib/gcc/psp/4.3.5/../../../../psp/lib\libosl.a(oslWriteImageFilePNG.o)
 .debug_abbrev  0x0000000000004047      0x134 c:/pspsdk/bin/../lib/gcc/psp/4.3.5/../../../../psp/lib\libosl.a(oslLoadImageFile.o)
 .debug_abbrev  0x000000000000417b      0x3f4 c:/pspsdk/bin/../lib/gcc/psp/4.3.5/../../../../psp/lib\libosl.a(intraFont.o)
 .debug_abbrev  0x000000000000456f      0x2fe c:/pspsdk/bin/../lib/gcc/psp/4.3.5/../../../../psp/lib\libosl.a(libccc.o)
 .debug_abbrev  0x000000000000486d      0x110 c:/pspsdk/bin/../lib/gcc/psp/4.3.5/../../../../psp/lib\libosl.a(oslHandleLoadNoFailError.o)
 .debug_abbrev  0x000000000000497d      0x287 c:/pspsdk/bin/../lib/gcc/psp/4.3.5/../../../../psp/lib\libosl.a(oslLoadImageFilePNG.o)
 .debug_abbrev  0x0000000000004c04      0x260 c:/pspsdk/bin/../lib/gcc/psp/4.3.5/../../../../psp/lib\libosl.a(oslLoadImageFileJPG.o)
 .debug_abbrev  0x0000000000004e64      0x253 c:/pspsdk/bin/../lib/gcc/psp/4.3.5/../../../../psp/lib\libosl.a(oslLoadImageFileGIF.o)
 .debug_abbrev  0x00000000000050b7      0x1cc c:/pspsdk/bin/../lib/gcc/psp/4.3.5/../../../../psp/lib\libosl.a(oslConvertImageTo.o)
 .debug_abbrev  0x0000000000005283      0x124 c:/pspsdk/bin/../lib/gcc/psp/4.3.5/../../../../psp/lib\libosl.a(oslSetImagePixel.o)
 .debug_abbrev  0x00000000000053a7      0x117 c:/pspsdk/bin/../lib/gcc/psp/4.3.5/../../../../psp/lib\libosl.a(oslGetImagePixel.o)
 .debug_abbrev  0x00000000000054be      0x325 c:/pspsdk/bin/../lib/gcc/psp/4.3.5/../../../../psp/lib\libosl.a(dgif_lib.o)
 .debug_abbrev  0x00000000000057e3       0x6f c:/pspsdk/bin/../lib/gcc/psp/4.3.5/../../../../psp/lib\libosl.a(gif_err.o)
 .debug_abbrev  0x0000000000005852      0x270 c:/pspsdk/bin/../lib/gcc/psp/4.3.5/../../../../psp/lib\libosl.a(gifalloc.o)
 .debug_abbrev  0x0000000000005ac2      0x264 c:/pspsdk/bin/../lib/gcc/psp/4.3.5/../../../../psp/lib\libjpeg.a(jdapimin.o)
 .debug_abbrev  0x0000000000005d26      0x1c2 c:/pspsdk/bin/../lib/gcc/psp/4.3.5/../../../../psp/lib\libjpeg.a(jdapistd.o)
 .debug_abbrev  0x0000000000005ee8      0x25a c:/pspsdk/bin/../lib/gcc/psp/4.3.5/../../../../psp/lib\libjpeg.a(jdatasrc.o)
 .debug_abbrev  0x0000000000006142      0x2e0 c:/pspsdk/bin/../lib/gcc/psp/4.3.5/../../../../psp/lib\libjpeg.a(jdmaster.o)
 .debug_abbrev  0x0000000000006422      0x2f1 c:/pspsdk/bin/../lib/gcc/psp/4.3.5/../../../../psp/lib\libjpeg.a(jdinput.o)
 .debug_abbrev  0x0000000000006713      0x38e c:/pspsdk/bin/../lib/gcc/psp/4.3.5/../../../../psp/lib\libjpeg.a(jdmarker.o)
 .debug_abbrev  0x0000000000006aa1      0x25f c:/pspsdk/bin/../lib/gcc/psp/4.3.5/../../../../psp/lib\libjpeg.a(jdhuff.o)
 .debug_abbrev  0x0000000000006d00      0x286 c:/pspsdk/bin/../lib/gcc/psp/4.3.5/../../../../psp/lib\libjpeg.a(jdmainct.o)
 .debug_abbrev  0x0000000000006f86      0x33c c:/pspsdk/bin/../lib/gcc/psp/4.3.5/../../../../psp/lib\libjpeg.a(jdcoefct.o)
 .debug_abbrev  0x00000000000072c2      0x1b7 c:/pspsdk/bin/../lib/gcc/psp/4.3.5/../../../../psp/lib\libjpeg.a(jdpostct.o)
 .debug_abbrev  0x0000000000007479      0x216 c:/pspsdk/bin/../lib/gcc/psp/4.3.5/../../../../psp/lib\libjpeg.a(jddctmgr.o)
 .debug_abbrev  0x000000000000768f      0x1c0 c:/pspsdk/bin/../lib/gcc/psp/4.3.5/../../../../psp/lib\libjpeg.a(jidctfst.o)
 .debug_abbrev  0x000000000000784f      0x1be c:/pspsdk/bin/../lib/gcc/psp/4.3.5/../../../../psp/lib\libjpeg.a(jidctflt.o)
 .debug_abbrev  0x0000000000007a0d      0x262 c:/pspsdk/bin/../lib/gcc/psp/4.3.5/../../../../psp/lib\libjpeg.a(jidctint.o)
 .debug_abbrev  0x0000000000007c6f      0x24c c:/pspsdk/bin/../lib/gcc/psp/4.3.5/../../../../psp/lib\libjpeg.a(jdsample.o)
 .debug_abbrev  0x0000000000007ebb      0x268 c:/pspsdk/bin/../lib/gcc/psp/4.3.5/../../../../psp/lib\libjpeg.a(jdcolor.o)
 .debug_abbrev  0x0000000000008123      0x310 c:/pspsdk/bin/../lib/gcc/psp/4.3.5/../../../../psp/lib\libjpeg.a(jquant1.o)
 .debug_abbrev  0x0000000000008433      0x359 c:/pspsdk/bin/../lib/gcc/psp/4.3.5/../../../../psp/lib\libjpeg.a(jquant2.o)
 .debug_abbrev  0x000000000000878c      0x2af c:/pspsdk/bin/../lib/gcc/psp/4.3.5/../../../../psp/lib\libjpeg.a(jdmerge.o)
 .debug_abbrev  0x0000000000008a3b      0x1b7 c:/pspsdk/bin/../lib/gcc/psp/4.3.5/../../../../psp/lib\libjpeg.a(jcomapi.o)
 .debug_abbrev  0x0000000000008bf2      0x122 c:/pspsdk/bin/../lib/gcc/psp/4.3.5/../../../../psp/lib\libjpeg.a(jutils.o)
 .debug_abbrev  0x0000000000008d14      0x250 c:/pspsdk/bin/../lib/gcc/psp/4.3.5/../../../../psp/lib\libjpeg.a(jerror.o)
 .debug_abbrev  0x0000000000008f64      0x2ae c:/pspsdk/bin/../lib/gcc/psp/4.3.5/../../../../psp/lib\libjpeg.a(jmemmgr.o)
 .debug_abbrev  0x0000000000009212      0x1e9 c:/pspsdk/bin/../lib/gcc/psp/4.3.5/../../../../psp/lib\libjpeg.a(jmemnobs.o)
 .debug_abbrev  0x00000000000093fb      0x287 c:/pspsdk/bin/../lib/gcc/psp/4.3.5/../../../../psp/lib\libjpeg.a(jdarith.o)
 .debug_abbrev  0x0000000000009682       0x6a c:/pspsdk/bin/../lib/gcc/psp/4.3.5/../../../../psp/lib\libjpeg.a(jaricom.o)
 .debug_abbrev  0x00000000000096ec      0x11c c:/pspsdk/psp/sdk/lib\libpspsdk.a(loadmodule.o)
 .debug_abbrev  0x0000000000009808       0x67 c:/pspsdk/psp/sdk/lib\libpspgu.a(sceGuAlphaFunc.o)
 .debug_abbrev  0x000000000000986f       0x5a c:/pspsdk/psp/sdk/lib\libpspgu.a(sceGuAmbientColor.o)
 .debug_abbrev  0x00000000000098c9       0x69 c:/pspsdk/psp/sdk/lib\libpspgu.a(sceGuBlendFunc.o)
 .debug_abbrev  0x0000000000009932      0x11e c:/pspsdk/psp/sdk/lib\libpspgu.a(sceGuClear.o)
 .debug_abbrev  0x0000000000009a50       0xbe c:/pspsdk/psp/sdk/lib\libpspgu.a(sceGuClearColor.o)
 .debug_abbrev  0x0000000000009b0e       0x79 c:/pspsdk/psp/sdk/lib\libpspgu.a(sceGuClutLoad.o)
 .debug_abbrev  0x0000000000009b87       0x76 c:/pspsdk/psp/sdk/lib\libpspgu.a(sceGuClutMode.o)
 .debug_abbrev  0x0000000000009bfd       0x5a c:/pspsdk/psp/sdk/lib\libpspgu.a(sceGuColorFunc.o)
 .debug_abbrev  0x0000000000009c57       0x9d c:/pspsdk/psp/sdk/lib\libpspgu.a(sceGuDepthBuffer.o)
 .debug_abbrev  0x0000000000009cf4       0x5a c:/pspsdk/psp/sdk/lib\libpspgu.a(sceGuDepthFunc.o)
 .debug_abbrev  0x0000000000009d4e       0xeb c:/pspsdk/psp/sdk/lib\libpspgu.a(sceGuDepthRange.o)
 .debug_abbrev  0x0000000000009e39       0xe8 c:/pspsdk/psp/sdk/lib\libpspgu.a(sceGuDisable.o)
 .debug_abbrev  0x0000000000009f21       0xc4 c:/pspsdk/psp/sdk/lib\libpspgu.a(sceGuDispBuffer.o)
 .debug_abbrev  0x0000000000009fe5       0xb7 c:/pspsdk/psp/sdk/lib\libpspgu.a(sceGuDisplay.o)
 .debug_abbrev  0x000000000000a09c       0x6a c:/pspsdk/psp/sdk/lib\libpspgu.a(sceGuDrawArray.o)
 .debug_abbrev  0x000000000000a106       0xac c:/pspsdk/psp/sdk/lib\libpspgu.a(sceGuDrawBuffer.o)
 .debug_abbrev  0x000000000000a1b2       0xd4 c:/pspsdk/psp/sdk/lib\libpspgu.a(sceGuEnable.o)
 .debug_abbrev  0x000000000000a286       0xc0 c:/pspsdk/psp/sdk/lib\libpspgu.a(sceGuFinish.o)
 .debug_abbrev  0x000000000000a346       0x5a c:/pspsdk/psp/sdk/lib\libpspgu.a(sceGuFrontFace.o)
 .debug_abbrev  0x000000000000a3a0       0xd6 c:/pspsdk/psp/sdk/lib\libpspgu.a(sceGuGetMemory.o)
 .debug_abbrev  0x000000000000a476      0x11c c:/pspsdk/psp/sdk/lib\libpspgu.a(sceGuInit.o)
 .debug_abbrev  0x000000000000a592       0x5a c:/pspsdk/psp/sdk/lib\libpspgu.a(sceGuOffset.o)
 .debug_abbrev  0x000000000000a5ec       0xcf c:/pspsdk/psp/sdk/lib\libpspgu.a(sceGuScissor.o)
 .debug_abbrev  0x000000000000a6bb       0x5a c:/pspsdk/psp/sdk/lib\libpspgu.a(sceGuShadeModel.o)
 .debug_abbrev  0x000000000000a715      0x147 c:/pspsdk/psp/sdk/lib\libpspgu.a(sceGuStart.o)
 .debug_abbrev  0x000000000000a85c       0x69 c:/pspsdk/psp/sdk/lib\libpspgu.a(sceGuStencilFunc.o)
 .debug_abbrev  0x000000000000a8c5       0x5a c:/pspsdk/psp/sdk/lib\libpspgu.a(sceGuStencilOp.o)
 .debug_abbrev  0x000000000000a91f      0x118 c:/pspsdk/psp/sdk/lib\libpspgu.a(sceGuSwapBuffers.o)
 .debug_abbrev  0x000000000000aa37       0x81 c:/pspsdk/psp/sdk/lib\libpspgu.a(sceGuSync.o)
 .debug_abbrev  0x000000000000aab8       0xd3 c:/pspsdk/psp/sdk/lib\libpspgu.a(sceGuTerm.o)
 .debug_abbrev  0x000000000000ab8b       0x5a c:/pspsdk/psp/sdk/lib\libpspgu.a(sceGuTexEnvColor.o)
 .debug_abbrev  0x000000000000abe5       0x5a c:/pspsdk/psp/sdk/lib\libpspgu.a(sceGuTexFilter.o)
 .debug_abbrev  0x000000000000ac3f       0xc0 c:/pspsdk/psp/sdk/lib\libpspgu.a(sceGuTexFunc.o)
 .debug_abbrev  0x000000000000acff      0x12d c:/pspsdk/psp/sdk/lib\libpspgu.a(sceGuTexImage.o)
 .debug_abbrev  0x000000000000ae2c       0xcd c:/pspsdk/psp/sdk/lib\libpspgu.a(sceGuTexMode.o)
 .debug_abbrev  0x000000000000aef9       0x5a c:/pspsdk/psp/sdk/lib\libpspgu.a(sceGuTexOffset.o)
 .debug_abbrev  0x000000000000af53       0x5a c:/pspsdk/psp/sdk/lib\libpspgu.a(sceGuTexScale.o)
 .debug_abbrev  0x000000000000afad       0x5a c:/pspsdk/psp/sdk/lib\libpspgu.a(sceGuTexWrap.o)
 .debug_abbrev  0x000000000000b007       0x69 c:/pspsdk/psp/sdk/lib\libpspgu.a(sceGuViewport.o)
 .debug_abbrev  0x000000000000b070      0x15f c:/pspsdk/psp/sdk/lib\libpspgu.a(sendCommand.o)
 .debug_abbrev  0x000000000000b1cf       0xe0 c:/pspsdk/psp/sdk/lib\libpspgu.a(callbackFin.o)
 .debug_abbrev  0x000000000000b2af       0xe2 c:/pspsdk/psp/sdk/lib\libpspgu.a(callbackSig.o)
 .debug_abbrev  0x000000000000b391       0xbb c:/pspsdk/psp/sdk/lib\libpspgu.a(guInternal.o)
 .debug_abbrev  0x000000000000b44c       0xf6 c:/pspsdk/psp/sdk/lib\libpspgu.a(resetValues.o)
 .debug_abbrev  0x000000000000b542       0x5a c:/pspsdk/psp/sdk/lib\libpspgu.a(sceGuColorMaterial.o)
 .debug_abbrev  0x000000000000b59c       0x5a c:/pspsdk/psp/sdk/lib\libpspgu.a(sceGuPatchDivide.o)
 .debug_abbrev  0x000000000000b5f6       0xc2 c:/pspsdk/psp/sdk/lib\libpspgu.a(sceGuSetDither.o)
 .debug_abbrev  0x000000000000b6b8       0x5a c:/pspsdk/psp/sdk/lib\libpspgu.a(sceGuSpecular.o)
 .debug_abbrev  0x000000000000b712       0x4b c:/pspsdk/psp/sdk/lib\libpspgu.a(sceGuTexFlush.o)
 .debug_abbrev  0x000000000000b75d      0x128 c:/pspsdk/bin/../lib/gcc/psp/4.3.5/../../../../psp/lib\libstdc++.a(del_op.o)
 .debug_abbrev  0x000000000000b885       0x7e c:/pspsdk/bin/../lib/gcc/psp/4.3.5/../../../../psp/lib\libstdc++.a(del_opv.o)
 .debug_abbrev  0x000000000000b903      0x1ba c:/pspsdk/bin/../lib/gcc/psp/4.3.5/../../../../psp/lib\libstdc++.a(new_op.o)
 .debug_abbrev  0x000000000000babd       0x8d c:/pspsdk/bin/../lib/gcc/psp/4.3.5/../../../../psp/lib\libstdc++.a(new_opv.o)
 .debug_abbrev  0x000000000000bb4a      0x346 c:/pspsdk/bin/../lib/gcc/psp/4.3.5/../../../../psp/lib\libstdc++.a(eh_alloc.o)
 .debug_abbrev  0x000000000000be90      0x19e c:/pspsdk/bin/../lib/gcc/psp/4.3.5/../../../../psp/lib\libstdc++.a(eh_globals.o)
 .debug_abbrev  0x000000000000c02e      0x480 c:/pspsdk/bin/../lib/gcc/psp/4.3.5/../../../../psp/lib\libstdc++.a(eh_personality.o)
 .debug_abbrev  0x000000000000c4ae      0x1e3 c:/pspsdk/bin/../lib/gcc/psp/4.3.5/../../../../psp/lib\libstdc++.a(eh_terminate.o)
 .debug_abbrev  0x000000000000c691       0xb1 c:/pspsdk/bin/../lib/gcc/psp/4.3.5/../../../../psp/lib\libstdc++.a(eh_term_handler.o)
 .debug_abbrev  0x000000000000c742      0x1d5 c:/pspsdk/bin/../lib/gcc/psp/4.3.5/../../../../psp/lib\libstdc++.a(eh_throw.o)
 .debug_abbrev  0x000000000000c917       0xb1 c:/pspsdk/bin/../lib/gcc/psp/4.3.5/../../../../psp/lib\libstdc++.a(eh_unex_handler.o)
 .debug_abbrev  0x000000000000c9c8      0x1be c:/pspsdk/bin/../lib/gcc/psp/4.3.5/../../../../psp/lib\libstdc++.a(new_handler.o)
 .debug_abbrev  0x000000000000cb86      0x307 c:/pspsdk/bin/../lib/gcc/psp/4.3.5/../../../../psp/lib\libstdc++.a(si_class_type_info.o)
 .debug_abbrev  0x000000000000ce8d      0x21e c:/pspsdk/bin/../lib/gcc/psp/4.3.5/../../../../psp/lib\libstdc++.a(tinfo.o)
 .debug_abbrev  0x000000000000d0ab      0x2b3 c:/pspsdk/bin/../lib/gcc/psp/4.3.5/../../../../psp/lib\libstdc++.a(vterminate.o)
 .debug_abbrev  0x000000000000d35e      0x35f c:/pspsdk/bin/../lib/gcc/psp/4.3.5/../../../../psp/lib\libstdc++.a(class_type_info.o)
 .debug_abbrev  0x000000000000d6bd      0x1d8 c:/pspsdk/bin/../lib/gcc/psp/4.3.5/../../../../psp/lib\libstdc++.a(eh_call.o)
 .debug_abbrev  0x000000000000d895      0x23e c:/pspsdk/bin/../lib/gcc/psp/4.3.5/../../../../psp/lib\libstdc++.a(eh_catch.o)
 .debug_abbrev  0x000000000000dad3      0x1f1 c:/pspsdk/bin/../lib/gcc/psp/4.3.5/../../../../psp/lib\libstdc++.a(eh_exception.o)
 .debug_abbrev  0x000000000000dcc4      0x143 c:/pspsdk/bin/../lib/gcc/psp/4.3.5/../../../../psp/lib\libstdc++.a(eh_type.o)
 .debug_abbrev  0x000000000000de07       0xb4 c:/pspsdk/bin/../lib/gcc/psp/4.3.5/../../../../psp/lib\libstdc++.a(pure.o)
 .debug_abbrev  0x000000000000debb       0x78 c:/pspsdk/bin/../lib/gcc/psp/4.3.5/../../../../psp/lib\libm.a(lib_a-s_ceil.o)
 .debug_abbrev  0x000000000000df33       0x78 c:/pspsdk/bin/../lib/gcc/psp/4.3.5/../../../../psp/lib\libm.a(lib_a-s_floor.o)
 .debug_abbrev  0x000000000000dfab       0x5c c:/pspsdk/bin/../lib/gcc/psp/4.3.5/../../../../psp/lib\libm.a(lib_a-s_log.o)
 .debug_abbrev  0x000000000000e007       0x5c c:/pspsdk/bin/../lib/gcc/psp/4.3.5/../../../../psp/lib\libm.a(lib_a-s_log10.o)
 .debug_abbrev  0x000000000000e063       0xe3 c:/pspsdk/bin/../lib/gcc/psp/4.3.5/../../../../psp/lib\libm.a(lib_a-s_logarithm.o)
 .debug_abbrev  0x000000000000e146       0x77 c:/pspsdk/bin/../lib/gcc/psp/4.3.5/../../../../psp/lib\libm.a(lib_a-s_mathcnst.o)
 .debug_abbrev  0x000000000000e1bd      0x12f c:/pspsdk/bin/../lib/gcc/psp/4.3.5/../../../../psp/lib\libm.a(lib_a-s_modf.o)
 .debug_abbrev  0x000000000000e2ec      0x126 c:/pspsdk/bin/../lib/gcc/psp/4.3.5/../../../../psp/lib\libm.a(lib_a-s_pow.o)
 .debug_abbrev  0x000000000000e412       0x5c c:/pspsdk/bin/../lib/gcc/psp/4.3.5/../../../../psp/lib\libm.a(lib_a-s_sin.o)
 .debug_abbrev  0x000000000000e46e       0xe9 c:/pspsdk/bin/../lib/gcc/psp/4.3.5/../../../../psp/lib\libm.a(lib_a-s_sine.o)
 .debug_abbrev  0x000000000000e557       0xbe c:/pspsdk/bin/../lib/gcc/psp/4.3.5/../../../../psp/lib\libm.a(lib_a-s_sqrt.o)
 .debug_abbrev  0x000000000000e615       0xdc c:/pspsdk/bin/../lib/gcc/psp/4.3.5/../../../../psp/lib\libm.a(lib_a-s_exp.o)
 .debug_abbrev  0x000000000000e6f1       0x5c c:/pspsdk/bin/../lib/gcc/psp/4.3.5/../../../../psp/lib\libm.a(lib_a-s_fabs.o)
 .debug_abbrev  0x000000000000e74d       0x87 c:/pspsdk/bin/../lib/gcc/psp/4.3.5/../../../../psp/lib\libm.a(lib_a-s_fpclassify.o)
 .debug_abbrev  0x000000000000e7d4       0xe7 c:/pspsdk/bin/../lib/gcc/psp/4.3.5/../../../../psp/lib\libm.a(lib_a-s_frexp.o)
 .debug_abbrev  0x000000000000e8bb       0xcf c:/pspsdk/bin/../lib/gcc/psp/4.3.5/../../../../psp/lib\libm.a(lib_a-s_ispos.o)
 .debug_abbrev  0x000000000000e98a      0x117 c:/pspsdk/bin/../lib/gcc/psp/4.3.5/../../../../psp/lib\libm.a(lib_a-s_ldexp.o)
 .debug_abbrev  0x000000000000eaa1       0xd1 c:/pspsdk/bin/../lib/gcc/psp/4.3.5/../../../../psp/lib\libm.a(lib_a-s_numtest.o)
 .debug_abbrev  0x000000000000eb72      0x195 c:/pspsdk/bin/../lib/gcc/psp/4.3.5/../../../../psp/lib\libc.a(fprintf.o)
 .debug_abbrev  0x000000000000ed07       0x4b c:/pspsdk/bin/../lib/gcc/psp/4.3.5/../../../../psp/lib\libc.a(lib_a-abort.o)
 .debug_abbrev  0x000000000000ed52       0x84 c:/pspsdk/bin/../lib/gcc/psp/4.3.5/../../../../psp/lib\libc.a(lib_a-atexit.o)
 .debug_abbrev  0x000000000000edd6       0x6e c:/pspsdk/bin/../lib/gcc/psp/4.3.5/../../../../psp/lib\libc.a(lib_a-atof.o)
 .debug_abbrev  0x000000000000ee44      0x185 c:/pspsdk/bin/../lib/gcc/psp/4.3.5/../../../../psp/lib\libc.a(lib_a-atoi.o)
 .debug_abbrev  0x000000000000efc9      0x18b c:/pspsdk/bin/../lib/gcc/psp/4.3.5/../../../../psp/lib\libc.a(lib_a-calloc.o)
 .debug_abbrev  0x000000000000f154      0x1c4 c:/pspsdk/bin/../lib/gcc/psp/4.3.5/../../../../psp/lib\libc.a(lib_a-callocr.o)
 .debug_abbrev  0x000000000000f318       0x5b c:/pspsdk/bin/../lib/gcc/psp/4.3.5/../../../../psp/lib\libc.a(lib_a-ctype_.o)
 .debug_abbrev  0x000000000000f373      0x16b c:/pspsdk/bin/../lib/gcc/psp/4.3.5/../../../../psp/lib\libc.a(lib_a-errno.o)
 .debug_abbrev  0x000000000000f4de      0x17a c:/pspsdk/bin/../lib/gcc/psp/4.3.5/../../../../psp/lib\libc.a(lib_a-exit.o)
 .debug_abbrev  0x000000000000f658      0x1b6 c:/pspsdk/bin/../lib/gcc/psp/4.3.5/../../../../psp/lib\libc.a(lib_a-fclose.o)
 .debug_abbrev  0x000000000000f80e      0x1c5 c:/pspsdk/bin/../lib/gcc/psp/4.3.5/../../../../psp/lib\libc.a(lib_a-fdopen.o)
 .debug_abbrev  0x000000000000f9d3      0x1bd c:/pspsdk/bin/../lib/gcc/psp/4.3.5/../../../../psp/lib\libc.a(lib_a-fflush.o)
 .debug_abbrev  0x000000000000fb90      0x18b c:/pspsdk/bin/../lib/gcc/psp/4.3.5/../../../../psp/lib\libc.a(lib_a-fgetc.o)
 .debug_abbrev  0x000000000000fd1b      0x1a7 c:/pspsdk/bin/../lib/gcc/psp/4.3.5/../../../../psp/lib\libc.a(lib_a-fgets.o)
 .debug_abbrev  0x000000000000fec2      0x2b5 c:/pspsdk/bin/../lib/gcc/psp/4.3.5/../../../../psp/lib\libc.a(lib_a-findfp.o)
 .debug_abbrev  0x0000000000010177      0x189 c:/pspsdk/bin/../lib/gcc/psp/4.3.5/../../../../psp/lib\libc.a(lib_a-flags.o)
 .debug_abbrev  0x0000000000010300      0x278 c:/pspsdk/bin/../lib/gcc/psp/4.3.5/../../../../psp/lib\libc.a(lib_a-fmemopen.o)
 .debug_abbrev  0x0000000000010578      0x1c5 c:/pspsdk/bin/../lib/gcc/psp/4.3.5/../../../../psp/lib\libc.a(lib_a-fopen.o)
 .debug_abbrev  0x000000000001073d      0x198 c:/pspsdk/bin/../lib/gcc/psp/4.3.5/../../../../psp/lib\libc.a(lib_a-fputc.o)
 .debug_abbrev  0x00000000000108d5      0x1b9 c:/pspsdk/bin/../lib/gcc/psp/4.3.5/../../../../psp/lib\libc.a(lib_a-fputs.o)
 .debug_abbrev  0x0000000000010a8e      0x204 c:/pspsdk/bin/../lib/gcc/psp/4.3.5/../../../../psp/lib\libc.a(lib_a-fread.o)
 .debug_abbrev  0x0000000000010c92      0x1e8 c:/pspsdk/bin/../lib/gcc/psp/4.3.5/../../../../psp/lib\libc.a(lib_a-freer.o)
 .debug_abbrev  0x0000000000010e7a      0x215 c:/pspsdk/bin/../lib/gcc/psp/4.3.5/../../../../psp/lib\libc.a(lib_a-fseek.o)
 .debug_abbrev  0x000000000001108f      0x19a c:/pspsdk/bin/../lib/gcc/psp/4.3.5/../../../../psp/lib\libc.a(lib_a-fstatr.o)
 .debug_abbrev  0x0000000000011229      0x1a7 c:/pspsdk/bin/../lib/gcc/psp/4.3.5/../../../../psp/lib\libc.a(lib_a-ftell.o)
 .debug_abbrev  0x00000000000113d0      0x1af c:/pspsdk/bin/../lib/gcc/psp/4.3.5/../../../../psp/lib\libc.a(lib_a-fvwrite.o)
 .debug_abbrev  0x000000000001157f      0x1f2 c:/pspsdk/bin/../lib/gcc/psp/4.3.5/../../../../psp/lib\libc.a(lib_a-fwalk.o)
 .debug_abbrev  0x0000000000011771      0x1ca c:/pspsdk/bin/../lib/gcc/psp/4.3.5/../../../../psp/lib\libc.a(lib_a-fwrite.o)
 .debug_abbrev  0x000000000001193b      0x1a7 c:/pspsdk/bin/../lib/gcc/psp/4.3.5/../../../../psp/lib\libc.a(lib_a-getenv.o)
 .debug_abbrev  0x0000000000011ae2      0x1b6 c:/pspsdk/bin/../lib/gcc/psp/4.3.5/../../../../psp/lib\libc.a(lib_a-getenv_r.o)
 .debug_abbrev  0x0000000000011c98      0x18b c:/pspsdk/bin/../lib/gcc/psp/4.3.5/../../../../psp/lib\libc.a(lib_a-gmtime.o)
 .debug_abbrev  0x0000000000011e23       0xa8 c:/pspsdk/bin/../lib/gcc/psp/4.3.5/../../../../psp/lib\libc.a(lib_a-gmtime_r.o)
 .debug_abbrev  0x0000000000011ecb      0x160 c:/pspsdk/bin/../lib/gcc/psp/4.3.5/../../../../psp/lib\libc.a(lib_a-impure.o)
 .debug_abbrev  0x000000000001202b      0x1a6 c:/pspsdk/bin/../lib/gcc/psp/4.3.5/../../../../psp/lib\libc.a(lib_a-iprintf.o)
 .debug_abbrev  0x00000000000121d1      0x18b c:/pspsdk/bin/../lib/gcc/psp/4.3.5/../../../../psp/lib\libc.a(lib_a-lcltime.o)
 .debug_abbrev  0x000000000001235c       0xa8 c:/pspsdk/bin/../lib/gcc/psp/4.3.5/../../../../psp/lib\libc.a(lib_a-lcltime_r.o)
 .debug_abbrev  0x0000000000012404      0x196 c:/pspsdk/bin/../lib/gcc/psp/4.3.5/../../../../psp/lib\libc.a(lib_a-makebuf.o)
 .debug_abbrev  0x000000000001259a      0x17c c:/pspsdk/bin/../lib/gcc/psp/4.3.5/../../../../psp/lib\libc.a(lib_a-malign.o)
 .debug_abbrev  0x0000000000012716      0x1b0 c:/pspsdk/bin/../lib/gcc/psp/4.3.5/../../../../psp/lib\libc.a(lib_a-malignr.o)
 .debug_abbrev  0x00000000000128c6      0x196 c:/pspsdk/bin/../lib/gcc/psp/4.3.5/../../../../psp/lib\libc.a(lib_a-malloc.o)
 .debug_abbrev  0x0000000000012a5c      0x222 c:/pspsdk/bin/../lib/gcc/psp/4.3.5/../../../../psp/lib\libc.a(lib_a-mallocr.o)
 .debug_abbrev  0x0000000000012c7e       0xdf c:/pspsdk/bin/../lib/gcc/psp/4.3.5/../../../../psp/lib\libc.a(lib_a-memchr.o)
 .debug_abbrev  0x0000000000012d5d       0x88 c:/pspsdk/bin/../lib/gcc/psp/4.3.5/../../../../psp/lib\libc.a(lib_a-memcmp.o)
 .debug_abbrev  0x0000000000012de5       0xca c:/pspsdk/bin/../lib/gcc/psp/4.3.5/../../../../psp/lib\libc.a(lib_a-memcpy.o)
 .debug_abbrev  0x0000000000012eaf       0xa5 c:/pspsdk/bin/../lib/gcc/psp/4.3.5/../../../../psp/lib\libc.a(lib_a-memmove.o)
 .debug_abbrev  0x0000000000012f54       0xcb c:/pspsdk/bin/../lib/gcc/psp/4.3.5/../../../../psp/lib\libc.a(lib_a-memset.o)
 .debug_abbrev  0x000000000001301f      0x139 c:/pspsdk/bin/../lib/gcc/psp/4.3.5/../../../../psp/lib\libc.a(lib_a-mktm_r.o)
 .debug_abbrev  0x0000000000013158      0x176 c:/pspsdk/bin/../lib/gcc/psp/4.3.5/../../../../psp/lib\libc.a(lib_a-mlock.o)
 .debug_abbrev  0x00000000000132ce      0x19a c:/pspsdk/bin/../lib/gcc/psp/4.3.5/../../../../psp/lib\libc.a(lib_a-openr.o)
 .debug_abbrev  0x0000000000013468      0x18b c:/pspsdk/bin/../lib/gcc/psp/4.3.5/../../../../psp/lib\libc.a(lib_a-putc.o)
 .debug_abbrev  0x00000000000135f3      0x194 c:/pspsdk/bin/../lib/gcc/psp/4.3.5/../../../../psp/lib\libc.a(lib_a-rand.o)
 .debug_abbrev  0x0000000000013787      0x18b c:/pspsdk/bin/../lib/gcc/psp/4.3.5/../../../../psp/lib\libc.a(lib_a-realloc.o)
 .debug_abbrev  0x0000000000013912      0x1d8 c:/pspsdk/bin/../lib/gcc/psp/4.3.5/../../../../psp/lib\libc.a(lib_a-reallocr.o)
 .debug_abbrev  0x0000000000013aea      0x1e6 c:/pspsdk/bin/../lib/gcc/psp/4.3.5/../../../../psp/lib\libc.a(lib_a-reent.o)
 .debug_abbrev  0x0000000000013cd0      0x196 c:/pspsdk/bin/../lib/gcc/psp/4.3.5/../../../../psp/lib\libc.a(lib_a-refill.o)
 .debug_abbrev  0x0000000000013e66      0x198 c:/pspsdk/bin/../lib/gcc/psp/4.3.5/../../../../psp/lib\libc.a(lib_a-rget.o)
 .debug_abbrev  0x0000000000013ffe      0x19a c:/pspsdk/bin/../lib/gcc/psp/4.3.5/../../../../psp/lib\libc.a(lib_a-sbrkr.o)
 .debug_abbrev  0x0000000000014198       0x14 c:/pspsdk/bin/../lib/gcc/psp/4.3.5/../../../../psp/lib\libc.a(lib_a-setjmp.o)
 .debug_abbrev  0x00000000000141ac      0x1dd c:/pspsdk/bin/../lib/gcc/psp/4.3.5/../../../../psp/lib\libc.a(lib_a-signal.o)
 .debug_abbrev  0x0000000000014389      0x1b4 c:/pspsdk/bin/../lib/gcc/psp/4.3.5/../../../../psp/lib\libc.a(lib_a-signalr.o)
 .debug_abbrev  0x000000000001453d      0x1b7 c:/pspsdk/bin/../lib/gcc/psp/4.3.5/../../../../psp/lib\libc.a(lib_a-snprintf.o)
 .debug_abbrev  0x00000000000146f4      0x1a6 c:/pspsdk/bin/../lib/gcc/psp/4.3.5/../../../../psp/lib\libc.a(lib_a-sprintf.o)
 .debug_abbrev  0x000000000001489a      0x1a6 c:/pspsdk/bin/../lib/gcc/psp/4.3.5/../../../../psp/lib\libc.a(lib_a-sscanf.o)
 .debug_abbrev  0x0000000000014a40      0x1f9 c:/pspsdk/bin/../lib/gcc/psp/4.3.5/../../../../psp/lib\libc.a(lib_a-stdio.o)
 .debug_abbrev  0x0000000000014c39       0xc3 c:/pspsdk/bin/../lib/gcc/psp/4.3.5/../../../../psp/lib\libc.a(lib_a-strcasecmp.o)
 .debug_abbrev  0x0000000000014cfc       0x93 c:/pspsdk/bin/../lib/gcc/psp/4.3.5/../../../../psp/lib\libc.a(lib_a-strcat.o)
 .debug_abbrev  0x0000000000014d8f       0x99 c:/pspsdk/bin/../lib/gcc/psp/4.3.5/../../../../psp/lib\libc.a(lib_a-strchr.o)
 .debug_abbrev  0x0000000000014e28       0xa6 c:/pspsdk/bin/../lib/gcc/psp/4.3.5/../../../../psp/lib\libc.a(lib_a-strcmp.o)
 .debug_abbrev  0x0000000000014ece       0x8c c:/pspsdk/bin/../lib/gcc/psp/4.3.5/../../../../psp/lib\libc.a(lib_a-strcpy.o)
 .debug_abbrev  0x0000000000014f5a       0x74 c:/pspsdk/bin/../lib/gcc/psp/4.3.5/../../../../psp/lib\libc.a(lib_a-strerror.o)
 .debug_abbrev  0x0000000000014fce       0x86 c:/pspsdk/bin/../lib/gcc/psp/4.3.5/../../../../psp/lib\libc.a(lib_a-strlen.o)
 .debug_abbrev  0x0000000000015054       0x99 c:/pspsdk/bin/../lib/gcc/psp/4.3.5/../../../../psp/lib\libc.a(lib_a-strncmp.o)
 .debug_abbrev  0x00000000000150ed       0xc0 c:/pspsdk/bin/../lib/gcc/psp/4.3.5/../../../../psp/lib\libc.a(lib_a-strncpy.o)
 .debug_abbrev  0x00000000000151ad       0x7b c:/pspsdk/bin/../lib/gcc/psp/4.3.5/../../../../psp/lib\libc.a(lib_a-strrchr.o)
 .debug_abbrev  0x0000000000015228      0x350 c:/pspsdk/bin/../lib/gcc/psp/4.3.5/../../../../psp/lib\libc.a(lib_a-strtod.o)
 .debug_abbrev  0x0000000000015578      0x201 c:/pspsdk/bin/../lib/gcc/psp/4.3.5/../../../../psp/lib\libc.a(lib_a-strtol.o)
 .debug_abbrev  0x0000000000015779      0x2d3 c:/pspsdk/bin/../lib/gcc/psp/4.3.5/../../../../psp/lib\libc.a(lib_a-svfprintf.o)
 .debug_abbrev  0x0000000000015a4c      0x233 c:/pspsdk/bin/../lib/gcc/psp/4.3.5/../../../../psp/lib\libc.a(lib_a-svfscanf.o)
 .debug_abbrev  0x0000000000015c7f      0x17c c:/pspsdk/bin/../lib/gcc/psp/4.3.5/../../../../psp/lib\libc.a(lib_a-sysgettod.o)
 .debug_abbrev  0x0000000000015dfb      0x181 c:/pspsdk/bin/../lib/gcc/psp/4.3.5/../../../../psp/lib\libc.a(lib_a-syswrite.o)
 .debug_abbrev  0x0000000000015f7c      0x18b c:/pspsdk/bin/../lib/gcc/psp/4.3.5/../../../../psp/lib\libc.a(lib_a-time.o)
 .debug_abbrev  0x0000000000016107       0x5a c:/pspsdk/bin/../lib/gcc/psp/4.3.5/../../../../psp/lib\libc.a(lib_a-tzlock.o)
 .debug_abbrev  0x0000000000016161       0x5f c:/pspsdk/bin/../lib/gcc/psp/4.3.5/../../../../psp/lib\libc.a(lib_a-tzvars.o)
 .debug_abbrev  0x00000000000161c0       0x5e c:/pspsdk/bin/../lib/gcc/psp/4.3.5/../../../../psp/lib\libc.a(lib_a-u_strerr.o)
 .debug_abbrev  0x000000000001621e      0x1c5 c:/pspsdk/bin/../lib/gcc/psp/4.3.5/../../../../psp/lib\libc.a(lib_a-ungetc.o)
 .debug_abbrev  0x00000000000163e3      0x2b6 c:/pspsdk/bin/../lib/gcc/psp/4.3.5/../../../../psp/lib\libc.a(lib_a-vfiprintf.o)
 .debug_abbrev  0x0000000000016699      0x1ce c:/pspsdk/bin/../lib/gcc/psp/4.3.5/../../../../psp/lib\libc.a(lib_a-vsnprintf.o)
 .debug_abbrev  0x0000000000016867      0x1a7 c:/pspsdk/bin/../lib/gcc/psp/4.3.5/../../../../psp/lib\libc.a(lib_a-wbuf.o)
 .debug_abbrev  0x0000000000016a0e      0x190 c:/pspsdk/bin/../lib/gcc/psp/4.3.5/../../../../psp/lib\libc.a(lib_a-writer.o)
 .debug_abbrev  0x0000000000016b9e      0x17c c:/pspsdk/bin/../lib/gcc/psp/4.3.5/../../../../psp/lib\libc.a(lib_a-wsetup.o)
 .debug_abbrev  0x0000000000016d1a      0x1ea c:/pspsdk/bin/../lib/gcc/psp/4.3.5/../../../../psp/lib\libc.a(vxprintf.o)
 .debug_abbrev  0x0000000000016f04      0x176 c:/pspsdk/bin/../lib/gcc/psp/4.3.5/../../../../psp/lib\libc.a(__fout.o)
 .debug_abbrev  0x000000000001707a       0x76 c:/pspsdk/bin/../lib/gcc/psp/4.3.5/../../../../psp/lib\libc.a(_exit.o)
 .debug_abbrev  0x00000000000170f0      0x11b c:/pspsdk/bin/../lib/gcc/psp/4.3.5/../../../../psp/lib\libc.a(_fstat.o)
 .debug_abbrev  0x000000000001720b       0x5a c:/pspsdk/bin/../lib/gcc/psp/4.3.5/../../../../psp/lib\libc.a(_getpid.o)
 .debug_abbrev  0x0000000000017265       0x5c c:/pspsdk/bin/../lib/gcc/psp/4.3.5/../../../../psp/lib\libc.a(_kill.o)
 .debug_abbrev  0x00000000000172c1      0x10a c:/pspsdk/bin/../lib/gcc/psp/4.3.5/../../../../psp/lib\libc.a(_open.o)
 .debug_abbrev  0x00000000000173cb       0xdc c:/pspsdk/bin/../lib/gcc/psp/4.3.5/../../../../psp/lib\libc.a(_sbrk.o)
 .debug_abbrev  0x00000000000174a7       0xea c:/pspsdk/bin/../lib/gcc/psp/4.3.5/../../../../psp/lib\libc.a(_write.o)
 .debug_abbrev  0x0000000000017591      0x14f c:/pspsdk/bin/../lib/gcc/psp/4.3.5/../../../../psp/lib\libc.a(fdman.o)
 .debug_abbrev  0x00000000000176e0       0x14 c:/pspsdk/bin/../lib/gcc/psp/4.3.5/../../../../psp/lib\libc.a(interrupt.o)
 .debug_abbrev  0x00000000000176f4      0x1b7 c:/pspsdk/bin/../lib/gcc/psp/4.3.5/../../../../psp/lib\libc.a(isatty.o)
 .debug_abbrev  0x00000000000178ab      0x1bf c:/pspsdk/bin/../lib/gcc/psp/4.3.5/../../../../psp/lib\libc.a(lib_a-__atexit.o)
 .debug_abbrev  0x0000000000017a6a      0x1d3 c:/pspsdk/bin/../lib/gcc/psp/4.3.5/../../../../psp/lib\libc.a(lib_a-__call_atexit.o)
 .debug_abbrev  0x0000000000017c3d      0x18b c:/pspsdk/bin/../lib/gcc/psp/4.3.5/../../../../psp/lib\libc.a(lib_a-closer.o)
 .debug_abbrev  0x0000000000017dc8      0x236 c:/pspsdk/bin/../lib/gcc/psp/4.3.5/../../../../psp/lib\libc.a(lib_a-dtoa.o)
 .debug_abbrev  0x0000000000017ffe       0x63 c:/pspsdk/bin/../lib/gcc/psp/4.3.5/../../../../psp/lib\libc.a(lib_a-environ.o)
 .debug_abbrev  0x0000000000018061      0x178 c:/pspsdk/bin/../lib/gcc/psp/4.3.5/../../../../psp/lib\libc.a(lib_a-envlock.o)
 .debug_abbrev  0x00000000000181d9      0x18b c:/pspsdk/bin/../lib/gcc/psp/4.3.5/../../../../psp/lib\libc.a(lib_a-fcntlr.o)
 .debug_abbrev  0x0000000000018364      0x1f6 c:/pspsdk/bin/../lib/gcc/psp/4.3.5/../../../../psp/lib\libc.a(lib_a-fputwc.o)
 .debug_abbrev  0x000000000001855a      0x2ed c:/pspsdk/bin/../lib/gcc/psp/4.3.5/../../../../psp/lib\libc.a(lib_a-gdtoa-gethex.o)
 .debug_abbrev  0x0000000000018847      0x166 c:/pspsdk/bin/../lib/gcc/psp/4.3.5/../../../../psp/lib\libc.a(lib_a-gdtoa-hexnan.o)
 .debug_abbrev  0x00000000000189ad      0x19a c:/pspsdk/bin/../lib/gcc/psp/4.3.5/../../../../psp/lib\libc.a(lib_a-gettimeofdayr.o)
 .debug_abbrev  0x0000000000018b47       0xb1 c:/pspsdk/bin/../lib/gcc/psp/4.3.5/../../../../psp/lib\libc.a(lib_a-gettzinfo.o)
 .debug_abbrev  0x0000000000018bf8       0x76 c:/pspsdk/bin/../lib/gcc/psp/4.3.5/../../../../psp/lib\libc.a(lib_a-isdigit.o)
 .debug_abbrev  0x0000000000018c6e       0x8c c:/pspsdk/bin/../lib/gcc/psp/4.3.5/../../../../psp/lib\libc.a(lib_a-iswspace.o)
 .debug_abbrev  0x0000000000018cfa      0x245 c:/pspsdk/bin/../lib/gcc/psp/4.3.5/../../../../psp/lib\libc.a(lib_a-locale.o)
 .debug_abbrev  0x0000000000018f3f      0x19a c:/pspsdk/bin/../lib/gcc/psp/4.3.5/../../../../psp/lib\libc.a(lib_a-lseekr.o)
 .debug_abbrev  0x00000000000190d9      0x19c c:/pspsdk/bin/../lib/gcc/psp/4.3.5/../../../../psp/lib\libc.a(lib_a-mbrtowc.o)
 .debug_abbrev  0x0000000000019275      0x1c5 c:/pspsdk/bin/../lib/gcc/psp/4.3.5/../../../../psp/lib\libc.a(lib_a-mbtowc_r.o)
 .debug_abbrev  0x000000000001943a      0x35f c:/pspsdk/bin/../lib/gcc/psp/4.3.5/../../../../psp/lib\libc.a(lib_a-mprec.o)
 .debug_abbrev  0x0000000000019799      0x18b c:/pspsdk/bin/../lib/gcc/psp/4.3.5/../../../../psp/lib\libc.a(lib_a-readr.o)
 .debug_abbrev  0x0000000000019924       0xae c:/pspsdk/bin/../lib/gcc/psp/4.3.5/../../../../psp/lib\libc.a(lib_a-sccl.o)
 .debug_abbrev  0x00000000000199d2       0x79 c:/pspsdk/bin/../lib/gcc/psp/4.3.5/../../../../psp/lib\libc.a(lib_a-sf_nan.o)
 .debug_abbrev  0x0000000000019a4b      0x17c c:/pspsdk/bin/../lib/gcc/psp/4.3.5/../../../../psp/lib\libc.a(lib_a-strdup.o)
 .debug_abbrev  0x0000000000019bc7      0x196 c:/pspsdk/bin/../lib/gcc/psp/4.3.5/../../../../psp/lib\libc.a(lib_a-strdup_r.o)
 .debug_abbrev  0x0000000000019d5d      0x19a c:/pspsdk/bin/../lib/gcc/psp/4.3.5/../../../../psp/lib\libc.a(lib_a-strtoll_r.o)
 .debug_abbrev  0x0000000000019ef7      0x1f2 c:/pspsdk/bin/../lib/gcc/psp/4.3.5/../../../../psp/lib\libc.a(lib_a-strtoul.o)
 .debug_abbrev  0x000000000001a0e9      0x198 c:/pspsdk/bin/../lib/gcc/psp/4.3.5/../../../../psp/lib\libc.a(lib_a-strtoull_r.o)
 .debug_abbrev  0x000000000001a281      0x274 c:/pspsdk/bin/../lib/gcc/psp/4.3.5/../../../../psp/lib\libc.a(lib_a-svfiprintf.o)
 .debug_abbrev  0x000000000001a4f5      0x22a c:/pspsdk/bin/../lib/gcc/psp/4.3.5/../../../../psp/lib\libc.a(lib_a-svfiscanf.o)
 .debug_abbrev  0x000000000001a71f      0x17c c:/pspsdk/bin/../lib/gcc/psp/4.3.5/../../../../psp/lib\libc.a(lib_a-sysstat.o)
 .debug_abbrev  0x000000000001a89b      0x1ab c:/pspsdk/bin/../lib/gcc/psp/4.3.5/../../../../psp/lib\libc.a(lib_a-wcrtomb.o)
 .debug_abbrev  0x000000000001aa46      0x1d2 c:/pspsdk/bin/../lib/gcc/psp/4.3.5/../../../../psp/lib\libc.a(lib_a-wctomb_r.o)
 .debug_abbrev  0x000000000001ac18      0x1a6 c:/pspsdk/bin/../lib/gcc/psp/4.3.5/../../../../psp/lib\libc.a(pipe.o)
 .debug_abbrev  0x000000000001adbe      0x1c5 c:/pspsdk/bin/../lib/gcc/psp/4.3.5/../../../../psp/lib\libc.a(pspcwd.o)
 .debug_abbrev  0x000000000001af83       0x5c c:/pspsdk/bin/../lib/gcc/psp/4.3.5/../../../../psp/lib\libc.a(__psp_set_errno.o)
 .debug_abbrev  0x000000000001afdf       0xe5 c:/pspsdk/bin/../lib/gcc/psp/4.3.5/../../../../psp/lib\libc.a(_close.o)
 .debug_abbrev  0x000000000001b0c4      0x11d c:/pspsdk/bin/../lib/gcc/psp/4.3.5/../../../../psp/lib\libc.a(_fcntl.o)
 .debug_abbrev  0x000000000001b1e1       0xca c:/pspsdk/bin/../lib/gcc/psp/4.3.5/../../../../psp/lib\libc.a(_gettimeofday.o)
 .debug_abbrev  0x000000000001b2ab       0xe5 c:/pspsdk/bin/../lib/gcc/psp/4.3.5/../../../../psp/lib\libc.a(_lseek.o)
 .debug_abbrev  0x000000000001b390       0xec c:/pspsdk/bin/../lib/gcc/psp/4.3.5/../../../../psp/lib\libc.a(_read.o)
 .debug_abbrev  0x000000000001b47c       0xbc c:/pspsdk/bin/../lib/gcc/psp/4.3.5/../../../../psp/lib\libc.a(chdir.o)
 .debug_abbrev  0x000000000001b538      0x19a c:/pspsdk/bin/../lib/gcc/psp/4.3.5/../../../../psp/lib\libc.a(lib_a-statr.o)
 .debug_abbrev  0x000000000001b6d2      0x145 c:/pspsdk/bin/../lib/gcc/psp/4.3.5/../../../../psp/lib\libc.a(setsockopt.o)
 .debug_abbrev  0x000000000001b817      0x1ab c:/pspsdk/bin/../lib/gcc/psp/4.3.5/../../../../psp/lib\libc.a(_stat.o)
 .debug_abbrev  0x000000000001b9c2      0x14f c:/pspsdk/bin/../lib/gcc/psp/4.3.5/../../../../psp/lib\libc.a(lib_a-mktime.o)
 .debug_abbrev  0x000000000001bb11       0xb2 c:/pspsdk/bin/../lib/gcc/psp/4.3.5/../../../../psp/lib\libc.a(lib_a-div.o)
 .debug_abbrev  0x000000000001bbc3       0x69 c:/pspsdk/bin/../lib/gcc/psp/4.3.5\libgcc.a(_fixunsdfsi.o)
 .debug_abbrev  0x000000000001bc2c      0x180 c:/pspsdk/bin/../lib/gcc/psp/4.3.5\libgcc.a(_udivdi3.o)
 .debug_abbrev  0x000000000001bdac      0x18f c:/pspsdk/bin/../lib/gcc/psp/4.3.5\libgcc.a(_umoddi3.o)
 .debug_abbrev  0x000000000001bf3b      0x134 c:/pspsdk/bin/../lib/gcc/psp/4.3.5\libgcc.a(_sf_to_df.o)
 .debug_abbrev  0x000000000001c06f      0x1df c:/pspsdk/bin/../lib/gcc/psp/4.3.5\libgcc.a(_addsub_df.o)
 .debug_abbrev  0x000000000001c24e      0x20b c:/pspsdk/bin/../lib/gcc/psp/4.3.5\libgcc.a(_mul_df.o)
 .debug_abbrev  0x000000000001c459      0x1fb c:/pspsdk/bin/../lib/gcc/psp/4.3.5\libgcc.a(_div_df.o)
 .debug_abbrev  0x000000000001c654      0x15d c:/pspsdk/bin/../lib/gcc/psp/4.3.5\libgcc.a(_eq_df.o)
 .debug_abbrev  0x000000000001c7b1      0x15d c:/pspsdk/bin/../lib/gcc/psp/4.3.5\libgcc.a(_ne_df.o)
 .debug_abbrev  0x000000000001c90e      0x15d c:/pspsdk/bin/../lib/gcc/psp/4.3.5\libgcc.a(_gt_df.o)
 .debug_abbrev  0x000000000001ca6b      0x15d c:/pspsdk/bin/../lib/gcc/psp/4.3.5\libgcc.a(_ge_df.o)
 .debug_abbrev  0x000000000001cbc8      0x15d c:/pspsdk/bin/../lib/gcc/psp/4.3.5\libgcc.a(_lt_df.o)
 .debug_abbrev  0x000000000001cd25      0x15d c:/pspsdk/bin/../lib/gcc/psp/4.3.5\libgcc.a(_le_df.o)
 .debug_abbrev  0x000000000001ce82      0x14b c:/pspsdk/bin/../lib/gcc/psp/4.3.5\libgcc.a(_si_to_df.o)
 .debug_abbrev  0x000000000001cfcd      0x182 c:/pspsdk/bin/../lib/gcc/psp/4.3.5\libgcc.a(_df_to_si.o)
 .debug_abbrev  0x000000000001d14f      0x10c c:/pspsdk/bin/../lib/gcc/psp/4.3.5\libgcc.a(_make_df.o)
 .debug_abbrev  0x000000000001d25b      0x143 c:/pspsdk/bin/../lib/gcc/psp/4.3.5\libgcc.a(_df_to_sf.o)
 .debug_abbrev  0x000000000001d39e       0xc3 c:/pspsdk/bin/../lib/gcc/psp/4.3.5\libgcc.a(_thenan_df.o)
 .debug_abbrev  0x000000000001d461      0x161 c:/pspsdk/bin/../lib/gcc/psp/4.3.5\libgcc.a(_usi_to_df.o)
 .debug_abbrev  0x000000000001d5c2      0x57c c:/pspsdk/bin/../lib/gcc/psp/4.3.5\libgcc.a(unwind-dw2.o)
 .debug_abbrev  0x000000000001db3e      0x460 c:/pspsdk/bin/../lib/gcc/psp/4.3.5\libgcc.a(unwind-dw2-fde.o)
 .debug_abbrev  0x000000000001df9e       0xd3 c:/pspsdk/bin/../lib/gcc/psp/4.3.5\libgcc.a(_ucmpdi2.o)
 .debug_abbrev  0x000000000001e071       0x6a c:/pspsdk/bin/../lib/gcc/psp/4.3.5\libgcc.a(_clz.o)
 .debug_abbrev  0x000000000001e0db      0x166 c:/pspsdk/bin/../lib/gcc/psp/4.3.5\libgcc.a(_unpack_sf.o)
 .debug_abbrev  0x000000000001e241      0x10c c:/pspsdk/bin/../lib/gcc/psp/4.3.5\libgcc.a(_make_sf.o)
 .debug_abbrev  0x000000000001e34d      0x1c3 c:/pspsdk/bin/../lib/gcc/psp/4.3.5\libgcc.a(_pack_df.o)
 .debug_abbrev  0x000000000001e510      0x157 c:/pspsdk/bin/../lib/gcc/psp/4.3.5\libgcc.a(_unpack_df.o)
 .debug_abbrev  0x000000000001e667      0x14d c:/pspsdk/bin/../lib/gcc/psp/4.3.5\libgcc.a(_fpcmp_parts_df.o)
 .debug_abbrev  0x000000000001e7b4      0x1c5 c:/pspsdk/bin/../lib/gcc/psp/4.3.5\libgcc.a(_pack_sf.o)

.debug_line     0x0000000000000000    0x234f7
 *(.debug_line)
 .debug_line    0x0000000000000000       0xe8 c:/pspsdk/bin/../lib/gcc/psp/4.3.5/../../../../psp/lib/crt0.o
 .debug_line    0x00000000000000e8      0x790 psp/sound.o
 .debug_line    0x0000000000000878      0x8aa psp/gym/gym.o
 .debug_line    0x0000000000001122      0x1f4 psp/gym/gym_play.o
 .debug_line    0x0000000000001316      0x934 psp/vgm/In_vgm.o
 .debug_line    0x0000000000001c4a      0x367 c:/pspsdk/bin/../lib/gcc/psp/4.3.5/../../../../psp/lib\libosl.a(oslib.o)
 .debug_line    0x0000000000001fb1      0x314 c:/pspsdk/bin/../lib/gcc/psp/4.3.5/../../../../psp/lib\libosl.a(drawing.o)
 .debug_line    0x00000000000022c5      0x382 c:/pspsdk/bin/../lib/gcc/psp/4.3.5/../../../../psp/lib\libosl.a(image.o)
 .debug_line    0x0000000000002647      0x119 c:/pspsdk/bin/../lib/gcc/psp/4.3.5/../../../../psp/lib\libosl.a(palette.o)
 .debug_line    0x0000000000002760      0x18e c:/pspsdk/bin/../lib/gcc/psp/4.3.5/../../../../psp/lib\libosl.a(shape.o)
 .debug_line    0x00000000000028ee      0x204 c:/pspsdk/bin/../lib/gcc/psp/4.3.5/../../../../psp/lib\libosl.a(messagebox.o)
 .debug_line    0x0000000000002af2      0x189 c:/pspsdk/bin/../lib/gcc/psp/4.3.5/../../../../psp/lib\libosl.a(keys.o)
 .debug_line    0x0000000000002c7b       0x81 c:/pspsdk/bin/../lib/gcc/psp/4.3.5/../../../../psp/lib\libosl.a(vfpu.o)
 .debug_line    0x0000000000002cfc      0x4d9 c:/pspsdk/bin/../lib/gcc/psp/4.3.5/../../../../psp/lib\libosl.a(text.o)
 .debug_line    0x00000000000031d5      0x1ba c:/pspsdk/bin/../lib/gcc/psp/4.3.5/../../../../psp/lib\libosl.a(vram_mgr.o)
 .debug_line    0x000000000000338f       0x35 c:/pspsdk/bin/../lib/gcc/psp/4.3.5/../../../../psp/lib\libosl.a(stub.o)
 .debug_line    0x00000000000033c4      0x58b c:/pspsdk/bin/../lib/gcc/psp/4.3.5/../../../../psp/lib\libosl.a(audio.o)
 .debug_line    0x000000000000394f      0x242 c:/pspsdk/bin/../lib/gcc/psp/4.3.5/../../../../psp/lib\libosl.a(bgm.o)
 .debug_line    0x0000000000003b91      0x122 c:/pspsdk/bin/../lib/gcc/psp/4.3.5/../../../../psp/lib\libosl.a(usb.o)
 .debug_line    0x0000000000003cb3      0x277 c:/pspsdk/bin/../lib/gcc/psp/4.3.5/../../../../psp/lib\libosl.a(VirtualFile.o)
 .debug_line    0x0000000000003f2a       0xee c:/pspsdk/bin/../lib/gcc/psp/4.3.5/../../../../psp/lib\libosl.a(vfsFile.o)
 .debug_line    0x0000000000004018      0x166 c:/pspsdk/bin/../lib/gcc/psp/4.3.5/../../../../psp/lib\libosl.a(oslDrawImage.o)
 .debug_line    0x000000000000417e       0xfe c:/pspsdk/bin/../lib/gcc/psp/4.3.5/../../../../psp/lib\libosl.a(oslDrawImageSimple.o)
 .debug_line    0x000000000000427c       0xe6 c:/pspsdk/bin/../lib/gcc/psp/4.3.5/../../../../psp/lib\libosl.a(oslLockImage.o)
 .debug_line    0x0000000000004362      0x18a c:/pspsdk/bin/../lib/gcc/psp/4.3.5/../../../../psp/lib\libosl.a(oslSwizzleImage.o)
 .debug_line    0x00000000000044ec       0xe4 c:/pspsdk/bin/../lib/gcc/psp/4.3.5/../../../../psp/lib\libosl.a(oslSetDrawBuffer.o)
 .debug_line    0x00000000000045d0      0x201 c:/pspsdk/bin/../lib/gcc/psp/4.3.5/../../../../psp/lib\libosl.a(oslWriteImageFilePNG.o)
 .debug_line    0x00000000000047d1      0x117 c:/pspsdk/bin/../lib/gcc/psp/4.3.5/../../../../psp/lib\libosl.a(oslLoadImageFile.o)
 .debug_line    0x00000000000048e8      0x8fa c:/pspsdk/bin/../lib/gcc/psp/4.3.5/../../../../psp/lib\libosl.a(intraFont.o)
 .debug_line    0x00000000000051e2      0x4e4 c:/pspsdk/bin/../lib/gcc/psp/4.3.5/../../../../psp/lib\libosl.a(libccc.o)
 .debug_line    0x00000000000056c6       0xfe c:/pspsdk/bin/../lib/gcc/psp/4.3.5/../../../../psp/lib\libosl.a(oslHandleLoadNoFailError.o)
 .debug_line    0x00000000000057c4      0x2d3 c:/pspsdk/bin/../lib/gcc/psp/4.3.5/../../../../psp/lib\libosl.a(oslLoadImageFilePNG.o)
 .debug_line    0x0000000000005a97      0x1f5 c:/pspsdk/bin/../lib/gcc/psp/4.3.5/../../../../psp/lib\libosl.a(oslLoadImageFileJPG.o)
 .debug_line    0x0000000000005c8c      0x26f c:/pspsdk/bin/../lib/gcc/psp/4.3.5/../../../../psp/lib\libosl.a(oslLoadImageFileGIF.o)
 .debug_line    0x0000000000005efb      0x135 c:/pspsdk/bin/../lib/gcc/psp/4.3.5/../../../../psp/lib\libosl.a(oslConvertImageTo.o)
 .debug_line    0x0000000000006030       0xf2 c:/pspsdk/bin/../lib/gcc/psp/4.3.5/../../../../psp/lib\libosl.a(oslSetImagePixel.o)
 .debug_line    0x0000000000006122       0xf0 c:/pspsdk/bin/../lib/gcc/psp/4.3.5/../../../../psp/lib\libosl.a(oslGetImagePixel.o)
 .debug_line    0x0000000000006212      0x4d4 c:/pspsdk/bin/../lib/gcc/psp/4.3.5/../../../../psp/lib\libosl.a(dgif_lib.o)
 .debug_line    0x00000000000066e6       0x3e c:/pspsdk/bin/../lib/gcc/psp/4.3.5/../../../../psp/lib\libosl.a(gif_err.o)
 .debug_line    0x0000000000006724      0x194 c:/pspsdk/bin/../lib/gcc/psp/4.3.5/../../../../psp/lib\libosl.a(gifalloc.o)
 .debug_line    0x00000000000068b8      0x1d9 c:/pspsdk/bin/../lib/gcc/psp/4.3.5/../../../../psp/lib\libjpeg.a(jdapimin.o)
 .debug_line    0x0000000000006a91      0x1a3 c:/pspsdk/bin/../lib/gcc/psp/4.3.5/../../../../psp/lib\libjpeg.a(jdapistd.o)
 .debug_line    0x0000000000006c34      0x1fb c:/pspsdk/bin/../lib/gcc/psp/4.3.5/../../../../psp/lib\libjpeg.a(jdatasrc.o)
 .debug_line    0x0000000000006e2f      0x21b c:/pspsdk/bin/../lib/gcc/psp/4.3.5/../../../../psp/lib\libjpeg.a(jdmaster.o)
 .debug_line    0x000000000000704a      0x317 c:/pspsdk/bin/../lib/gcc/psp/4.3.5/../../../../psp/lib\libjpeg.a(jdinput.o)
 .debug_line    0x0000000000007361      0x6e9 c:/pspsdk/bin/../lib/gcc/psp/4.3.5/../../../../psp/lib\libjpeg.a(jdmarker.o)
 .debug_line    0x0000000000007a4a      0x658 c:/pspsdk/bin/../lib/gcc/psp/4.3.5/../../../../psp/lib\libjpeg.a(jdhuff.o)
 .debug_line    0x00000000000080a2      0x232 c:/pspsdk/bin/../lib/gcc/psp/4.3.5/../../../../psp/lib\libjpeg.a(jdmainct.o)
 .debug_line    0x00000000000082d4      0x43e c:/pspsdk/bin/../lib/gcc/psp/4.3.5/../../../../psp/lib\libjpeg.a(jdcoefct.o)
 .debug_line    0x0000000000008712      0x1ad c:/pspsdk/bin/../lib/gcc/psp/4.3.5/../../../../psp/lib\libjpeg.a(jdpostct.o)
 .debug_line    0x00000000000088bf      0x1fc c:/pspsdk/bin/../lib/gcc/psp/4.3.5/../../../../psp/lib\libjpeg.a(jddctmgr.o)
 .debug_line    0x0000000000008abb      0x1e7 c:/pspsdk/bin/../lib/gcc/psp/4.3.5/../../../../psp/lib\libjpeg.a(jidctfst.o)
 .debug_line    0x0000000000008ca2      0x207 c:/pspsdk/bin/../lib/gcc/psp/4.3.5/../../../../psp/lib\libjpeg.a(jidctflt.o)
 .debug_line    0x0000000000008ea9     0x29f3 c:/pspsdk/bin/../lib/gcc/psp/4.3.5/../../../../psp/lib\libjpeg.a(jidctint.o)
 .debug_line    0x000000000000b89c      0x1d3 c:/pspsdk/bin/../lib/gcc/psp/4.3.5/../../../../psp/lib\libjpeg.a(jdsample.o)
 .debug_line    0x000000000000ba6f      0x216 c:/pspsdk/bin/../lib/gcc/psp/4.3.5/../../../../psp/lib\libjpeg.a(jdcolor.o)
 .debug_line    0x000000000000bc85      0x3cc c:/pspsdk/bin/../lib/gcc/psp/4.3.5/../../../../psp/lib\libjpeg.a(jquant1.o)
 .debug_line    0x000000000000c051      0x5e6 c:/pspsdk/bin/../lib/gcc/psp/4.3.5/../../../../psp/lib\libjpeg.a(jquant2.o)
 .debug_line    0x000000000000c637      0x263 c:/pspsdk/bin/../lib/gcc/psp/4.3.5/../../../../psp/lib\libjpeg.a(jdmerge.o)
 .debug_line    0x000000000000c89a       0xc8 c:/pspsdk/bin/../lib/gcc/psp/4.3.5/../../../../psp/lib\libjpeg.a(jcomapi.o)
 .debug_line    0x000000000000c962       0xb7 c:/pspsdk/bin/../lib/gcc/psp/4.3.5/../../../../psp/lib\libjpeg.a(jutils.o)
 .debug_line    0x000000000000ca19      0x180 c:/pspsdk/bin/../lib/gcc/psp/4.3.5/../../../../psp/lib\libjpeg.a(jerror.o)
 .debug_line    0x000000000000cb99      0x4cc c:/pspsdk/bin/../lib/gcc/psp/4.3.5/../../../../psp/lib\libjpeg.a(jmemmgr.o)
 .debug_line    0x000000000000d065      0x18a c:/pspsdk/bin/../lib/gcc/psp/4.3.5/../../../../psp/lib\libjpeg.a(jmemnobs.o)
 .debug_line    0x000000000000d1ef      0x45a c:/pspsdk/bin/../lib/gcc/psp/4.3.5/../../../../psp/lib\libjpeg.a(jdarith.o)
 .debug_line    0x000000000000d649       0x35 c:/pspsdk/bin/../lib/gcc/psp/4.3.5/../../../../psp/lib\libjpeg.a(jaricom.o)
 .debug_line    0x000000000000d67e       0xce c:/pspsdk/psp/sdk/lib\libpspsdk.a(loadmodule.o)
 .debug_line    0x000000000000d74c       0x57 c:/pspsdk/psp/sdk/lib\libpspgu.a(sceGuAlphaFunc.o)
 .debug_line    0x000000000000d7a3       0x63 c:/pspsdk/psp/sdk/lib\libpspgu.a(sceGuAmbientColor.o)
 .debug_line    0x000000000000d806       0x67 c:/pspsdk/psp/sdk/lib\libpspgu.a(sceGuBlendFunc.o)
 .debug_line    0x000000000000d86d      0x13d c:/pspsdk/psp/sdk/lib\libpspgu.a(sceGuClear.o)
 .debug_line    0x000000000000d9aa       0x6a c:/pspsdk/psp/sdk/lib\libpspgu.a(sceGuClearColor.o)
 .debug_line    0x000000000000da14       0x61 c:/pspsdk/psp/sdk/lib\libpspgu.a(sceGuClutLoad.o)
 .debug_line    0x000000000000da75       0x56 c:/pspsdk/psp/sdk/lib\libpspgu.a(sceGuClutMode.o)
 .debug_line    0x000000000000dacb       0x61 c:/pspsdk/psp/sdk/lib\libpspgu.a(sceGuColorFunc.o)
 .debug_line    0x000000000000db2c       0x73 c:/pspsdk/psp/sdk/lib\libpspgu.a(sceGuDepthBuffer.o)
 .debug_line    0x000000000000db9f       0x57 c:/pspsdk/psp/sdk/lib\libpspgu.a(sceGuDepthFunc.o)
 .debug_line    0x000000000000dbf6       0x8d c:/pspsdk/psp/sdk/lib\libpspgu.a(sceGuDepthRange.o)
 .debug_line    0x000000000000dc83      0x102 c:/pspsdk/psp/sdk/lib\libpspgu.a(sceGuDisable.o)
 .debug_line    0x000000000000dd85       0xbb c:/pspsdk/psp/sdk/lib\libpspgu.a(sceGuDispBuffer.o)
 .debug_line    0x000000000000de40       0xa1 c:/pspsdk/psp/sdk/lib\libpspgu.a(sceGuDisplay.o)
 .debug_line    0x000000000000dee1       0x69 c:/pspsdk/psp/sdk/lib\libpspgu.a(sceGuDrawArray.o)
 .debug_line    0x000000000000df4a       0x80 c:/pspsdk/psp/sdk/lib\libpspgu.a(sceGuDrawBuffer.o)
 .debug_line    0x000000000000dfca      0x106 c:/pspsdk/psp/sdk/lib\libpspgu.a(sceGuEnable.o)
 .debug_line    0x000000000000e0d0       0xa3 c:/pspsdk/psp/sdk/lib\libpspgu.a(sceGuFinish.o)
 .debug_line    0x000000000000e173       0x59 c:/pspsdk/psp/sdk/lib\libpspgu.a(sceGuFrontFace.o)
 .debug_line    0x000000000000e1cc       0x86 c:/pspsdk/psp/sdk/lib\libpspgu.a(sceGuGetMemory.o)
 .debug_line    0x000000000000e252       0xdb c:/pspsdk/psp/sdk/lib\libpspgu.a(sceGuInit.o)
 .debug_line    0x000000000000e32d       0x5c c:/pspsdk/psp/sdk/lib\libpspgu.a(sceGuOffset.o)
 .debug_line    0x000000000000e389       0x7b c:/pspsdk/psp/sdk/lib\libpspgu.a(sceGuScissor.o)
 .debug_line    0x000000000000e404       0x5a c:/pspsdk/psp/sdk/lib\libpspgu.a(sceGuShadeModel.o)
 .debug_line    0x000000000000e45e       0xcd c:/pspsdk/psp/sdk/lib\libpspgu.a(sceGuStart.o)
 .debug_line    0x000000000000e52b       0x59 c:/pspsdk/psp/sdk/lib\libpspgu.a(sceGuStencilFunc.o)
 .debug_line    0x000000000000e584       0x57 c:/pspsdk/psp/sdk/lib\libpspgu.a(sceGuStencilOp.o)
 .debug_line    0x000000000000e5db       0x90 c:/pspsdk/psp/sdk/lib\libpspgu.a(sceGuSwapBuffers.o)
 .debug_line    0x000000000000e66b       0x67 c:/pspsdk/psp/sdk/lib\libpspgu.a(sceGuSync.o)
 .debug_line    0x000000000000e6d2       0x73 c:/pspsdk/psp/sdk/lib\libpspgu.a(sceGuTerm.o)
 .debug_line    0x000000000000e745       0x59 c:/pspsdk/psp/sdk/lib\libpspgu.a(sceGuTexEnvColor.o)
 .debug_line    0x000000000000e79e       0x57 c:/pspsdk/psp/sdk/lib\libpspgu.a(sceGuTexFilter.o)
 .debug_line    0x000000000000e7f5       0x6c c:/pspsdk/psp/sdk/lib\libpspgu.a(sceGuTexFunc.o)
 .debug_line    0x000000000000e861       0x79 c:/pspsdk/psp/sdk/lib\libpspgu.a(sceGuTexImage.o)
 .debug_line    0x000000000000e8da       0x73 c:/pspsdk/psp/sdk/lib\libpspgu.a(sceGuTexMode.o)
 .debug_line    0x000000000000e94d       0x5b c:/pspsdk/psp/sdk/lib\libpspgu.a(sceGuTexOffset.o)
 .debug_line    0x000000000000e9a8       0x5a c:/pspsdk/psp/sdk/lib\libpspgu.a(sceGuTexScale.o)
 .debug_line    0x000000000000ea02       0x55 c:/pspsdk/psp/sdk/lib\libpspgu.a(sceGuTexWrap.o)
 .debug_line    0x000000000000ea57       0x60 c:/pspsdk/psp/sdk/lib\libpspgu.a(sceGuViewport.o)
 .debug_line    0x000000000000eab7       0x84 c:/pspsdk/psp/sdk/lib\libpspgu.a(sendCommand.o)
 .debug_line    0x000000000000eb3b       0x70 c:/pspsdk/psp/sdk/lib\libpspgu.a(callbackFin.o)
 .debug_line    0x000000000000ebab       0x7c c:/pspsdk/psp/sdk/lib\libpspgu.a(callbackSig.o)
 .debug_line    0x000000000000ec27       0x5f c:/pspsdk/psp/sdk/lib\libpspgu.a(guInternal.o)
 .debug_line    0x000000000000ec86       0xb2 c:/pspsdk/psp/sdk/lib\libpspgu.a(resetValues.o)
 .debug_line    0x000000000000ed38       0x5b c:/pspsdk/psp/sdk/lib\libpspgu.a(sceGuColorMaterial.o)
 .debug_line    0x000000000000ed93       0x59 c:/pspsdk/psp/sdk/lib\libpspgu.a(sceGuPatchDivide.o)
 .debug_line    0x000000000000edec       0x93 c:/pspsdk/psp/sdk/lib\libpspgu.a(sceGuSetDither.o)
 .debug_line    0x000000000000ee7f       0x56 c:/pspsdk/psp/sdk/lib\libpspgu.a(sceGuSpecular.o)
 .debug_line    0x000000000000eed5       0x56 c:/pspsdk/psp/sdk/lib\libpspgu.a(sceGuTexFlush.o)
 .debug_line    0x000000000000ef2b      0x163 c:/pspsdk/bin/../lib/gcc/psp/4.3.5/../../../../psp/lib\libstdc++.a(del_op.o)
 .debug_line    0x000000000000f08e       0xd4 c:/pspsdk/bin/../lib/gcc/psp/4.3.5/../../../../psp/lib\libstdc++.a(del_opv.o)
 .debug_line    0x000000000000f162      0x1e7 c:/pspsdk/bin/../lib/gcc/psp/4.3.5/../../../../psp/lib\libstdc++.a(new_op.o)
 .debug_line    0x000000000000f349      0x12b c:/pspsdk/bin/../lib/gcc/psp/4.3.5/../../../../psp/lib\libstdc++.a(new_opv.o)
 .debug_line    0x000000000000f474      0x312 c:/pspsdk/bin/../lib/gcc/psp/4.3.5/../../../../psp/lib\libstdc++.a(eh_alloc.o)
 .debug_line    0x000000000000f786      0x1fa c:/pspsdk/bin/../lib/gcc/psp/4.3.5/../../../../psp/lib\libstdc++.a(eh_globals.o)
 .debug_line    0x000000000000f980      0x5b2 c:/pspsdk/bin/../lib/gcc/psp/4.3.5/../../../../psp/lib\libstdc++.a(eh_personality.o)
 .debug_line    0x000000000000ff32      0x238 c:/pspsdk/bin/../lib/gcc/psp/4.3.5/../../../../psp/lib\libstdc++.a(eh_terminate.o)
 .debug_line    0x000000000001016a      0x189 c:/pspsdk/bin/../lib/gcc/psp/4.3.5/../../../../psp/lib\libstdc++.a(eh_term_handler.o)
 .debug_line    0x00000000000102f3      0x1fa c:/pspsdk/bin/../lib/gcc/psp/4.3.5/../../../../psp/lib\libstdc++.a(eh_throw.o)
 .debug_line    0x00000000000104ed      0x189 c:/pspsdk/bin/../lib/gcc/psp/4.3.5/../../../../psp/lib\libstdc++.a(eh_unex_handler.o)
 .debug_line    0x0000000000010676      0x11f c:/pspsdk/bin/../lib/gcc/psp/4.3.5/../../../../psp/lib\libstdc++.a(new_handler.o)
 .debug_line    0x0000000000010795      0x21c c:/pspsdk/bin/../lib/gcc/psp/4.3.5/../../../../psp/lib\libstdc++.a(si_class_type_info.o)
 .debug_line    0x00000000000109b1      0x1a2 c:/pspsdk/bin/../lib/gcc/psp/4.3.5/../../../../psp/lib\libstdc++.a(tinfo.o)
 .debug_line    0x0000000000010b53      0x26f c:/pspsdk/bin/../lib/gcc/psp/4.3.5/../../../../psp/lib\libstdc++.a(vterminate.o)
 .debug_line    0x0000000000010dc2      0x243 c:/pspsdk/bin/../lib/gcc/psp/4.3.5/../../../../psp/lib\libstdc++.a(class_type_info.o)
 .debug_line    0x0000000000011005      0x1e3 c:/pspsdk/bin/../lib/gcc/psp/4.3.5/../../../../psp/lib\libstdc++.a(eh_call.o)
 .debug_line    0x00000000000111e8      0x263 c:/pspsdk/bin/../lib/gcc/psp/4.3.5/../../../../psp/lib\libstdc++.a(eh_catch.o)
 .debug_line    0x000000000001144b      0x1ba c:/pspsdk/bin/../lib/gcc/psp/4.3.5/../../../../psp/lib\libstdc++.a(eh_exception.o)
 .debug_line    0x0000000000011605      0x141 c:/pspsdk/bin/../lib/gcc/psp/4.3.5/../../../../psp/lib\libstdc++.a(eh_type.o)
 .debug_line    0x0000000000011746      0x191 c:/pspsdk/bin/../lib/gcc/psp/4.3.5/../../../../psp/lib\libstdc++.a(pure.o)
 .debug_line    0x00000000000118d7       0x7e c:/pspsdk/bin/../lib/gcc/psp/4.3.5/../../../../psp/lib\libm.a(lib_a-s_ceil.o)
 .debug_line    0x0000000000011955       0x89 c:/pspsdk/bin/../lib/gcc/psp/4.3.5/../../../../psp/lib\libm.a(lib_a-s_floor.o)
 .debug_line    0x00000000000119de       0x67 c:/pspsdk/bin/../lib/gcc/psp/4.3.5/../../../../psp/lib\libm.a(lib_a-s_log.o)
 .debug_line    0x0000000000011a45       0x6a c:/pspsdk/bin/../lib/gcc/psp/4.3.5/../../../../psp/lib\libm.a(lib_a-s_log10.o)
 .debug_line    0x0000000000011aaf       0xda c:/pspsdk/bin/../lib/gcc/psp/4.3.5/../../../../psp/lib\libm.a(lib_a-s_logarithm.o)
 .debug_line    0x0000000000011b89       0x68 c:/pspsdk/bin/../lib/gcc/psp/4.3.5/../../../../psp/lib\libm.a(lib_a-s_mathcnst.o)
 .debug_line    0x0000000000011bf1      0x116 c:/pspsdk/bin/../lib/gcc/psp/4.3.5/../../../../psp/lib\libm.a(lib_a-s_modf.o)
 .debug_line    0x0000000000011d07      0x197 c:/pspsdk/bin/../lib/gcc/psp/4.3.5/../../../../psp/lib\libm.a(lib_a-s_pow.o)
 .debug_line    0x0000000000011e9e       0x67 c:/pspsdk/bin/../lib/gcc/psp/4.3.5/../../../../psp/lib\libm.a(lib_a-s_sin.o)
 .debug_line    0x0000000000011f05       0xd3 c:/pspsdk/bin/../lib/gcc/psp/4.3.5/../../../../psp/lib\libm.a(lib_a-s_sine.o)
 .debug_line    0x0000000000011fd8       0xd0 c:/pspsdk/bin/../lib/gcc/psp/4.3.5/../../../../psp/lib\libm.a(lib_a-s_sqrt.o)
 .debug_line    0x00000000000120a8       0xd9 c:/pspsdk/bin/../lib/gcc/psp/4.3.5/../../../../psp/lib\libm.a(lib_a-s_exp.o)
 .debug_line    0x0000000000012181       0x88 c:/pspsdk/bin/../lib/gcc/psp/4.3.5/../../../../psp/lib\libm.a(lib_a-s_fabs.o)
 .debug_line    0x0000000000012209       0xe6 c:/pspsdk/bin/../lib/gcc/psp/4.3.5/../../../../psp/lib\libm.a(lib_a-s_fpclassify.o)
 .debug_line    0x00000000000122ef      0x140 c:/pspsdk/bin/../lib/gcc/psp/4.3.5/../../../../psp/lib\libm.a(lib_a-s_frexp.o)
 .debug_line    0x000000000001242f      0x11c c:/pspsdk/bin/../lib/gcc/psp/4.3.5/../../../../psp/lib\libm.a(lib_a-s_ispos.o)
 .debug_line    0x000000000001254b      0x15e c:/pspsdk/bin/../lib/gcc/psp/4.3.5/../../../../psp/lib\libm.a(lib_a-s_ldexp.o)
 .debug_line    0x00000000000126a9      0x13e c:/pspsdk/bin/../lib/gcc/psp/4.3.5/../../../../psp/lib\libm.a(lib_a-s_numtest.o)
 .debug_line    0x00000000000127e7      0x192 c:/pspsdk/bin/../lib/gcc/psp/4.3.5/../../../../psp/lib\libc.a(fprintf.o)
 .debug_line    0x0000000000012979       0x69 c:/pspsdk/bin/../lib/gcc/psp/4.3.5/../../../../psp/lib\libc.a(lib_a-abort.o)
 .debug_line    0x00000000000129e2       0x75 c:/pspsdk/bin/../lib/gcc/psp/4.3.5/../../../../psp/lib\libc.a(lib_a-atexit.o)
 .debug_line    0x0000000000012a57       0x67 c:/pspsdk/bin/../lib/gcc/psp/4.3.5/../../../../psp/lib\libc.a(lib_a-atof.o)
 .debug_line    0x0000000000012abe      0x122 c:/pspsdk/bin/../lib/gcc/psp/4.3.5/../../../../psp/lib\libc.a(lib_a-atoi.o)
 .debug_line    0x0000000000012be0      0x121 c:/pspsdk/bin/../lib/gcc/psp/4.3.5/../../../../psp/lib\libc.a(lib_a-calloc.o)
 .debug_line    0x0000000000012d01      0x132 c:/pspsdk/bin/../lib/gcc/psp/4.3.5/../../../../psp/lib\libc.a(lib_a-callocr.o)
 .debug_line    0x0000000000012e33       0x58 c:/pspsdk/bin/../lib/gcc/psp/4.3.5/../../../../psp/lib\libc.a(lib_a-ctype_.o)
 .debug_line    0x0000000000012e8b      0x11e c:/pspsdk/bin/../lib/gcc/psp/4.3.5/../../../../psp/lib\libc.a(lib_a-errno.o)
 .debug_line    0x0000000000012fa9      0x125 c:/pspsdk/bin/../lib/gcc/psp/4.3.5/../../../../psp/lib\libc.a(lib_a-exit.o)
 .debug_line    0x00000000000130ce      0x1a8 c:/pspsdk/bin/../lib/gcc/psp/4.3.5/../../../../psp/lib\libc.a(lib_a-fclose.o)
 .debug_line    0x0000000000013276      0x1aa c:/pspsdk/bin/../lib/gcc/psp/4.3.5/../../../../psp/lib\libc.a(lib_a-fdopen.o)
 .debug_line    0x0000000000013420      0x1f9 c:/pspsdk/bin/../lib/gcc/psp/4.3.5/../../../../psp/lib\libc.a(lib_a-fflush.o)
 .debug_line    0x0000000000013619      0x198 c:/pspsdk/bin/../lib/gcc/psp/4.3.5/../../../../psp/lib\libc.a(lib_a-fgetc.o)
 .debug_line    0x00000000000137b1      0x1de c:/pspsdk/bin/../lib/gcc/psp/4.3.5/../../../../psp/lib\libc.a(lib_a-fgets.o)
 .debug_line    0x000000000001398f      0x222 c:/pspsdk/bin/../lib/gcc/psp/4.3.5/../../../../psp/lib\libc.a(lib_a-findfp.o)
 .debug_line    0x0000000000013bb1      0x13b c:/pspsdk/bin/../lib/gcc/psp/4.3.5/../../../../psp/lib\libc.a(lib_a-flags.o)
 .debug_line    0x0000000000013cec      0x256 c:/pspsdk/bin/../lib/gcc/psp/4.3.5/../../../../psp/lib\libc.a(lib_a-fmemopen.o)
 .debug_line    0x0000000000013f42      0x1a2 c:/pspsdk/bin/../lib/gcc/psp/4.3.5/../../../../psp/lib\libc.a(lib_a-fopen.o)
 .debug_line    0x00000000000140e4      0x18b c:/pspsdk/bin/../lib/gcc/psp/4.3.5/../../../../psp/lib\libc.a(lib_a-fputc.o)
 .debug_line    0x000000000001426f      0x19e c:/pspsdk/bin/../lib/gcc/psp/4.3.5/../../../../psp/lib\libc.a(lib_a-fputs.o)
 .debug_line    0x000000000001440d      0x20c c:/pspsdk/bin/../lib/gcc/psp/4.3.5/../../../../psp/lib\libc.a(lib_a-fread.o)
 .debug_line    0x0000000000014619      0x1a8 c:/pspsdk/bin/../lib/gcc/psp/4.3.5/../../../../psp/lib\libc.a(lib_a-freer.o)
 .debug_line    0x00000000000147c1      0x26f c:/pspsdk/bin/../lib/gcc/psp/4.3.5/../../../../psp/lib\libc.a(lib_a-fseek.o)
 .debug_line    0x0000000000014a30      0x196 c:/pspsdk/bin/../lib/gcc/psp/4.3.5/../../../../psp/lib\libc.a(lib_a-fstatr.o)
 .debug_line    0x0000000000014bc6      0x1a4 c:/pspsdk/bin/../lib/gcc/psp/4.3.5/../../../../psp/lib\libc.a(lib_a-ftell.o)
 .debug_line    0x0000000000014d6a      0x25a c:/pspsdk/bin/../lib/gcc/psp/4.3.5/../../../../psp/lib\libc.a(lib_a-fvwrite.o)
 .debug_line    0x0000000000014fc4      0x1b3 c:/pspsdk/bin/../lib/gcc/psp/4.3.5/../../../../psp/lib\libc.a(lib_a-fwalk.o)
 .debug_line    0x0000000000015177      0x1ad c:/pspsdk/bin/../lib/gcc/psp/4.3.5/../../../../psp/lib\libc.a(lib_a-fwrite.o)
 .debug_line    0x0000000000015324      0x129 c:/pspsdk/bin/../lib/gcc/psp/4.3.5/../../../../psp/lib\libc.a(lib_a-getenv.o)
 .debug_line    0x000000000001544d      0x14a c:/pspsdk/bin/../lib/gcc/psp/4.3.5/../../../../psp/lib\libc.a(lib_a-getenv_r.o)
 .debug_line    0x0000000000015597      0x181 c:/pspsdk/bin/../lib/gcc/psp/4.3.5/../../../../psp/lib\libc.a(lib_a-gmtime.o)
 .debug_line    0x0000000000015718      0x11b c:/pspsdk/bin/../lib/gcc/psp/4.3.5/../../../../psp/lib\libc.a(lib_a-gmtime_r.o)
 .debug_line    0x0000000000015833      0x110 c:/pspsdk/bin/../lib/gcc/psp/4.3.5/../../../../psp/lib\libc.a(lib_a-impure.o)
 .debug_line    0x0000000000015943      0x145 c:/pspsdk/bin/../lib/gcc/psp/4.3.5/../../../../psp/lib\libc.a(lib_a-iprintf.o)
 .debug_line    0x0000000000015a88      0x181 c:/pspsdk/bin/../lib/gcc/psp/4.3.5/../../../../psp/lib\libc.a(lib_a-lcltime.o)
 .debug_line    0x0000000000015c09      0x11c c:/pspsdk/bin/../lib/gcc/psp/4.3.5/../../../../psp/lib\libc.a(lib_a-lcltime_r.o)
 .debug_line    0x0000000000015d25      0x1e0 c:/pspsdk/bin/../lib/gcc/psp/4.3.5/../../../../psp/lib\libc.a(lib_a-makebuf.o)
 .debug_line    0x0000000000015f05      0x121 c:/pspsdk/bin/../lib/gcc/psp/4.3.5/../../../../psp/lib\libc.a(lib_a-malign.o)
 .debug_line    0x0000000000016026      0x172 c:/pspsdk/bin/../lib/gcc/psp/4.3.5/../../../../psp/lib\libc.a(lib_a-malignr.o)
 .debug_line    0x0000000000016198      0x126 c:/pspsdk/bin/../lib/gcc/psp/4.3.5/../../../../psp/lib\libc.a(lib_a-malloc.o)
 .debug_line    0x00000000000162be      0x28d c:/pspsdk/bin/../lib/gcc/psp/4.3.5/../../../../psp/lib\libc.a(lib_a-mallocr.o)
 .debug_line    0x000000000001654b       0xd9 c:/pspsdk/bin/../lib/gcc/psp/4.3.5/../../../../psp/lib\libc.a(lib_a-memchr.o)
 .debug_line    0x0000000000016624       0xcd c:/pspsdk/bin/../lib/gcc/psp/4.3.5/../../../../psp/lib\libc.a(lib_a-memcmp.o)
 .debug_line    0x00000000000166f1      0x100 c:/pspsdk/bin/../lib/gcc/psp/4.3.5/../../../../psp/lib\libc.a(lib_a-memcpy.o)
 .debug_line    0x00000000000167f1       0xf8 c:/pspsdk/bin/../lib/gcc/psp/4.3.5/../../../../psp/lib\libc.a(lib_a-memmove.o)
 .debug_line    0x00000000000168e9       0xe3 c:/pspsdk/bin/../lib/gcc/psp/4.3.5/../../../../psp/lib\libc.a(lib_a-memset.o)
 .debug_line    0x00000000000169cc      0x251 c:/pspsdk/bin/../lib/gcc/psp/4.3.5/../../../../psp/lib\libc.a(lib_a-mktm_r.o)
 .debug_line    0x0000000000016c1d      0x122 c:/pspsdk/bin/../lib/gcc/psp/4.3.5/../../../../psp/lib\libc.a(lib_a-mlock.o)
 .debug_line    0x0000000000016d3f      0x128 c:/pspsdk/bin/../lib/gcc/psp/4.3.5/../../../../psp/lib\libc.a(lib_a-openr.o)
 .debug_line    0x0000000000016e67      0x1a9 c:/pspsdk/bin/../lib/gcc/psp/4.3.5/../../../../psp/lib\libc.a(lib_a-putc.o)
 .debug_line    0x0000000000017010      0x130 c:/pspsdk/bin/../lib/gcc/psp/4.3.5/../../../../psp/lib\libc.a(lib_a-rand.o)
 .debug_line    0x0000000000017140      0x122 c:/pspsdk/bin/../lib/gcc/psp/4.3.5/../../../../psp/lib\libc.a(lib_a-realloc.o)
 .debug_line    0x0000000000017262      0x1ec c:/pspsdk/bin/../lib/gcc/psp/4.3.5/../../../../psp/lib\libc.a(lib_a-reallocr.o)
 .debug_line    0x000000000001744e      0x168 c:/pspsdk/bin/../lib/gcc/psp/4.3.5/../../../../psp/lib\libc.a(lib_a-reent.o)
 .debug_line    0x00000000000175b6      0x1d0 c:/pspsdk/bin/../lib/gcc/psp/4.3.5/../../../../psp/lib\libc.a(lib_a-refill.o)
 .debug_line    0x0000000000017786      0x18b c:/pspsdk/bin/../lib/gcc/psp/4.3.5/../../../../psp/lib\libc.a(lib_a-rget.o)
 .debug_line    0x0000000000017911      0x125 c:/pspsdk/bin/../lib/gcc/psp/4.3.5/../../../../psp/lib\libc.a(lib_a-sbrkr.o)
 .debug_line    0x0000000000017a36       0x85 c:/pspsdk/bin/../lib/gcc/psp/4.3.5/../../../../psp/lib\libc.a(lib_a-setjmp.o)
 .debug_line    0x0000000000017abb      0x1a6 c:/pspsdk/bin/../lib/gcc/psp/4.3.5/../../../../psp/lib\libc.a(lib_a-signal.o)
 .debug_line    0x0000000000017c61      0x12e c:/pspsdk/bin/../lib/gcc/psp/4.3.5/../../../../psp/lib\libc.a(lib_a-signalr.o)
 .debug_line    0x0000000000017d8f      0x1cc c:/pspsdk/bin/../lib/gcc/psp/4.3.5/../../../../psp/lib\libc.a(lib_a-snprintf.o)
 .debug_line    0x0000000000017f5b      0x1c7 c:/pspsdk/bin/../lib/gcc/psp/4.3.5/../../../../psp/lib\libc.a(lib_a-sprintf.o)
 .debug_line    0x0000000000018122      0x1bd c:/pspsdk/bin/../lib/gcc/psp/4.3.5/../../../../psp/lib\libc.a(lib_a-sscanf.o)
 .debug_line    0x00000000000182df      0x1b8 c:/pspsdk/bin/../lib/gcc/psp/4.3.5/../../../../psp/lib\libc.a(lib_a-stdio.o)
 .debug_line    0x0000000000018497       0xd1 c:/pspsdk/bin/../lib/gcc/psp/4.3.5/../../../../psp/lib\libc.a(lib_a-strcasecmp.o)
 .debug_line    0x0000000000018568       0x7f c:/pspsdk/bin/../lib/gcc/psp/4.3.5/../../../../psp/lib\libc.a(lib_a-strcat.o)
 .debug_line    0x00000000000185e7       0xaf c:/pspsdk/bin/../lib/gcc/psp/4.3.5/../../../../psp/lib\libc.a(lib_a-strchr.o)
 .debug_line    0x0000000000018696       0x88 c:/pspsdk/bin/../lib/gcc/psp/4.3.5/../../../../psp/lib\libc.a(lib_a-strcmp.o)
 .debug_line    0x000000000001871e       0x78 c:/pspsdk/bin/../lib/gcc/psp/4.3.5/../../../../psp/lib\libc.a(lib_a-strcpy.o)
 .debug_line    0x0000000000018796      0x316 c:/pspsdk/bin/../lib/gcc/psp/4.3.5/../../../../psp/lib\libc.a(lib_a-strerror.o)
 .debug_line    0x0000000000018aac       0xb9 c:/pspsdk/bin/../lib/gcc/psp/4.3.5/../../../../psp/lib\libc.a(lib_a-strlen.o)
 .debug_line    0x0000000000018b65       0xe0 c:/pspsdk/bin/../lib/gcc/psp/4.3.5/../../../../psp/lib\libc.a(lib_a-strncmp.o)
 .debug_line    0x0000000000018c45      0x11a c:/pspsdk/bin/../lib/gcc/psp/4.3.5/../../../../psp/lib\libc.a(lib_a-strncpy.o)
 .debug_line    0x0000000000018d5f       0x74 c:/pspsdk/bin/../lib/gcc/psp/4.3.5/../../../../psp/lib\libc.a(lib_a-strrchr.o)
 .debug_line    0x0000000000018dd3      0x523 c:/pspsdk/bin/../lib/gcc/psp/4.3.5/../../../../psp/lib\libc.a(lib_a-strtod.o)
 .debug_line    0x00000000000192f6      0x1d8 c:/pspsdk/bin/../lib/gcc/psp/4.3.5/../../../../psp/lib\libc.a(lib_a-strtol.o)
 .debug_line    0x00000000000194ce      0x62c c:/pspsdk/bin/../lib/gcc/psp/4.3.5/../../../../psp/lib\libc.a(lib_a-svfprintf.o)
 .debug_line    0x0000000000019afa      0x55a c:/pspsdk/bin/../lib/gcc/psp/4.3.5/../../../../psp/lib\libc.a(lib_a-svfscanf.o)
 .debug_line    0x000000000001a054      0x193 c:/pspsdk/bin/../lib/gcc/psp/4.3.5/../../../../psp/lib\libc.a(lib_a-sysgettod.o)
 .debug_line    0x000000000001a1e7      0x127 c:/pspsdk/bin/../lib/gcc/psp/4.3.5/../../../../psp/lib\libc.a(lib_a-syswrite.o)
 .debug_line    0x000000000001a30e      0x194 c:/pspsdk/bin/../lib/gcc/psp/4.3.5/../../../../psp/lib\libc.a(lib_a-time.o)
 .debug_line    0x000000000001a4a2       0x67 c:/pspsdk/bin/../lib/gcc/psp/4.3.5/../../../../psp/lib\libc.a(lib_a-tzlock.o)
 .debug_line    0x000000000001a509       0x57 c:/pspsdk/bin/../lib/gcc/psp/4.3.5/../../../../psp/lib\libc.a(lib_a-tzvars.o)
 .debug_line    0x000000000001a560       0x68 c:/pspsdk/bin/../lib/gcc/psp/4.3.5/../../../../psp/lib\libc.a(lib_a-u_strerr.o)
 .debug_line    0x000000000001a5c8      0x1ef c:/pspsdk/bin/../lib/gcc/psp/4.3.5/../../../../psp/lib\libc.a(lib_a-ungetc.o)
 .debug_line    0x000000000001a7b7      0x467 c:/pspsdk/bin/../lib/gcc/psp/4.3.5/../../../../psp/lib\libc.a(lib_a-vfiprintf.o)
 .debug_line    0x000000000001ac1e      0x1ad c:/pspsdk/bin/../lib/gcc/psp/4.3.5/../../../../psp/lib\libc.a(lib_a-vsnprintf.o)
 .debug_line    0x000000000001adcb      0x1b4 c:/pspsdk/bin/../lib/gcc/psp/4.3.5/../../../../psp/lib\libc.a(lib_a-wbuf.o)
 .debug_line    0x000000000001af7f      0x129 c:/pspsdk/bin/../lib/gcc/psp/4.3.5/../../../../psp/lib\libc.a(lib_a-writer.o)
 .debug_line    0x000000000001b0a8      0x1ac c:/pspsdk/bin/../lib/gcc/psp/4.3.5/../../../../psp/lib\libc.a(lib_a-wsetup.o)
 .debug_line    0x000000000001b254      0x3f3 c:/pspsdk/bin/../lib/gcc/psp/4.3.5/../../../../psp/lib\libc.a(vxprintf.o)
 .debug_line    0x000000000001b647      0x126 c:/pspsdk/bin/../lib/gcc/psp/4.3.5/../../../../psp/lib\libc.a(__fout.o)
 .debug_line    0x000000000001b76d       0x7f c:/pspsdk/bin/../lib/gcc/psp/4.3.5/../../../../psp/lib\libc.a(_exit.o)
 .debug_line    0x000000000001b7ec      0x1d3 c:/pspsdk/bin/../lib/gcc/psp/4.3.5/../../../../psp/lib\libc.a(_fstat.o)
 .debug_line    0x000000000001b9bf       0xcf c:/pspsdk/bin/../lib/gcc/psp/4.3.5/../../../../psp/lib\libc.a(_getpid.o)
 .debug_line    0x000000000001ba8e       0x73 c:/pspsdk/bin/../lib/gcc/psp/4.3.5/../../../../psp/lib\libc.a(_kill.o)
 .debug_line    0x000000000001bb01      0x137 c:/pspsdk/bin/../lib/gcc/psp/4.3.5/../../../../psp/lib\libc.a(_open.o)
 .debug_line    0x000000000001bc38      0x131 c:/pspsdk/bin/../lib/gcc/psp/4.3.5/../../../../psp/lib\libc.a(_sbrk.o)
 .debug_line    0x000000000001bd69      0x171 c:/pspsdk/bin/../lib/gcc/psp/4.3.5/../../../../psp/lib\libc.a(_write.o)
 .debug_line    0x000000000001beda      0x184 c:/pspsdk/bin/../lib/gcc/psp/4.3.5/../../../../psp/lib\libc.a(fdman.o)
 .debug_line    0x000000000001c05e       0x9d c:/pspsdk/bin/../lib/gcc/psp/4.3.5/../../../../psp/lib\libc.a(interrupt.o)
 .debug_line    0x000000000001c0fb      0x1e6 c:/pspsdk/bin/../lib/gcc/psp/4.3.5/../../../../psp/lib\libc.a(isatty.o)
 .debug_line    0x000000000001c2e1      0x170 c:/pspsdk/bin/../lib/gcc/psp/4.3.5/../../../../psp/lib\libc.a(lib_a-__atexit.o)
 .debug_line    0x000000000001c451      0x171 c:/pspsdk/bin/../lib/gcc/psp/4.3.5/../../../../psp/lib\libc.a(lib_a-__call_atexit.o)
 .debug_line    0x000000000001c5c2      0x127 c:/pspsdk/bin/../lib/gcc/psp/4.3.5/../../../../psp/lib\libc.a(lib_a-closer.o)
 .debug_line    0x000000000001c6e9      0x51b c:/pspsdk/bin/../lib/gcc/psp/4.3.5/../../../../psp/lib\libc.a(lib_a-dtoa.o)
 .debug_line    0x000000000001cc04       0x5a c:/pspsdk/bin/../lib/gcc/psp/4.3.5/../../../../psp/lib\libc.a(lib_a-environ.o)
 .debug_line    0x000000000001cc5e      0x124 c:/pspsdk/bin/../lib/gcc/psp/4.3.5/../../../../psp/lib\libc.a(lib_a-envlock.o)
 .debug_line    0x000000000001cd82      0x129 c:/pspsdk/bin/../lib/gcc/psp/4.3.5/../../../../psp/lib\libc.a(lib_a-fcntlr.o)
 .debug_line    0x000000000001ceab      0x1d8 c:/pspsdk/bin/../lib/gcc/psp/4.3.5/../../../../psp/lib\libc.a(lib_a-fputwc.o)
 .debug_line    0x000000000001d083      0x35f c:/pspsdk/bin/../lib/gcc/psp/4.3.5/../../../../psp/lib\libc.a(lib_a-gdtoa-gethex.o)
 .debug_line    0x000000000001d3e2      0x15d c:/pspsdk/bin/../lib/gcc/psp/4.3.5/../../../../psp/lib\libc.a(lib_a-gdtoa-hexnan.o)
 .debug_line    0x000000000001d53f      0x19e c:/pspsdk/bin/../lib/gcc/psp/4.3.5/../../../../psp/lib\libc.a(lib_a-gettimeofdayr.o)
 .debug_line    0x000000000001d6dd      0x11c c:/pspsdk/bin/../lib/gcc/psp/4.3.5/../../../../psp/lib\libc.a(lib_a-gettzinfo.o)
 .debug_line    0x000000000001d7f9       0xc1 c:/pspsdk/bin/../lib/gcc/psp/4.3.5/../../../../psp/lib\libc.a(lib_a-isdigit.o)
 .debug_line    0x000000000001d8ba      0x10b c:/pspsdk/bin/../lib/gcc/psp/4.3.5/../../../../psp/lib\libc.a(lib_a-iswspace.o)
 .debug_line    0x000000000001d9c5      0x19a c:/pspsdk/bin/../lib/gcc/psp/4.3.5/../../../../psp/lib\libc.a(lib_a-locale.o)
 .debug_line    0x000000000001db5f      0x129 c:/pspsdk/bin/../lib/gcc/psp/4.3.5/../../../../psp/lib\libc.a(lib_a-lseekr.o)
 .debug_line    0x000000000001dc88      0x1bd c:/pspsdk/bin/../lib/gcc/psp/4.3.5/../../../../psp/lib\libc.a(lib_a-mbrtowc.o)
 .debug_line    0x000000000001de45      0x193 c:/pspsdk/bin/../lib/gcc/psp/4.3.5/../../../../psp/lib\libc.a(lib_a-mbtowc_r.o)
 .debug_line    0x000000000001dfd8      0x4f1 c:/pspsdk/bin/../lib/gcc/psp/4.3.5/../../../../psp/lib\libc.a(lib_a-mprec.o)
 .debug_line    0x000000000001e4c9      0x128 c:/pspsdk/bin/../lib/gcc/psp/4.3.5/../../../../psp/lib\libc.a(lib_a-readr.o)
 .debug_line    0x000000000001e5f1       0xf1 c:/pspsdk/bin/../lib/gcc/psp/4.3.5/../../../../psp/lib\libc.a(lib_a-sccl.o)
 .debug_line    0x000000000001e6e2       0x68 c:/pspsdk/bin/../lib/gcc/psp/4.3.5/../../../../psp/lib\libc.a(lib_a-sf_nan.o)
 .debug_line    0x000000000001e74a      0x11f c:/pspsdk/bin/../lib/gcc/psp/4.3.5/../../../../psp/lib\libc.a(lib_a-strdup.o)
 .debug_line    0x000000000001e869      0x127 c:/pspsdk/bin/../lib/gcc/psp/4.3.5/../../../../psp/lib\libc.a(lib_a-strdup_r.o)
 .debug_line    0x000000000001e990      0x1e8 c:/pspsdk/bin/../lib/gcc/psp/4.3.5/../../../../psp/lib\libc.a(lib_a-strtoll_r.o)
 .debug_line    0x000000000001eb78      0x1d7 c:/pspsdk/bin/../lib/gcc/psp/4.3.5/../../../../psp/lib\libc.a(lib_a-strtoul.o)
 .debug_line    0x000000000001ed4f      0x1e2 c:/pspsdk/bin/../lib/gcc/psp/4.3.5/../../../../psp/lib\libc.a(lib_a-strtoull_r.o)
 .debug_line    0x000000000001ef31      0x469 c:/pspsdk/bin/../lib/gcc/psp/4.3.5/../../../../psp/lib\libc.a(lib_a-svfiprintf.o)
 .debug_line    0x000000000001f39a      0x4c0 c:/pspsdk/bin/../lib/gcc/psp/4.3.5/../../../../psp/lib\libc.a(lib_a-svfiscanf.o)
 .debug_line    0x000000000001f85a      0x191 c:/pspsdk/bin/../lib/gcc/psp/4.3.5/../../../../psp/lib\libc.a(lib_a-sysstat.o)
 .debug_line    0x000000000001f9eb      0x1bd c:/pspsdk/bin/../lib/gcc/psp/4.3.5/../../../../psp/lib\libc.a(lib_a-wcrtomb.o)
 .debug_line    0x000000000001fba8      0x18c c:/pspsdk/bin/../lib/gcc/psp/4.3.5/../../../../psp/lib\libc.a(lib_a-wctomb_r.o)
 .debug_line    0x000000000001fd34      0x27e c:/pspsdk/bin/../lib/gcc/psp/4.3.5/../../../../psp/lib\libc.a(pipe.o)
 .debug_line    0x000000000001ffb2      0x15f c:/pspsdk/bin/../lib/gcc/psp/4.3.5/../../../../psp/lib\libc.a(pspcwd.o)
 .debug_line    0x0000000000020111       0x76 c:/pspsdk/bin/../lib/gcc/psp/4.3.5/../../../../psp/lib\libc.a(__psp_set_errno.o)
 .debug_line    0x0000000000020187      0x133 c:/pspsdk/bin/../lib/gcc/psp/4.3.5/../../../../psp/lib\libc.a(_close.o)
 .debug_line    0x00000000000202ba      0x182 c:/pspsdk/bin/../lib/gcc/psp/4.3.5/../../../../psp/lib\libc.a(_fcntl.o)
 .debug_line    0x000000000002043c      0x144 c:/pspsdk/bin/../lib/gcc/psp/4.3.5/../../../../psp/lib\libc.a(_gettimeofday.o)
 .debug_line    0x0000000000020580      0x185 c:/pspsdk/bin/../lib/gcc/psp/4.3.5/../../../../psp/lib\libc.a(_lseek.o)
 .debug_line    0x0000000000020705      0x171 c:/pspsdk/bin/../lib/gcc/psp/4.3.5/../../../../psp/lib\libc.a(_read.o)
 .debug_line    0x0000000000020876       0xbb c:/pspsdk/bin/../lib/gcc/psp/4.3.5/../../../../psp/lib\libc.a(chdir.o)
 .debug_line    0x0000000000020931      0x195 c:/pspsdk/bin/../lib/gcc/psp/4.3.5/../../../../psp/lib\libc.a(lib_a-statr.o)
 .debug_line    0x0000000000020ac6      0x189 c:/pspsdk/bin/../lib/gcc/psp/4.3.5/../../../../psp/lib\libc.a(setsockopt.o)
 .debug_line    0x0000000000020c4f      0x245 c:/pspsdk/bin/../lib/gcc/psp/4.3.5/../../../../psp/lib\libc.a(_stat.o)
 .debug_line    0x0000000000020e94      0x233 c:/pspsdk/bin/../lib/gcc/psp/4.3.5/../../../../psp/lib\libc.a(lib_a-mktime.o)
 .debug_line    0x00000000000210c7       0xd3 c:/pspsdk/bin/../lib/gcc/psp/4.3.5/../../../../psp/lib\libc.a(lib_a-div.o)
 .debug_line    0x000000000002119a       0x74 c:/pspsdk/bin/../lib/gcc/psp/4.3.5\libgcc.a(_fixunsdfsi.o)
 .debug_line    0x000000000002120e      0x109 c:/pspsdk/bin/../lib/gcc/psp/4.3.5\libgcc.a(_udivdi3.o)
 .debug_line    0x0000000000021317      0x112 c:/pspsdk/bin/../lib/gcc/psp/4.3.5\libgcc.a(_umoddi3.o)
 .debug_line    0x0000000000021429       0x7f c:/pspsdk/bin/../lib/gcc/psp/4.3.5\libgcc.a(_sf_to_df.o)
 .debug_line    0x00000000000214a8      0x138 c:/pspsdk/bin/../lib/gcc/psp/4.3.5\libgcc.a(_addsub_df.o)
 .debug_line    0x00000000000215e0      0x113 c:/pspsdk/bin/../lib/gcc/psp/4.3.5\libgcc.a(_mul_df.o)
 .debug_line    0x00000000000216f3       0xf0 c:/pspsdk/bin/../lib/gcc/psp/4.3.5\libgcc.a(_div_df.o)
 .debug_line    0x00000000000217e3       0x8d c:/pspsdk/bin/../lib/gcc/psp/4.3.5\libgcc.a(_eq_df.o)
 .debug_line    0x0000000000021870       0x8d c:/pspsdk/bin/../lib/gcc/psp/4.3.5\libgcc.a(_ne_df.o)
 .debug_line    0x00000000000218fd       0x8d c:/pspsdk/bin/../lib/gcc/psp/4.3.5\libgcc.a(_gt_df.o)
 .debug_line    0x000000000002198a       0x8d c:/pspsdk/bin/../lib/gcc/psp/4.3.5\libgcc.a(_ge_df.o)
 .debug_line    0x0000000000021a17       0x8d c:/pspsdk/bin/../lib/gcc/psp/4.3.5\libgcc.a(_lt_df.o)
 .debug_line    0x0000000000021aa4       0x8d c:/pspsdk/bin/../lib/gcc/psp/4.3.5\libgcc.a(_le_df.o)
 .debug_line    0x0000000000021b31       0x9f c:/pspsdk/bin/../lib/gcc/psp/4.3.5\libgcc.a(_si_to_df.o)
 .debug_line    0x0000000000021bd0       0x97 c:/pspsdk/bin/../lib/gcc/psp/4.3.5\libgcc.a(_df_to_si.o)
 .debug_line    0x0000000000021c67       0x83 c:/pspsdk/bin/../lib/gcc/psp/4.3.5\libgcc.a(_make_df.o)
 .debug_line    0x0000000000021cea       0x86 c:/pspsdk/bin/../lib/gcc/psp/4.3.5\libgcc.a(_df_to_sf.o)
 .debug_line    0x0000000000021d70       0x69 c:/pspsdk/bin/../lib/gcc/psp/4.3.5\libgcc.a(_thenan_df.o)
 .debug_line    0x0000000000021dd9       0xa3 c:/pspsdk/bin/../lib/gcc/psp/4.3.5\libgcc.a(_usi_to_df.o)
 .debug_line    0x0000000000021e7c      0xb65 c:/pspsdk/bin/../lib/gcc/psp/4.3.5\libgcc.a(unwind-dw2.o)
 .debug_line    0x00000000000229e1      0x5a8 c:/pspsdk/bin/../lib/gcc/psp/4.3.5\libgcc.a(unwind-dw2-fde.o)
 .debug_line    0x0000000000022f89       0x6e c:/pspsdk/bin/../lib/gcc/psp/4.3.5\libgcc.a(_ucmpdi2.o)
 .debug_line    0x0000000000022ff7       0x58 c:/pspsdk/bin/../lib/gcc/psp/4.3.5\libgcc.a(_clz.o)
 .debug_line    0x000000000002304f       0xaa c:/pspsdk/bin/../lib/gcc/psp/4.3.5\libgcc.a(_unpack_sf.o)
 .debug_line    0x00000000000230f9       0x82 c:/pspsdk/bin/../lib/gcc/psp/4.3.5\libgcc.a(_make_sf.o)
 .debug_line    0x000000000002317b      0x11f c:/pspsdk/bin/../lib/gcc/psp/4.3.5\libgcc.a(_pack_df.o)
 .debug_line    0x000000000002329a       0xb7 c:/pspsdk/bin/../lib/gcc/psp/4.3.5\libgcc.a(_unpack_df.o)
 .debug_line    0x0000000000023351       0xb2 c:/pspsdk/bin/../lib/gcc/psp/4.3.5\libgcc.a(_fpcmp_parts_df.o)
 .debug_line    0x0000000000023403       0xf4 c:/pspsdk/bin/../lib/gcc/psp/4.3.5\libgcc.a(_pack_sf.o)

.debug_frame    0x0000000000000000     0x80f4
 *(.debug_frame)
 .debug_frame   0x0000000000000000       0x50 c:/pspsdk/bin/../lib/gcc/psp/4.3.5/../../../../psp/lib/crt0.o
 .debug_frame   0x0000000000000050      0x258 psp/sound.o
 .debug_frame   0x00000000000002a8      0x23c psp/gym/gym.o
 .debug_frame   0x00000000000004e4       0xa4 psp/gym/gym_play.o
 .debug_frame   0x0000000000000588      0x130 psp/vgm/In_vgm.o
 .debug_frame   0x00000000000006b8      0x1e0 c:/pspsdk/bin/../lib/gcc/psp/4.3.5/../../../../psp/lib\libosl.a(oslib.o)
 .debug_frame   0x0000000000000898      0x228 c:/pspsdk/bin/../lib/gcc/psp/4.3.5/../../../../psp/lib\libosl.a(drawing.o)
 .debug_frame   0x0000000000000ac0      0x198 c:/pspsdk/bin/../lib/gcc/psp/4.3.5/../../../../psp/lib\libosl.a(image.o)
 .debug_frame   0x0000000000000c58       0x94 c:/pspsdk/bin/../lib/gcc/psp/4.3.5/../../../../psp/lib\libosl.a(palette.o)
 .debug_frame   0x0000000000000cec       0xb8 c:/pspsdk/bin/../lib/gcc/psp/4.3.5/../../../../psp/lib\libosl.a(shape.o)
 .debug_frame   0x0000000000000da4       0x64 c:/pspsdk/bin/../lib/gcc/psp/4.3.5/../../../../psp/lib\libosl.a(messagebox.o)
 .debug_frame   0x0000000000000e08       0xd0 c:/pspsdk/bin/../lib/gcc/psp/4.3.5/../../../../psp/lib\libosl.a(keys.o)
 .debug_frame   0x0000000000000ed8       0x50 c:/pspsdk/bin/../lib/gcc/psp/4.3.5/../../../../psp/lib\libosl.a(vfpu.o)
 .debug_frame   0x0000000000000f28      0x2b8 c:/pspsdk/bin/../lib/gcc/psp/4.3.5/../../../../psp/lib\libosl.a(text.o)
 .debug_frame   0x00000000000011e0       0x8c c:/pspsdk/bin/../lib/gcc/psp/4.3.5/../../../../psp/lib\libosl.a(vram_mgr.o)
 .debug_frame   0x000000000000126c      0x39c c:/pspsdk/bin/../lib/gcc/psp/4.3.5/../../../../psp/lib\libosl.a(audio.o)
 .debug_frame   0x0000000000001608       0xfc c:/pspsdk/bin/../lib/gcc/psp/4.3.5/../../../../psp/lib\libosl.a(bgm.o)
 .debug_frame   0x0000000000001704       0x88 c:/pspsdk/bin/../lib/gcc/psp/4.3.5/../../../../psp/lib\libosl.a(usb.o)
 .debug_frame   0x000000000000178c      0x22c c:/pspsdk/bin/../lib/gcc/psp/4.3.5/../../../../psp/lib\libosl.a(VirtualFile.o)
 .debug_frame   0x00000000000019b8       0xfc c:/pspsdk/bin/../lib/gcc/psp/4.3.5/../../../../psp/lib\libosl.a(vfsFile.o)
 .debug_frame   0x0000000000001ab4       0x44 c:/pspsdk/bin/../lib/gcc/psp/4.3.5/../../../../psp/lib\libosl.a(oslDrawImage.o)
 .debug_frame   0x0000000000001af8       0x2c c:/pspsdk/bin/../lib/gcc/psp/4.3.5/../../../../psp/lib\libosl.a(oslDrawImageSimple.o)
 .debug_frame   0x0000000000001b24       0x38 c:/pspsdk/bin/../lib/gcc/psp/4.3.5/../../../../psp/lib\libosl.a(oslLockImage.o)
 .debug_frame   0x0000000000001b5c       0x70 c:/pspsdk/bin/../lib/gcc/psp/4.3.5/../../../../psp/lib\libosl.a(oslSwizzleImage.o)
 .debug_frame   0x0000000000001bcc       0x28 c:/pspsdk/bin/../lib/gcc/psp/4.3.5/../../../../psp/lib\libosl.a(oslSetDrawBuffer.o)
 .debug_frame   0x0000000000001bf4       0x5c c:/pspsdk/bin/../lib/gcc/psp/4.3.5/../../../../psp/lib\libosl.a(oslWriteImageFilePNG.o)
 .debug_frame   0x0000000000001c50       0x2c c:/pspsdk/bin/../lib/gcc/psp/4.3.5/../../../../psp/lib\libosl.a(oslLoadImageFile.o)
 .debug_frame   0x0000000000001c7c      0x30c c:/pspsdk/bin/../lib/gcc/psp/4.3.5/../../../../psp/lib\libosl.a(intraFont.o)
 .debug_frame   0x0000000000001f88      0x24c c:/pspsdk/bin/../lib/gcc/psp/4.3.5/../../../../psp/lib\libosl.a(libccc.o)
 .debug_frame   0x00000000000021d4       0x40 c:/pspsdk/bin/../lib/gcc/psp/4.3.5/../../../../psp/lib\libosl.a(oslHandleLoadNoFailError.o)
 .debug_frame   0x0000000000002214       0x6c c:/pspsdk/bin/../lib/gcc/psp/4.3.5/../../../../psp/lib\libosl.a(oslLoadImageFilePNG.o)
 .debug_frame   0x0000000000002280       0x3c c:/pspsdk/bin/../lib/gcc/psp/4.3.5/../../../../psp/lib\libosl.a(oslLoadImageFileJPG.o)
 .debug_frame   0x00000000000022bc       0xa0 c:/pspsdk/bin/../lib/gcc/psp/4.3.5/../../../../psp/lib\libosl.a(oslLoadImageFileGIF.o)
 .debug_frame   0x000000000000235c       0x38 c:/pspsdk/bin/../lib/gcc/psp/4.3.5/../../../../psp/lib\libosl.a(oslConvertImageTo.o)
 .debug_frame   0x0000000000002394       0x30 c:/pspsdk/bin/../lib/gcc/psp/4.3.5/../../../../psp/lib\libosl.a(oslSetImagePixel.o)
 .debug_frame   0x00000000000023c4       0x30 c:/pspsdk/bin/../lib/gcc/psp/4.3.5/../../../../psp/lib\libosl.a(oslGetImagePixel.o)
 .debug_frame   0x00000000000023f4      0x1c0 c:/pspsdk/bin/../lib/gcc/psp/4.3.5/../../../../psp/lib\libosl.a(dgif_lib.o)
 .debug_frame   0x00000000000025b4       0x20 c:/pspsdk/bin/../lib/gcc/psp/4.3.5/../../../../psp/lib\libosl.a(gif_err.o)
 .debug_frame   0x00000000000025d4      0x130 c:/pspsdk/bin/../lib/gcc/psp/4.3.5/../../../../psp/lib\libosl.a(gifalloc.o)
 .debug_frame   0x0000000000002704       0xcc c:/pspsdk/bin/../lib/gcc/psp/4.3.5/../../../../psp/lib\libjpeg.a(jdapimin.o)
 .debug_frame   0x00000000000027d0       0xc0 c:/pspsdk/bin/../lib/gcc/psp/4.3.5/../../../../psp/lib\libjpeg.a(jdapistd.o)
 .debug_frame   0x0000000000002890       0xc8 c:/pspsdk/bin/../lib/gcc/psp/4.3.5/../../../../psp/lib\libjpeg.a(jdatasrc.o)
 .debug_frame   0x0000000000002958       0xac c:/pspsdk/bin/../lib/gcc/psp/4.3.5/../../../../psp/lib\libjpeg.a(jdmaster.o)
 .debug_frame   0x0000000000002a04       0xbc c:/pspsdk/bin/../lib/gcc/psp/4.3.5/../../../../psp/lib\libjpeg.a(jdinput.o)
 .debug_frame   0x0000000000002ac0      0x1e8 c:/pspsdk/bin/../lib/gcc/psp/4.3.5/../../../../psp/lib\libjpeg.a(jdmarker.o)
 .debug_frame   0x0000000000002ca8      0x1dc c:/pspsdk/bin/../lib/gcc/psp/4.3.5/../../../../psp/lib\libjpeg.a(jdhuff.o)
 .debug_frame   0x0000000000002e84       0xbc c:/pspsdk/bin/../lib/gcc/psp/4.3.5/../../../../psp/lib\libjpeg.a(jdmainct.o)
 .debug_frame   0x0000000000002f40      0x11c c:/pspsdk/bin/../lib/gcc/psp/4.3.5/../../../../psp/lib\libjpeg.a(jdcoefct.o)
 .debug_frame   0x000000000000305c       0xb8 c:/pspsdk/bin/../lib/gcc/psp/4.3.5/../../../../psp/lib\libjpeg.a(jdpostct.o)
 .debug_frame   0x0000000000003114       0x5c c:/pspsdk/bin/../lib/gcc/psp/4.3.5/../../../../psp/lib\libjpeg.a(jddctmgr.o)
 .debug_frame   0x0000000000003170       0x38 c:/pspsdk/bin/../lib/gcc/psp/4.3.5/../../../../psp/lib\libjpeg.a(jidctfst.o)
 .debug_frame   0x00000000000031a8       0x24 c:/pspsdk/bin/../lib/gcc/psp/4.3.5/../../../../psp/lib\libjpeg.a(jidctflt.o)
 .debug_frame   0x00000000000031cc      0x460 c:/pspsdk/bin/../lib/gcc/psp/4.3.5/../../../../psp/lib\libjpeg.a(jidctint.o)
 .debug_frame   0x000000000000362c       0xf0 c:/pspsdk/bin/../lib/gcc/psp/4.3.5/../../../../psp/lib\libjpeg.a(jdsample.o)
 .debug_frame   0x000000000000371c       0xcc c:/pspsdk/bin/../lib/gcc/psp/4.3.5/../../../../psp/lib\libjpeg.a(jdcolor.o)
 .debug_frame   0x00000000000037e8      0x138 c:/pspsdk/bin/../lib/gcc/psp/4.3.5/../../../../psp/lib\libjpeg.a(jquant1.o)
 .debug_frame   0x0000000000003920      0x16c c:/pspsdk/bin/../lib/gcc/psp/4.3.5/../../../../psp/lib\libjpeg.a(jquant2.o)
 .debug_frame   0x0000000000003a8c       0xc4 c:/pspsdk/bin/../lib/gcc/psp/4.3.5/../../../../psp/lib\libjpeg.a(jdmerge.o)
 .debug_frame   0x0000000000003b50       0x70 c:/pspsdk/bin/../lib/gcc/psp/4.3.5/../../../../psp/lib\libjpeg.a(jcomapi.o)
 .debug_frame   0x0000000000003bc0       0x70 c:/pspsdk/bin/../lib/gcc/psp/4.3.5/../../../../psp/lib\libjpeg.a(jutils.o)
 .debug_frame   0x0000000000003c30       0x90 c:/pspsdk/bin/../lib/gcc/psp/4.3.5/../../../../psp/lib\libjpeg.a(jerror.o)
 .debug_frame   0x0000000000003cc0      0x200 c:/pspsdk/bin/../lib/gcc/psp/4.3.5/../../../../psp/lib\libjpeg.a(jmemmgr.o)
 .debug_frame   0x0000000000003ec0       0x90 c:/pspsdk/bin/../lib/gcc/psp/4.3.5/../../../../psp/lib\libjpeg.a(jmemnobs.o)
 .debug_frame   0x0000000000003f50      0x174 c:/pspsdk/bin/../lib/gcc/psp/4.3.5/../../../../psp/lib\libjpeg.a(jdarith.o)
 .debug_frame   0x00000000000040c4       0x4c c:/pspsdk/psp/sdk/lib\libpspsdk.a(loadmodule.o)
 .debug_frame   0x0000000000004110       0x20 c:/pspsdk/psp/sdk/lib\libpspgu.a(sceGuAlphaFunc.o)
 .debug_frame   0x0000000000004130       0x2c c:/pspsdk/psp/sdk/lib\libpspgu.a(sceGuAmbientColor.o)
 .debug_frame   0x000000000000415c       0x30 c:/pspsdk/psp/sdk/lib\libpspgu.a(sceGuBlendFunc.o)
 .debug_frame   0x000000000000418c       0x34 c:/pspsdk/psp/sdk/lib\libpspgu.a(sceGuClear.o)
 .debug_frame   0x00000000000041c0       0x20 c:/pspsdk/psp/sdk/lib\libpspgu.a(sceGuClearColor.o)
 .debug_frame   0x00000000000041e0       0x2c c:/pspsdk/psp/sdk/lib\libpspgu.a(sceGuClutLoad.o)
 .debug_frame   0x000000000000420c       0x20 c:/pspsdk/psp/sdk/lib\libpspgu.a(sceGuClutMode.o)
 .debug_frame   0x000000000000422c       0x2c c:/pspsdk/psp/sdk/lib\libpspgu.a(sceGuColorFunc.o)
 .debug_frame   0x0000000000004258       0x2c c:/pspsdk/psp/sdk/lib\libpspgu.a(sceGuDepthBuffer.o)
 .debug_frame   0x0000000000004284       0x20 c:/pspsdk/psp/sdk/lib\libpspgu.a(sceGuDepthFunc.o)
 .debug_frame   0x00000000000042a4       0x30 c:/pspsdk/psp/sdk/lib\libpspgu.a(sceGuDepthRange.o)
 .debug_frame   0x00000000000042d4       0x28 c:/pspsdk/psp/sdk/lib\libpspgu.a(sceGuDisable.o)
 .debug_frame   0x00000000000042fc       0x50 c:/pspsdk/psp/sdk/lib\libpspgu.a(sceGuDispBuffer.o)
 .debug_frame   0x000000000000434c       0x28 c:/pspsdk/psp/sdk/lib\libpspgu.a(sceGuDisplay.o)
 .debug_frame   0x0000000000004374       0x30 c:/pspsdk/psp/sdk/lib\libpspgu.a(sceGuDrawArray.o)
 .debug_frame   0x00000000000043a4       0x30 c:/pspsdk/psp/sdk/lib\libpspgu.a(sceGuDrawBuffer.o)
 .debug_frame   0x00000000000043d4       0x2c c:/pspsdk/psp/sdk/lib\libpspgu.a(sceGuEnable.o)
 .debug_frame   0x0000000000004400       0x48 c:/pspsdk/psp/sdk/lib\libpspgu.a(sceGuFinish.o)
 .debug_frame   0x0000000000004448       0x20 c:/pspsdk/psp/sdk/lib\libpspgu.a(sceGuFrontFace.o)
 .debug_frame   0x0000000000004468       0x2c c:/pspsdk/psp/sdk/lib\libpspgu.a(sceGuGetMemory.o)
 .debug_frame   0x0000000000004494       0x2c c:/pspsdk/psp/sdk/lib\libpspgu.a(sceGuInit.o)
 .debug_frame   0x00000000000044c0       0x2c c:/pspsdk/psp/sdk/lib\libpspgu.a(sceGuOffset.o)
 .debug_frame   0x00000000000044ec       0x28 c:/pspsdk/psp/sdk/lib\libpspgu.a(sceGuScissor.o)
 .debug_frame   0x0000000000004514       0x20 c:/pspsdk/psp/sdk/lib\libpspgu.a(sceGuShadeModel.o)
 .debug_frame   0x0000000000004534       0x30 c:/pspsdk/psp/sdk/lib\libpspgu.a(sceGuStart.o)
 .debug_frame   0x0000000000004564       0x20 c:/pspsdk/psp/sdk/lib\libpspgu.a(sceGuStencilFunc.o)
 .debug_frame   0x0000000000004584       0x20 c:/pspsdk/psp/sdk/lib\libpspgu.a(sceGuStencilOp.o)
 .debug_frame   0x00000000000045a4       0x4c c:/pspsdk/psp/sdk/lib\libpspgu.a(sceGuSwapBuffers.o)
 .debug_frame   0x00000000000045f0       0x20 c:/pspsdk/psp/sdk/lib\libpspgu.a(sceGuSync.o)
 .debug_frame   0x0000000000004610       0x2c c:/pspsdk/psp/sdk/lib\libpspgu.a(sceGuTerm.o)
 .debug_frame   0x000000000000463c       0x20 c:/pspsdk/psp/sdk/lib\libpspgu.a(sceGuTexEnvColor.o)
 .debug_frame   0x000000000000465c       0x20 c:/pspsdk/psp/sdk/lib\libpspgu.a(sceGuTexFilter.o)
 .debug_frame   0x000000000000467c       0x20 c:/pspsdk/psp/sdk/lib\libpspgu.a(sceGuTexFunc.o)
 .debug_frame   0x000000000000469c       0x44 c:/pspsdk/psp/sdk/lib\libpspgu.a(sceGuTexImage.o)
 .debug_frame   0x00000000000046e0       0x2c c:/pspsdk/psp/sdk/lib\libpspgu.a(sceGuTexMode.o)
 .debug_frame   0x000000000000470c       0x2c c:/pspsdk/psp/sdk/lib\libpspgu.a(sceGuTexOffset.o)
 .debug_frame   0x0000000000004738       0x2c c:/pspsdk/psp/sdk/lib\libpspgu.a(sceGuTexScale.o)
 .debug_frame   0x0000000000004764       0x20 c:/pspsdk/psp/sdk/lib\libpspgu.a(sceGuTexWrap.o)
 .debug_frame   0x0000000000004784       0x2c c:/pspsdk/psp/sdk/lib\libpspgu.a(sceGuViewport.o)
 .debug_frame   0x00000000000047b0       0x44 c:/pspsdk/psp/sdk/lib\libpspgu.a(sendCommand.o)
 .debug_frame   0x00000000000047f4       0x20 c:/pspsdk/psp/sdk/lib\libpspgu.a(callbackFin.o)
 .debug_frame   0x0000000000004814       0x2c c:/pspsdk/psp/sdk/lib\libpspgu.a(callbackSig.o)
 .debug_frame   0x0000000000004840       0x20 c:/pspsdk/psp/sdk/lib\libpspgu.a(resetValues.o)
 .debug_frame   0x0000000000004860       0x20 c:/pspsdk/psp/sdk/lib\libpspgu.a(sceGuColorMaterial.o)
 .debug_frame   0x0000000000004880       0x20 c:/pspsdk/psp/sdk/lib\libpspgu.a(sceGuPatchDivide.o)
 .debug_frame   0x00000000000048a0       0x2c c:/pspsdk/psp/sdk/lib\libpspgu.a(sceGuSetDither.o)
 .debug_frame   0x00000000000048cc       0x20 c:/pspsdk/psp/sdk/lib\libpspgu.a(sceGuSpecular.o)
 .debug_frame   0x00000000000048ec       0x20 c:/pspsdk/psp/sdk/lib\libpspgu.a(sceGuTexFlush.o)
 .debug_frame   0x000000000000490c       0x20 c:/pspsdk/bin/../lib/gcc/psp/4.3.5/../../../../psp/lib\libstdc++.a(del_op.o)
 .debug_frame   0x000000000000492c       0x20 c:/pspsdk/bin/../lib/gcc/psp/4.3.5/../../../../psp/lib\libstdc++.a(del_opv.o)
 .debug_frame   0x000000000000494c       0x2c c:/pspsdk/bin/../lib/gcc/psp/4.3.5/../../../../psp/lib\libstdc++.a(new_op.o)
 .debug_frame   0x0000000000004978       0x28 c:/pspsdk/bin/../lib/gcc/psp/4.3.5/../../../../psp/lib\libstdc++.a(new_opv.o)
 .debug_frame   0x00000000000049a0       0x4c c:/pspsdk/bin/../lib/gcc/psp/4.3.5/../../../../psp/lib\libstdc++.a(eh_alloc.o)
 .debug_frame   0x00000000000049ec       0x30 c:/pspsdk/bin/../lib/gcc/psp/4.3.5/../../../../psp/lib\libstdc++.a(eh_globals.o)
 .debug_frame   0x0000000000004a1c      0x100 c:/pspsdk/bin/../lib/gcc/psp/4.3.5/../../../../psp/lib\libstdc++.a(eh_personality.o)
 .debug_frame   0x0000000000004b1c       0x90 c:/pspsdk/bin/../lib/gcc/psp/4.3.5/../../../../psp/lib\libstdc++.a(eh_terminate.o)
 .debug_frame   0x0000000000004bac       0x5c c:/pspsdk/bin/../lib/gcc/psp/4.3.5/../../../../psp/lib\libstdc++.a(eh_throw.o)
 .debug_frame   0x0000000000004c08       0x68 c:/pspsdk/bin/../lib/gcc/psp/4.3.5/../../../../psp/lib\libstdc++.a(new_handler.o)
 .debug_frame   0x0000000000004c70       0x88 c:/pspsdk/bin/../lib/gcc/psp/4.3.5/../../../../psp/lib\libstdc++.a(si_class_type_info.o)
 .debug_frame   0x0000000000004cf8       0x80 c:/pspsdk/bin/../lib/gcc/psp/4.3.5/../../../../psp/lib\libstdc++.a(tinfo.o)
 .debug_frame   0x0000000000004d78       0x2c c:/pspsdk/bin/../lib/gcc/psp/4.3.5/../../../../psp/lib\libstdc++.a(vterminate.o)
 .debug_frame   0x0000000000004da4       0xa4 c:/pspsdk/bin/../lib/gcc/psp/4.3.5/../../../../psp/lib\libstdc++.a(class_type_info.o)
 .debug_frame   0x0000000000004e48       0x28 c:/pspsdk/bin/../lib/gcc/psp/4.3.5/../../../../psp/lib\libstdc++.a(eh_call.o)
 .debug_frame   0x0000000000004e70       0x6c c:/pspsdk/bin/../lib/gcc/psp/4.3.5/../../../../psp/lib\libstdc++.a(eh_catch.o)
 .debug_frame   0x0000000000004edc       0xf0 c:/pspsdk/bin/../lib/gcc/psp/4.3.5/../../../../psp/lib\libstdc++.a(eh_exception.o)
 .debug_frame   0x0000000000004fcc       0x28 c:/pspsdk/bin/../lib/gcc/psp/4.3.5/../../../../psp/lib\libstdc++.a(eh_type.o)
 .debug_frame   0x0000000000004ff4       0x28 c:/pspsdk/bin/../lib/gcc/psp/4.3.5/../../../../psp/lib\libstdc++.a(pure.o)
 .debug_frame   0x000000000000501c       0x2c c:/pspsdk/bin/../lib/gcc/psp/4.3.5/../../../../psp/lib\libm.a(lib_a-s_ceil.o)
 .debug_frame   0x0000000000005048       0x2c c:/pspsdk/bin/../lib/gcc/psp/4.3.5/../../../../psp/lib\libm.a(lib_a-s_floor.o)
 .debug_frame   0x0000000000005074       0x20 c:/pspsdk/bin/../lib/gcc/psp/4.3.5/../../../../psp/lib\libm.a(lib_a-s_log.o)
 .debug_frame   0x0000000000005094       0x20 c:/pspsdk/bin/../lib/gcc/psp/4.3.5/../../../../psp/lib\libm.a(lib_a-s_log10.o)
 .debug_frame   0x00000000000050b4       0x38 c:/pspsdk/bin/../lib/gcc/psp/4.3.5/../../../../psp/lib\libm.a(lib_a-s_logarithm.o)
 .debug_frame   0x00000000000050ec       0x28 c:/pspsdk/bin/../lib/gcc/psp/4.3.5/../../../../psp/lib\libm.a(lib_a-s_modf.o)
 .debug_frame   0x0000000000005114       0x3c c:/pspsdk/bin/../lib/gcc/psp/4.3.5/../../../../psp/lib\libm.a(lib_a-s_pow.o)
 .debug_frame   0x0000000000005150       0x20 c:/pspsdk/bin/../lib/gcc/psp/4.3.5/../../../../psp/lib\libm.a(lib_a-s_sin.o)
 .debug_frame   0x0000000000005170       0x38 c:/pspsdk/bin/../lib/gcc/psp/4.3.5/../../../../psp/lib\libm.a(lib_a-s_sine.o)
 .debug_frame   0x00000000000051a8       0x34 c:/pspsdk/bin/../lib/gcc/psp/4.3.5/../../../../psp/lib\libm.a(lib_a-s_sqrt.o)
 .debug_frame   0x00000000000051dc       0x30 c:/pspsdk/bin/../lib/gcc/psp/4.3.5/../../../../psp/lib\libm.a(lib_a-s_exp.o)
 .debug_frame   0x000000000000520c       0x2c c:/pspsdk/bin/../lib/gcc/psp/4.3.5/../../../../psp/lib\libm.a(lib_a-s_fabs.o)
 .debug_frame   0x0000000000005238       0x20 c:/pspsdk/bin/../lib/gcc/psp/4.3.5/../../../../psp/lib\libm.a(lib_a-s_fpclassify.o)
 .debug_frame   0x0000000000005258       0x2c c:/pspsdk/bin/../lib/gcc/psp/4.3.5/../../../../psp/lib\libm.a(lib_a-s_frexp.o)
 .debug_frame   0x0000000000005284       0x20 c:/pspsdk/bin/../lib/gcc/psp/4.3.5/../../../../psp/lib\libm.a(lib_a-s_ispos.o)
 .debug_frame   0x00000000000052a4       0x2c c:/pspsdk/bin/../lib/gcc/psp/4.3.5/../../../../psp/lib\libm.a(lib_a-s_ldexp.o)
 .debug_frame   0x00000000000052d0       0x2c c:/pspsdk/bin/../lib/gcc/psp/4.3.5/../../../../psp/lib\libm.a(lib_a-s_numtest.o)
 .debug_frame   0x00000000000052fc       0x28 c:/pspsdk/bin/../lib/gcc/psp/4.3.5/../../../../psp/lib\libc.a(fprintf.o)
 .debug_frame   0x0000000000005324       0x28 c:/pspsdk/bin/../lib/gcc/psp/4.3.5/../../../../psp/lib\libc.a(lib_a-abort.o)
 .debug_frame   0x000000000000534c       0x20 c:/pspsdk/bin/../lib/gcc/psp/4.3.5/../../../../psp/lib\libc.a(lib_a-atexit.o)
 .debug_frame   0x000000000000536c       0x20 c:/pspsdk/bin/../lib/gcc/psp/4.3.5/../../../../psp/lib\libc.a(lib_a-atof.o)
 .debug_frame   0x000000000000538c       0x30 c:/pspsdk/bin/../lib/gcc/psp/4.3.5/../../../../psp/lib\libc.a(lib_a-atoi.o)
 .debug_frame   0x00000000000053bc       0x20 c:/pspsdk/bin/../lib/gcc/psp/4.3.5/../../../../psp/lib\libc.a(lib_a-calloc.o)
 .debug_frame   0x00000000000053dc       0x28 c:/pspsdk/bin/../lib/gcc/psp/4.3.5/../../../../psp/lib\libc.a(lib_a-callocr.o)
 .debug_frame   0x0000000000005404       0x20 c:/pspsdk/bin/../lib/gcc/psp/4.3.5/../../../../psp/lib\libc.a(lib_a-errno.o)
 .debug_frame   0x0000000000005424       0x28 c:/pspsdk/bin/../lib/gcc/psp/4.3.5/../../../../psp/lib\libc.a(lib_a-exit.o)
 .debug_frame   0x000000000000544c       0x3c c:/pspsdk/bin/../lib/gcc/psp/4.3.5/../../../../psp/lib\libc.a(lib_a-fclose.o)
 .debug_frame   0x0000000000005488       0x44 c:/pspsdk/bin/../lib/gcc/psp/4.3.5/../../../../psp/lib\libc.a(lib_a-fdopen.o)
 .debug_frame   0x00000000000054cc       0x40 c:/pspsdk/bin/../lib/gcc/psp/4.3.5/../../../../psp/lib\libc.a(lib_a-fflush.o)
 .debug_frame   0x000000000000550c       0x48 c:/pspsdk/bin/../lib/gcc/psp/4.3.5/../../../../psp/lib\libc.a(lib_a-fgetc.o)
 .debug_frame   0x0000000000005554       0x44 c:/pspsdk/bin/../lib/gcc/psp/4.3.5/../../../../psp/lib\libc.a(lib_a-fgets.o)
 .debug_frame   0x0000000000005598      0x120 c:/pspsdk/bin/../lib/gcc/psp/4.3.5/../../../../psp/lib\libc.a(lib_a-findfp.o)
 .debug_frame   0x00000000000056b8       0x20 c:/pspsdk/bin/../lib/gcc/psp/4.3.5/../../../../psp/lib\libc.a(lib_a-flags.o)
 .debug_frame   0x00000000000056d8       0xa8 c:/pspsdk/bin/../lib/gcc/psp/4.3.5/../../../../psp/lib\libc.a(lib_a-fmemopen.o)
 .debug_frame   0x0000000000005780       0x40 c:/pspsdk/bin/../lib/gcc/psp/4.3.5/../../../../psp/lib\libc.a(lib_a-fopen.o)
 .debug_frame   0x00000000000057c0       0x48 c:/pspsdk/bin/../lib/gcc/psp/4.3.5/../../../../psp/lib\libc.a(lib_a-fputc.o)
 .debug_frame   0x0000000000005808       0x3c c:/pspsdk/bin/../lib/gcc/psp/4.3.5/../../../../psp/lib\libc.a(lib_a-fputs.o)
 .debug_frame   0x0000000000005844       0x48 c:/pspsdk/bin/../lib/gcc/psp/4.3.5/../../../../psp/lib\libc.a(lib_a-fread.o)
 .debug_frame   0x000000000000588c       0x4c c:/pspsdk/bin/../lib/gcc/psp/4.3.5/../../../../psp/lib\libc.a(lib_a-freer.o)
 .debug_frame   0x00000000000058d8       0x48 c:/pspsdk/bin/../lib/gcc/psp/4.3.5/../../../../psp/lib\libc.a(lib_a-fseek.o)
 .debug_frame   0x0000000000005920       0x2c c:/pspsdk/bin/../lib/gcc/psp/4.3.5/../../../../psp/lib\libc.a(lib_a-fstatr.o)
 .debug_frame   0x000000000000594c       0x3c c:/pspsdk/bin/../lib/gcc/psp/4.3.5/../../../../psp/lib\libc.a(lib_a-ftell.o)
 .debug_frame   0x0000000000005988       0x38 c:/pspsdk/bin/../lib/gcc/psp/4.3.5/../../../../psp/lib\libc.a(lib_a-fvwrite.o)
 .debug_frame   0x00000000000059c0       0x60 c:/pspsdk/bin/../lib/gcc/psp/4.3.5/../../../../psp/lib\libc.a(lib_a-fwalk.o)
 .debug_frame   0x0000000000005a20       0x40 c:/pspsdk/bin/../lib/gcc/psp/4.3.5/../../../../psp/lib\libc.a(lib_a-fwrite.o)
 .debug_frame   0x0000000000005a60       0x38 c:/pspsdk/bin/../lib/gcc/psp/4.3.5/../../../../psp/lib\libc.a(lib_a-getenv.o)
 .debug_frame   0x0000000000005a98       0x4c c:/pspsdk/bin/../lib/gcc/psp/4.3.5/../../../../psp/lib\libc.a(lib_a-getenv_r.o)
 .debug_frame   0x0000000000005ae4       0x20 c:/pspsdk/bin/../lib/gcc/psp/4.3.5/../../../../psp/lib\libc.a(lib_a-gmtime.o)
 .debug_frame   0x0000000000005b04       0x20 c:/pspsdk/bin/../lib/gcc/psp/4.3.5/../../../../psp/lib\libc.a(lib_a-gmtime_r.o)
 .debug_frame   0x0000000000005b24       0x40 c:/pspsdk/bin/../lib/gcc/psp/4.3.5/../../../../psp/lib\libc.a(lib_a-iprintf.o)
 .debug_frame   0x0000000000005b64       0x20 c:/pspsdk/bin/../lib/gcc/psp/4.3.5/../../../../psp/lib\libc.a(lib_a-lcltime.o)
 .debug_frame   0x0000000000005b84       0x20 c:/pspsdk/bin/../lib/gcc/psp/4.3.5/../../../../psp/lib\libc.a(lib_a-lcltime_r.o)
 .debug_frame   0x0000000000005ba4       0x30 c:/pspsdk/bin/../lib/gcc/psp/4.3.5/../../../../psp/lib\libc.a(lib_a-makebuf.o)
 .debug_frame   0x0000000000005bd4       0x20 c:/pspsdk/bin/../lib/gcc/psp/4.3.5/../../../../psp/lib\libc.a(lib_a-malign.o)
 .debug_frame   0x0000000000005bf4       0x34 c:/pspsdk/bin/../lib/gcc/psp/4.3.5/../../../../psp/lib\libc.a(lib_a-malignr.o)
 .debug_frame   0x0000000000005c28       0x30 c:/pspsdk/bin/../lib/gcc/psp/4.3.5/../../../../psp/lib\libc.a(lib_a-malloc.o)
 .debug_frame   0x0000000000005c58       0x34 c:/pspsdk/bin/../lib/gcc/psp/4.3.5/../../../../psp/lib\libc.a(lib_a-mallocr.o)
 .debug_frame   0x0000000000005c8c       0x20 c:/pspsdk/bin/../lib/gcc/psp/4.3.5/../../../../psp/lib\libc.a(lib_a-memchr.o)
 .debug_frame   0x0000000000005cac       0x20 c:/pspsdk/bin/../lib/gcc/psp/4.3.5/../../../../psp/lib\libc.a(lib_a-memcmp.o)
 .debug_frame   0x0000000000005ccc       0x20 c:/pspsdk/bin/../lib/gcc/psp/4.3.5/../../../../psp/lib\libc.a(lib_a-memcpy.o)
 .debug_frame   0x0000000000005cec       0x20 c:/pspsdk/bin/../lib/gcc/psp/4.3.5/../../../../psp/lib\libc.a(lib_a-memmove.o)
 .debug_frame   0x0000000000005d0c       0x20 c:/pspsdk/bin/../lib/gcc/psp/4.3.5/../../../../psp/lib\libc.a(lib_a-memset.o)
 .debug_frame   0x0000000000005d2c       0x54 c:/pspsdk/bin/../lib/gcc/psp/4.3.5/../../../../psp/lib\libc.a(lib_a-mktm_r.o)
 .debug_frame   0x0000000000005d80       0x30 c:/pspsdk/bin/../lib/gcc/psp/4.3.5/../../../../psp/lib\libc.a(lib_a-mlock.o)
 .debug_frame   0x0000000000005db0       0x2c c:/pspsdk/bin/../lib/gcc/psp/4.3.5/../../../../psp/lib\libc.a(lib_a-openr.o)
 .debug_frame   0x0000000000005ddc       0x48 c:/pspsdk/bin/../lib/gcc/psp/4.3.5/../../../../psp/lib\libc.a(lib_a-putc.o)
 .debug_frame   0x0000000000005e24       0x34 c:/pspsdk/bin/../lib/gcc/psp/4.3.5/../../../../psp/lib\libc.a(lib_a-rand.o)
 .debug_frame   0x0000000000005e58       0x20 c:/pspsdk/bin/../lib/gcc/psp/4.3.5/../../../../psp/lib\libc.a(lib_a-realloc.o)
 .debug_frame   0x0000000000005e78       0x38 c:/pspsdk/bin/../lib/gcc/psp/4.3.5/../../../../psp/lib\libc.a(lib_a-reallocr.o)
 .debug_frame   0x0000000000005eb0       0x6c c:/pspsdk/bin/../lib/gcc/psp/4.3.5/../../../../psp/lib\libc.a(lib_a-reent.o)
 .debug_frame   0x0000000000005f1c       0x3c c:/pspsdk/bin/../lib/gcc/psp/4.3.5/../../../../psp/lib\libc.a(lib_a-refill.o)
 .debug_frame   0x0000000000005f58       0x3c c:/pspsdk/bin/../lib/gcc/psp/4.3.5/../../../../psp/lib\libc.a(lib_a-rget.o)
 .debug_frame   0x0000000000005f94       0x2c c:/pspsdk/bin/../lib/gcc/psp/4.3.5/../../../../psp/lib\libc.a(lib_a-sbrkr.o)
 .debug_frame   0x0000000000005fc0       0xbc c:/pspsdk/bin/../lib/gcc/psp/4.3.5/../../../../psp/lib\libc.a(lib_a-signal.o)
 .debug_frame   0x000000000000607c       0x3c c:/pspsdk/bin/../lib/gcc/psp/4.3.5/../../../../psp/lib\libc.a(lib_a-signalr.o)
 .debug_frame   0x00000000000060b8       0x48 c:/pspsdk/bin/../lib/gcc/psp/4.3.5/../../../../psp/lib\libc.a(lib_a-snprintf.o)
 .debug_frame   0x0000000000006100       0x40 c:/pspsdk/bin/../lib/gcc/psp/4.3.5/../../../../psp/lib\libc.a(lib_a-sprintf.o)
 .debug_frame   0x0000000000006140       0x48 c:/pspsdk/bin/../lib/gcc/psp/4.3.5/../../../../psp/lib\libc.a(lib_a-sscanf.o)
 .debug_frame   0x0000000000006188       0x88 c:/pspsdk/bin/../lib/gcc/psp/4.3.5/../../../../psp/lib\libc.a(lib_a-stdio.o)
 .debug_frame   0x0000000000006210       0x20 c:/pspsdk/bin/../lib/gcc/psp/4.3.5/../../../../psp/lib\libc.a(lib_a-strcasecmp.o)
 .debug_frame   0x0000000000006230       0x28 c:/pspsdk/bin/../lib/gcc/psp/4.3.5/../../../../psp/lib\libc.a(lib_a-strcat.o)
 .debug_frame   0x0000000000006258       0x20 c:/pspsdk/bin/../lib/gcc/psp/4.3.5/../../../../psp/lib\libc.a(lib_a-strchr.o)
 .debug_frame   0x0000000000006278       0x20 c:/pspsdk/bin/../lib/gcc/psp/4.3.5/../../../../psp/lib\libc.a(lib_a-strcmp.o)
 .debug_frame   0x0000000000006298       0x20 c:/pspsdk/bin/../lib/gcc/psp/4.3.5/../../../../psp/lib\libc.a(lib_a-strcpy.o)
 .debug_frame   0x00000000000062b8       0x28 c:/pspsdk/bin/../lib/gcc/psp/4.3.5/../../../../psp/lib\libc.a(lib_a-strerror.o)
 .debug_frame   0x00000000000062e0       0x20 c:/pspsdk/bin/../lib/gcc/psp/4.3.5/../../../../psp/lib\libc.a(lib_a-strlen.o)
 .debug_frame   0x0000000000006300       0x20 c:/pspsdk/bin/../lib/gcc/psp/4.3.5/../../../../psp/lib\libc.a(lib_a-strncmp.o)
 .debug_frame   0x0000000000006320       0x20 c:/pspsdk/bin/../lib/gcc/psp/4.3.5/../../../../psp/lib\libc.a(lib_a-strncpy.o)
 .debug_frame   0x0000000000006340       0x2c c:/pspsdk/bin/../lib/gcc/psp/4.3.5/../../../../psp/lib\libc.a(lib_a-strrchr.o)
 .debug_frame   0x000000000000636c       0x68 c:/pspsdk/bin/../lib/gcc/psp/4.3.5/../../../../psp/lib\libc.a(lib_a-strtod.o)
 .debug_frame   0x00000000000063d4       0x38 c:/pspsdk/bin/../lib/gcc/psp/4.3.5/../../../../psp/lib\libc.a(lib_a-strtol.o)
 .debug_frame   0x000000000000640c       0x3c c:/pspsdk/bin/../lib/gcc/psp/4.3.5/../../../../psp/lib\libc.a(lib_a-svfprintf.o)
 .debug_frame   0x0000000000006448       0x3c c:/pspsdk/bin/../lib/gcc/psp/4.3.5/../../../../psp/lib\libc.a(lib_a-svfscanf.o)
 .debug_frame   0x0000000000006484       0x20 c:/pspsdk/bin/../lib/gcc/psp/4.3.5/../../../../psp/lib\libc.a(lib_a-sysgettod.o)
 .debug_frame   0x00000000000064a4       0x20 c:/pspsdk/bin/../lib/gcc/psp/4.3.5/../../../../psp/lib\libc.a(lib_a-syswrite.o)
 .debug_frame   0x00000000000064c4       0x2c c:/pspsdk/bin/../lib/gcc/psp/4.3.5/../../../../psp/lib\libc.a(lib_a-time.o)
 .debug_frame   0x00000000000064f0       0x30 c:/pspsdk/bin/../lib/gcc/psp/4.3.5/../../../../psp/lib\libc.a(lib_a-tzlock.o)
 .debug_frame   0x0000000000006520       0x20 c:/pspsdk/bin/../lib/gcc/psp/4.3.5/../../../../psp/lib\libc.a(lib_a-u_strerr.o)
 .debug_frame   0x0000000000006540       0x64 c:/pspsdk/bin/../lib/gcc/psp/4.3.5/../../../../psp/lib\libc.a(lib_a-ungetc.o)
 .debug_frame   0x00000000000065a4       0x74 c:/pspsdk/bin/../lib/gcc/psp/4.3.5/../../../../psp/lib\libc.a(lib_a-vfiprintf.o)
 .debug_frame   0x0000000000006618       0x3c c:/pspsdk/bin/../lib/gcc/psp/4.3.5/../../../../psp/lib\libc.a(lib_a-vsnprintf.o)
 .debug_frame   0x0000000000006654       0x3c c:/pspsdk/bin/../lib/gcc/psp/4.3.5/../../../../psp/lib\libc.a(lib_a-wbuf.o)
 .debug_frame   0x0000000000006690       0x2c c:/pspsdk/bin/../lib/gcc/psp/4.3.5/../../../../psp/lib\libc.a(lib_a-writer.o)
 .debug_frame   0x00000000000066bc       0x2c c:/pspsdk/bin/../lib/gcc/psp/4.3.5/../../../../psp/lib\libc.a(lib_a-wsetup.o)
 .debug_frame   0x00000000000066e8       0x3c c:/pspsdk/bin/../lib/gcc/psp/4.3.5/../../../../psp/lib\libc.a(vxprintf.o)
 .debug_frame   0x0000000000006724       0x20 c:/pspsdk/bin/../lib/gcc/psp/4.3.5/../../../../psp/lib\libc.a(__fout.o)
 .debug_frame   0x0000000000006744       0x40 c:/pspsdk/bin/../lib/gcc/psp/4.3.5/../../../../psp/lib\libc.a(_exit.o)
 .debug_frame   0x0000000000006784       0x34 c:/pspsdk/bin/../lib/gcc/psp/4.3.5/../../../../psp/lib\libc.a(_fstat.o)
 .debug_frame   0x00000000000067b8       0x28 c:/pspsdk/bin/../lib/gcc/psp/4.3.5/../../../../psp/lib\libc.a(_getpid.o)
 .debug_frame   0x00000000000067e0       0x28 c:/pspsdk/bin/../lib/gcc/psp/4.3.5/../../../../psp/lib\libc.a(_kill.o)
 .debug_frame   0x0000000000006808       0x30 c:/pspsdk/bin/../lib/gcc/psp/4.3.5/../../../../psp/lib\libc.a(_open.o)
 .debug_frame   0x0000000000006838       0x3c c:/pspsdk/bin/../lib/gcc/psp/4.3.5/../../../../psp/lib\libc.a(_sbrk.o)
 .debug_frame   0x0000000000006874       0x28 c:/pspsdk/bin/../lib/gcc/psp/4.3.5/../../../../psp/lib\libc.a(_write.o)
 .debug_frame   0x000000000000689c       0x78 c:/pspsdk/bin/../lib/gcc/psp/4.3.5/../../../../psp/lib\libc.a(fdman.o)
 .debug_frame   0x0000000000006914       0x44 c:/pspsdk/bin/../lib/gcc/psp/4.3.5/../../../../psp/lib\libc.a(isatty.o)
 .debug_frame   0x0000000000006958       0x34 c:/pspsdk/bin/../lib/gcc/psp/4.3.5/../../../../psp/lib\libc.a(lib_a-__atexit.o)
 .debug_frame   0x000000000000698c       0x3c c:/pspsdk/bin/../lib/gcc/psp/4.3.5/../../../../psp/lib\libc.a(lib_a-__call_atexit.o)
 .debug_frame   0x00000000000069c8       0x2c c:/pspsdk/bin/../lib/gcc/psp/4.3.5/../../../../psp/lib\libc.a(lib_a-closer.o)
 .debug_frame   0x00000000000069f4       0x64 c:/pspsdk/bin/../lib/gcc/psp/4.3.5/../../../../psp/lib\libc.a(lib_a-dtoa.o)
 .debug_frame   0x0000000000006a58       0x30 c:/pspsdk/bin/../lib/gcc/psp/4.3.5/../../../../psp/lib\libc.a(lib_a-envlock.o)
 .debug_frame   0x0000000000006a88       0x2c c:/pspsdk/bin/../lib/gcc/psp/4.3.5/../../../../psp/lib\libc.a(lib_a-fcntlr.o)
 .debug_frame   0x0000000000006ab4       0x50 c:/pspsdk/bin/../lib/gcc/psp/4.3.5/../../../../psp/lib\libc.a(lib_a-fputwc.o)
 .debug_frame   0x0000000000006b04       0x5c c:/pspsdk/bin/../lib/gcc/psp/4.3.5/../../../../psp/lib\libc.a(lib_a-gdtoa-gethex.o)
 .debug_frame   0x0000000000006b60       0x2c c:/pspsdk/bin/../lib/gcc/psp/4.3.5/../../../../psp/lib\libc.a(lib_a-gdtoa-hexnan.o)
 .debug_frame   0x0000000000006b8c       0x2c c:/pspsdk/bin/../lib/gcc/psp/4.3.5/../../../../psp/lib\libc.a(lib_a-gettimeofdayr.o)
 .debug_frame   0x0000000000006bb8       0x20 c:/pspsdk/bin/../lib/gcc/psp/4.3.5/../../../../psp/lib\libc.a(lib_a-gettzinfo.o)
 .debug_frame   0x0000000000006bd8       0x20 c:/pspsdk/bin/../lib/gcc/psp/4.3.5/../../../../psp/lib\libc.a(lib_a-isdigit.o)
 .debug_frame   0x0000000000006bf8       0x20 c:/pspsdk/bin/../lib/gcc/psp/4.3.5/../../../../psp/lib\libc.a(lib_a-iswspace.o)
 .debug_frame   0x0000000000006c18       0x88 c:/pspsdk/bin/../lib/gcc/psp/4.3.5/../../../../psp/lib\libc.a(lib_a-locale.o)
 .debug_frame   0x0000000000006ca0       0x2c c:/pspsdk/bin/../lib/gcc/psp/4.3.5/../../../../psp/lib\libc.a(lib_a-lseekr.o)
 .debug_frame   0x0000000000006ccc       0x58 c:/pspsdk/bin/../lib/gcc/psp/4.3.5/../../../../psp/lib\libc.a(lib_a-mbrtowc.o)
 .debug_frame   0x0000000000006d24       0x48 c:/pspsdk/bin/../lib/gcc/psp/4.3.5/../../../../psp/lib\libc.a(lib_a-mbtowc_r.o)
 .debug_frame   0x0000000000006d6c      0x20c c:/pspsdk/bin/../lib/gcc/psp/4.3.5/../../../../psp/lib\libc.a(lib_a-mprec.o)
 .debug_frame   0x0000000000006f78       0x2c c:/pspsdk/bin/../lib/gcc/psp/4.3.5/../../../../psp/lib\libc.a(lib_a-readr.o)
 .debug_frame   0x0000000000006fa4       0x20 c:/pspsdk/bin/../lib/gcc/psp/4.3.5/../../../../psp/lib\libc.a(lib_a-sccl.o)
 .debug_frame   0x0000000000006fc4       0x20 c:/pspsdk/bin/../lib/gcc/psp/4.3.5/../../../../psp/lib\libc.a(lib_a-sf_nan.o)
 .debug_frame   0x0000000000006fe4       0x20 c:/pspsdk/bin/../lib/gcc/psp/4.3.5/../../../../psp/lib\libc.a(lib_a-strdup.o)
 .debug_frame   0x0000000000007004       0x30 c:/pspsdk/bin/../lib/gcc/psp/4.3.5/../../../../psp/lib\libc.a(lib_a-strdup_r.o)
 .debug_frame   0x0000000000007034       0x3c c:/pspsdk/bin/../lib/gcc/psp/4.3.5/../../../../psp/lib\libc.a(lib_a-strtoll_r.o)
 .debug_frame   0x0000000000007070       0x38 c:/pspsdk/bin/../lib/gcc/psp/4.3.5/../../../../psp/lib\libc.a(lib_a-strtoul.o)
 .debug_frame   0x00000000000070a8       0x3c c:/pspsdk/bin/../lib/gcc/psp/4.3.5/../../../../psp/lib\libc.a(lib_a-strtoull_r.o)
 .debug_frame   0x00000000000070e4       0x64 c:/pspsdk/bin/../lib/gcc/psp/4.3.5/../../../../psp/lib\libc.a(lib_a-svfiprintf.o)
 .debug_frame   0x0000000000007148       0x9c c:/pspsdk/bin/../lib/gcc/psp/4.3.5/../../../../psp/lib\libc.a(lib_a-svfiscanf.o)
 .debug_frame   0x00000000000071e4       0x20 c:/pspsdk/bin/../lib/gcc/psp/4.3.5/../../../../psp/lib\libc.a(lib_a-sysstat.o)
 .debug_frame   0x0000000000007204       0x50 c:/pspsdk/bin/../lib/gcc/psp/4.3.5/../../../../psp/lib\libc.a(lib_a-wcrtomb.o)
 .debug_frame   0x0000000000007254       0x40 c:/pspsdk/bin/../lib/gcc/psp/4.3.5/../../../../psp/lib\libc.a(lib_a-wctomb_r.o)
 .debug_frame   0x0000000000007294       0xc8 c:/pspsdk/bin/../lib/gcc/psp/4.3.5/../../../../psp/lib\libc.a(pipe.o)
 .debug_frame   0x000000000000735c       0x84 c:/pspsdk/bin/../lib/gcc/psp/4.3.5/../../../../psp/lib\libc.a(pspcwd.o)
 .debug_frame   0x00000000000073e0       0x28 c:/pspsdk/bin/../lib/gcc/psp/4.3.5/../../../../psp/lib\libc.a(__psp_set_errno.o)
 .debug_frame   0x0000000000007408       0x2c c:/pspsdk/bin/../lib/gcc/psp/4.3.5/../../../../psp/lib\libc.a(_close.o)
 .debug_frame   0x0000000000007434       0x28 c:/pspsdk/bin/../lib/gcc/psp/4.3.5/../../../../psp/lib\libc.a(_fcntl.o)
 .debug_frame   0x000000000000745c       0x30 c:/pspsdk/bin/../lib/gcc/psp/4.3.5/../../../../psp/lib\libc.a(_gettimeofday.o)
 .debug_frame   0x000000000000748c       0x28 c:/pspsdk/bin/../lib/gcc/psp/4.3.5/../../../../psp/lib\libc.a(_lseek.o)
 .debug_frame   0x00000000000074b4       0x28 c:/pspsdk/bin/../lib/gcc/psp/4.3.5/../../../../psp/lib\libc.a(_read.o)
 .debug_frame   0x00000000000074dc       0x28 c:/pspsdk/bin/../lib/gcc/psp/4.3.5/../../../../psp/lib\libc.a(chdir.o)
 .debug_frame   0x0000000000007504       0x2c c:/pspsdk/bin/../lib/gcc/psp/4.3.5/../../../../psp/lib\libc.a(lib_a-statr.o)
 .debug_frame   0x0000000000007530       0x48 c:/pspsdk/bin/../lib/gcc/psp/4.3.5/../../../../psp/lib\libc.a(setsockopt.o)
 .debug_frame   0x0000000000007578       0x30 c:/pspsdk/bin/../lib/gcc/psp/4.3.5/../../../../psp/lib\libc.a(_stat.o)
 .debug_frame   0x00000000000075a8       0x50 c:/pspsdk/bin/../lib/gcc/psp/4.3.5/../../../../psp/lib\libc.a(lib_a-mktime.o)
 .debug_frame   0x00000000000075f8       0x24 c:/pspsdk/bin/../lib/gcc/psp/4.3.5/../../../../psp/lib\libc.a(lib_a-div.o)
 .debug_frame   0x000000000000761c       0x30 c:/pspsdk/bin/../lib/gcc/psp/4.3.5\libgcc.a(_fixunsdfsi.o)
 .debug_frame   0x000000000000764c       0x24 c:/pspsdk/bin/../lib/gcc/psp/4.3.5\libgcc.a(_udivdi3.o)
 .debug_frame   0x0000000000007670       0x24 c:/pspsdk/bin/../lib/gcc/psp/4.3.5\libgcc.a(_umoddi3.o)
 .debug_frame   0x0000000000007694       0x28 c:/pspsdk/bin/../lib/gcc/psp/4.3.5\libgcc.a(_sf_to_df.o)
 .debug_frame   0x00000000000076bc       0x70 c:/pspsdk/bin/../lib/gcc/psp/4.3.5\libgcc.a(_addsub_df.o)
 .debug_frame   0x000000000000772c       0x2c c:/pspsdk/bin/../lib/gcc/psp/4.3.5\libgcc.a(_mul_df.o)
 .debug_frame   0x0000000000007758       0x30 c:/pspsdk/bin/../lib/gcc/psp/4.3.5\libgcc.a(_div_df.o)
 .debug_frame   0x0000000000007788       0x2c c:/pspsdk/bin/../lib/gcc/psp/4.3.5\libgcc.a(_eq_df.o)
 .debug_frame   0x00000000000077b4       0x2c c:/pspsdk/bin/../lib/gcc/psp/4.3.5\libgcc.a(_ne_df.o)
 .debug_frame   0x00000000000077e0       0x2c c:/pspsdk/bin/../lib/gcc/psp/4.3.5\libgcc.a(_gt_df.o)
 .debug_frame   0x000000000000780c       0x2c c:/pspsdk/bin/../lib/gcc/psp/4.3.5\libgcc.a(_ge_df.o)
 .debug_frame   0x0000000000007838       0x2c c:/pspsdk/bin/../lib/gcc/psp/4.3.5\libgcc.a(_lt_df.o)
 .debug_frame   0x0000000000007864       0x2c c:/pspsdk/bin/../lib/gcc/psp/4.3.5\libgcc.a(_le_df.o)
 .debug_frame   0x0000000000007890       0x28 c:/pspsdk/bin/../lib/gcc/psp/4.3.5\libgcc.a(_si_to_df.o)
 .debug_frame   0x00000000000078b8       0x28 c:/pspsdk/bin/../lib/gcc/psp/4.3.5\libgcc.a(_df_to_si.o)
 .debug_frame   0x00000000000078e0       0x28 c:/pspsdk/bin/../lib/gcc/psp/4.3.5\libgcc.a(_make_df.o)
 .debug_frame   0x0000000000007908       0x28 c:/pspsdk/bin/../lib/gcc/psp/4.3.5\libgcc.a(_df_to_sf.o)
 .debug_frame   0x0000000000007930       0x28 c:/pspsdk/bin/../lib/gcc/psp/4.3.5\libgcc.a(_usi_to_df.o)
 .debug_frame   0x0000000000007958      0x404 c:/pspsdk/bin/../lib/gcc/psp/4.3.5\libgcc.a(unwind-dw2.o)
 .debug_frame   0x0000000000007d5c      0x298 c:/pspsdk/bin/../lib/gcc/psp/4.3.5\libgcc.a(unwind-dw2-fde.o)
 .debug_frame   0x0000000000007ff4       0x20 c:/pspsdk/bin/../lib/gcc/psp/4.3.5\libgcc.a(_ucmpdi2.o)
 .debug_frame   0x0000000000008014       0x20 c:/pspsdk/bin/../lib/gcc/psp/4.3.5\libgcc.a(_unpack_sf.o)
 .debug_frame   0x0000000000008034       0x28 c:/pspsdk/bin/../lib/gcc/psp/4.3.5\libgcc.a(_make_sf.o)
 .debug_frame   0x000000000000805c       0x34 c:/pspsdk/bin/../lib/gcc/psp/4.3.5\libgcc.a(_pack_df.o)
 .debug_frame   0x0000000000008090       0x20 c:/pspsdk/bin/../lib/gcc/psp/4.3.5\libgcc.a(_unpack_df.o)
 .debug_frame   0x00000000000080b0       0x20 c:/pspsdk/bin/../lib/gcc/psp/4.3.5\libgcc.a(_fpcmp_parts_df.o)
 .debug_frame   0x00000000000080d0       0x24 c:/pspsdk/bin/../lib/gcc/psp/4.3.5\libgcc.a(_pack_sf.o)

.debug_str      0x0000000000000000    0x1429f
 *(.debug_str)
 .debug_str     0x0000000000000000      0x2fe c:/pspsdk/bin/../lib/gcc/psp/4.3.5/../../../../psp/lib/crt0.o
                                        0x37a (size before relaxing)
 .debug_str     0x00000000000002fe      0xf05 psp/sound.o
                                       0x11da (size before relaxing)
 .debug_str     0x0000000000001203      0xc9a psp/gym/gym.o
                                       0x1533 (size before relaxing)
 .debug_str     0x0000000000001e9d      0x117 psp/gym/gym_play.o
                                        0x399 (size before relaxing)
 .debug_str     0x0000000000001fb4      0x635 psp/vgm/In_vgm.o
                                       0x103f (size before relaxing)
 .debug_str     0x00000000000025e9      0x808 c:/pspsdk/bin/../lib/gcc/psp/4.3.5/../../../../psp/lib\libosl.a(oslib.o)
                                        0xa66 (size before relaxing)
 .debug_str     0x0000000000002df1      0x56f c:/pspsdk/bin/../lib/gcc/psp/4.3.5/../../../../psp/lib\libosl.a(drawing.o)
                                        0x79a (size before relaxing)
 .debug_str     0x0000000000003360      0x200 c:/pspsdk/bin/../lib/gcc/psp/4.3.5/../../../../psp/lib\libosl.a(image.o)
                                        0x72a (size before relaxing)
 .debug_str     0x0000000000003560       0x68 c:/pspsdk/bin/../lib/gcc/psp/4.3.5/../../../../psp/lib\libosl.a(palette.o)
                                        0x2f3 (size before relaxing)
 .debug_str     0x00000000000035c8       0x7b c:/pspsdk/bin/../lib/gcc/psp/4.3.5/../../../../psp/lib\libosl.a(shape.o)
                                        0x25c (size before relaxing)
 .debug_str     0x0000000000003643      0x1d1 c:/pspsdk/bin/../lib/gcc/psp/4.3.5/../../../../psp/lib\libosl.a(messagebox.o)
                                        0x6c8 (size before relaxing)
 .debug_str     0x0000000000003814      0x26b c:/pspsdk/bin/../lib/gcc/psp/4.3.5/../../../../psp/lib\libosl.a(keys.o)
                                        0x70c (size before relaxing)
 .debug_str     0x0000000000003a7f       0x39 c:/pspsdk/bin/../lib/gcc/psp/4.3.5/../../../../psp/lib\libosl.a(vfpu.o)
                                        0x203 (size before relaxing)
 .debug_str     0x0000000000003ab8      0x3c3 c:/pspsdk/bin/../lib/gcc/psp/4.3.5/../../../../psp/lib\libosl.a(text.o)
                                        0x9e1 (size before relaxing)
 .debug_str     0x0000000000003e7b      0x142 c:/pspsdk/bin/../lib/gcc/psp/4.3.5/../../../../psp/lib\libosl.a(vram_mgr.o)
                                        0x327 (size before relaxing)
 .debug_str     0x0000000000003fbd      0x580 c:/pspsdk/bin/../lib/gcc/psp/4.3.5/../../../../psp/lib\libosl.a(audio.o)
                                        0x9f2 (size before relaxing)
 .debug_str     0x000000000000453d      0x18f c:/pspsdk/bin/../lib/gcc/psp/4.3.5/../../../../psp/lib\libosl.a(bgm.o)
                                        0x5d3 (size before relaxing)
 .debug_str     0x00000000000046cc       0x7a c:/pspsdk/bin/../lib/gcc/psp/4.3.5/../../../../psp/lib\libosl.a(usb.o)
                                        0x256 (size before relaxing)
 .debug_str     0x0000000000004746      0x257 c:/pspsdk/bin/../lib/gcc/psp/4.3.5/../../../../psp/lib\libosl.a(VirtualFile.o)
                                        0x51d (size before relaxing)
 .debug_str     0x000000000000499d       0xb4 c:/pspsdk/bin/../lib/gcc/psp/4.3.5/../../../../psp/lib\libosl.a(vfsFile.o)
                                        0x374 (size before relaxing)
 .debug_str     0x0000000000004a51       0x4c c:/pspsdk/bin/../lib/gcc/psp/4.3.5/../../../../psp/lib\libosl.a(oslDrawImage.o)
                                        0x31e (size before relaxing)
 .debug_str     0x0000000000004a9d       0x41 c:/pspsdk/bin/../lib/gcc/psp/4.3.5/../../../../psp/lib\libosl.a(oslDrawImageSimple.o)
                                        0x346 (size before relaxing)
 .debug_str     0x0000000000004ade       0x31 c:/pspsdk/bin/../lib/gcc/psp/4.3.5/../../../../psp/lib\libosl.a(oslLockImage.o)
                                        0x301 (size before relaxing)
 .debug_str     0x0000000000004b0f       0xcd c:/pspsdk/bin/../lib/gcc/psp/4.3.5/../../../../psp/lib\libosl.a(oslSwizzleImage.o)
                                        0x557 (size before relaxing)
 .debug_str     0x0000000000004bdc       0x2a c:/pspsdk/bin/../lib/gcc/psp/4.3.5/../../../../psp/lib\libosl.a(oslSetDrawBuffer.o)
                                        0x2eb (size before relaxing)
 .debug_str     0x0000000000004c06      0xb95 c:/pspsdk/bin/../lib/gcc/psp/4.3.5/../../../../psp/lib\libosl.a(oslWriteImageFilePNG.o)
                                       0x11ed (size before relaxing)
 .debug_str     0x000000000000579b       0x3a c:/pspsdk/bin/../lib/gcc/psp/4.3.5/../../../../psp/lib\libosl.a(oslLoadImageFile.o)
                                        0x303 (size before relaxing)
 .debug_str     0x00000000000057d5      0x576 c:/pspsdk/bin/../lib/gcc/psp/4.3.5/../../../../psp/lib\libosl.a(intraFont.o)
                                        0xcc3 (size before relaxing)
 .debug_str     0x0000000000005d4b      0x231 c:/pspsdk/bin/../lib/gcc/psp/4.3.5/../../../../psp/lib\libosl.a(libccc.o)
                                        0x391 (size before relaxing)
 .debug_str     0x0000000000005f7c       0x61 c:/pspsdk/bin/../lib/gcc/psp/4.3.5/../../../../psp/lib\libosl.a(oslHandleLoadNoFailError.o)
                                        0x369 (size before relaxing)
 .debug_str     0x0000000000005fdd       0xd8 c:/pspsdk/bin/../lib/gcc/psp/4.3.5/../../../../psp/lib\libosl.a(oslLoadImageFilePNG.o)
                                       0x12f7 (size before relaxing)
 .debug_str     0x00000000000060b5      0xb1b c:/pspsdk/bin/../lib/gcc/psp/4.3.5/../../../../psp/lib\libosl.a(oslLoadImageFileJPG.o)
                                       0x1385 (size before relaxing)
 .debug_str     0x0000000000006bd0      0x26c c:/pspsdk/bin/../lib/gcc/psp/4.3.5/../../../../psp/lib\libosl.a(oslLoadImageFileGIF.o)
                                        0x7ec (size before relaxing)
 .debug_str     0x0000000000006e3c       0x77 c:/pspsdk/bin/../lib/gcc/psp/4.3.5/../../../../psp/lib\libosl.a(oslConvertImageTo.o)
                                        0x44e (size before relaxing)
 .debug_str     0x0000000000006eb3       0x3c c:/pspsdk/bin/../lib/gcc/psp/4.3.5/../../../../psp/lib\libosl.a(oslSetImagePixel.o)
                                        0x34b (size before relaxing)
 .debug_str     0x0000000000006eef       0x2a c:/pspsdk/bin/../lib/gcc/psp/4.3.5/../../../../psp/lib\libosl.a(oslGetImagePixel.o)
                                        0x340 (size before relaxing)
 .debug_str     0x0000000000006f19      0x249 c:/pspsdk/bin/../lib/gcc/psp/4.3.5/../../../../psp/lib\libosl.a(dgif_lib.o)
                                        0x929 (size before relaxing)
 .debug_str     0x0000000000007162       0x1b c:/pspsdk/bin/../lib/gcc/psp/4.3.5/../../../../psp/lib\libosl.a(gif_err.o)
                                         0xfc (size before relaxing)
 .debug_str     0x000000000000717d      0x10f c:/pspsdk/bin/../lib/gcc/psp/4.3.5/../../../../psp/lib\libosl.a(gifalloc.o)
                                        0x383 (size before relaxing)
 .debug_str     0x000000000000728c      0xc72 c:/pspsdk/bin/../lib/gcc/psp/4.3.5/../../../../psp/lib\libjpeg.a(jdapimin.o)
                                       0x18cc (size before relaxing)
 .debug_str     0x0000000000007efe       0xaa c:/pspsdk/bin/../lib/gcc/psp/4.3.5/../../../../psp/lib\libjpeg.a(jdapistd.o)
                                       0x1895 (size before relaxing)
 .debug_str     0x0000000000007fa8       0x9e c:/pspsdk/bin/../lib/gcc/psp/4.3.5/../../../../psp/lib\libjpeg.a(jdatasrc.o)
                                       0x19c7 (size before relaxing)
 .debug_str     0x0000000000008046      0x124 c:/pspsdk/bin/../lib/gcc/psp/4.3.5/../../../../psp/lib\libjpeg.a(jdmaster.o)
                                       0x18fd (size before relaxing)
 .debug_str     0x000000000000816a      0x14a c:/pspsdk/bin/../lib/gcc/psp/4.3.5/../../../../psp/lib\libjpeg.a(jdinput.o)
                                       0x1917 (size before relaxing)
 .debug_str     0x00000000000082b4      0x381 c:/pspsdk/bin/../lib/gcc/psp/4.3.5/../../../../psp/lib\libjpeg.a(jdmarker.o)
                                       0x1c1f (size before relaxing)
 .debug_str     0x0000000000008635      0x36e c:/pspsdk/bin/../lib/gcc/psp/4.3.5/../../../../psp/lib\libjpeg.a(jdhuff.o)
                                       0x1b9a (size before relaxing)
 .debug_str     0x00000000000089a3      0x1bd c:/pspsdk/bin/../lib/gcc/psp/4.3.5/../../../../psp/lib\libjpeg.a(jdmainct.o)
                                       0x1991 (size before relaxing)
 .debug_str     0x0000000000008b60      0x1e4 c:/pspsdk/bin/../lib/gcc/psp/4.3.5/../../../../psp/lib\libjpeg.a(jdcoefct.o)
                                       0x114a (size before relaxing)
 .debug_str     0x0000000000008d44       0xed c:/pspsdk/bin/../lib/gcc/psp/4.3.5/../../../../psp/lib\libjpeg.a(jdpostct.o)
                                       0x1918 (size before relaxing)
 .debug_str     0x0000000000008e31       0x9e c:/pspsdk/bin/../lib/gcc/psp/4.3.5/../../../../psp/lib\libjpeg.a(jddctmgr.o)
                                       0x1894 (size before relaxing)
 .debug_str     0x0000000000008ecf       0x8a c:/pspsdk/bin/../lib/gcc/psp/4.3.5/../../../../psp/lib\libjpeg.a(jidctfst.o)
                                        0xfdf (size before relaxing)
 .debug_str     0x0000000000008f59       0x1b c:/pspsdk/bin/../lib/gcc/psp/4.3.5/../../../../psp/lib\libjpeg.a(jidctflt.o)
                                        0xfd7 (size before relaxing)
 .debug_str     0x0000000000008f74      0x225 c:/pspsdk/bin/../lib/gcc/psp/4.3.5/../../../../psp/lib\libjpeg.a(jidctint.o)
                                       0x11dd (size before relaxing)
 .debug_str     0x0000000000009199      0x16e c:/pspsdk/bin/../lib/gcc/psp/4.3.5/../../../../psp/lib\libjpeg.a(jdsample.o)
                                       0x19b1 (size before relaxing)
 .debug_str     0x0000000000009307      0x12e c:/pspsdk/bin/../lib/gcc/psp/4.3.5/../../../../psp/lib\libjpeg.a(jdcolor.o)
                                       0x1936 (size before relaxing)
 .debug_str     0x0000000000009435      0x2db c:/pspsdk/bin/../lib/gcc/psp/4.3.5/../../../../psp/lib\libjpeg.a(jquant1.o)
                                       0x1b24 (size before relaxing)
 .debug_str     0x0000000000009710      0x34f c:/pspsdk/bin/../lib/gcc/psp/4.3.5/../../../../psp/lib\libjpeg.a(jquant2.o)
                                       0x1c66 (size before relaxing)
 .debug_str     0x0000000000009a5f       0xf4 c:/pspsdk/bin/../lib/gcc/psp/4.3.5/../../../../psp/lib\libjpeg.a(jdmerge.o)
                                       0x1101 (size before relaxing)
 .debug_str     0x0000000000009b53       0x4f c:/pspsdk/bin/../lib/gcc/psp/4.3.5/../../../../psp/lib\libjpeg.a(jcomapi.o)
                                        0xf59 (size before relaxing)
 .debug_str     0x0000000000009ba2       0x9c c:/pspsdk/bin/../lib/gcc/psp/4.3.5/../../../../psp/lib\libjpeg.a(jutils.o)
                                        0x287 (size before relaxing)
 .debug_str     0x0000000000009c3e       0x51 c:/pspsdk/bin/../lib/gcc/psp/4.3.5/../../../../psp/lib\libjpeg.a(jerror.o)
                                       0x10cc (size before relaxing)
 .debug_str     0x0000000000009c8f      0x347 c:/pspsdk/bin/../lib/gcc/psp/4.3.5/../../../../psp/lib\libjpeg.a(jmemmgr.o)
                                       0x1455 (size before relaxing)
 .debug_str     0x0000000000009fd6       0xd7 c:/pspsdk/bin/../lib/gcc/psp/4.3.5/../../../../psp/lib\libjpeg.a(jmemnobs.o)
                                       0x11d3 (size before relaxing)
 .debug_str     0x000000000000a0ad       0x8f c:/pspsdk/bin/../lib/gcc/psp/4.3.5/../../../../psp/lib\libjpeg.a(jdarith.o)
                                       0x1929 (size before relaxing)
 .debug_str     0x000000000000a13c        0xa c:/pspsdk/bin/../lib/gcc/psp/4.3.5/../../../../psp/lib\libjpeg.a(jaricom.o)
                                        0x101 (size before relaxing)
 .debug_str     0x000000000000a146       0xed c:/pspsdk/psp/sdk/lib\libpspsdk.a(loadmodule.o)
                                        0x1d2 (size before relaxing)
 .debug_str     0x000000000000a233       0x79 c:/pspsdk/psp/sdk/lib\libpspgu.a(sceGuAlphaFunc.o)
                                         0xfc (size before relaxing)
 .debug_str     0x000000000000a2ac       0x40 c:/pspsdk/psp/sdk/lib\libpspgu.a(sceGuAmbientColor.o)
                                        0x108 (size before relaxing)
 .debug_str     0x000000000000a2ec       0x49 c:/pspsdk/psp/sdk/lib\libpspgu.a(sceGuBlendFunc.o)
                                        0x110 (size before relaxing)
 .debug_str     0x000000000000a335      0x1a8 c:/pspsdk/psp/sdk/lib\libpspgu.a(sceGuClear.o)
                                        0x2d2 (size before relaxing)
 .debug_str     0x000000000000a4dd       0x3c c:/pspsdk/psp/sdk/lib\libpspgu.a(sceGuClearColor.o)
                                        0x230 (size before relaxing)
 .debug_str     0x000000000000a519       0x38 c:/pspsdk/psp/sdk/lib\libpspgu.a(sceGuClutLoad.o)
                                        0x105 (size before relaxing)
 .debug_str     0x000000000000a551       0x3d c:/pspsdk/psp/sdk/lib\libpspgu.a(sceGuClutMode.o)
                                        0x113 (size before relaxing)
 .debug_str     0x000000000000a58e       0x3a c:/pspsdk/psp/sdk/lib\libpspgu.a(sceGuColorFunc.o)
                                        0x10c (size before relaxing)
 .debug_str     0x000000000000a5c8       0x3e c:/pspsdk/psp/sdk/lib\libpspgu.a(sceGuDepthBuffer.o)
                                        0x172 (size before relaxing)
 .debug_str     0x000000000000a606       0x3a c:/pspsdk/psp/sdk/lib\libpspgu.a(sceGuDepthFunc.o)
                                        0x105 (size before relaxing)
 .debug_str     0x000000000000a640       0x3c c:/pspsdk/psp/sdk/lib\libpspgu.a(sceGuDepthRange.o)
                                        0x22f (size before relaxing)
 .debug_str     0x000000000000a67c       0x40 c:/pspsdk/psp/sdk/lib\libpspgu.a(sceGuDisable.o)
                                        0x2a6 (size before relaxing)
 .debug_str     0x000000000000a6bc       0xc3 c:/pspsdk/psp/sdk/lib\libpspgu.a(sceGuDispBuffer.o)
                                        0x212 (size before relaxing)
 .debug_str     0x000000000000a77f       0x36 c:/pspsdk/psp/sdk/lib\libpspgu.a(sceGuDisplay.o)
                                        0x1f9 (size before relaxing)
 .debug_str     0x000000000000a7b5       0x45 c:/pspsdk/psp/sdk/lib\libpspgu.a(sceGuDrawArray.o)
                                        0x11e (size before relaxing)
 .debug_str     0x000000000000a7fa       0x3c c:/pspsdk/psp/sdk/lib\libpspgu.a(sceGuDrawBuffer.o)
                                        0x170 (size before relaxing)
 .debug_str     0x000000000000a836       0x34 c:/pspsdk/psp/sdk/lib\libpspgu.a(sceGuEnable.o)
                                        0x232 (size before relaxing)
 .debug_str     0x000000000000a86a       0x57 c:/pspsdk/psp/sdk/lib\libpspgu.a(sceGuFinish.o)
                                        0x242 (size before relaxing)
 .debug_str     0x000000000000a8c1       0x3a c:/pspsdk/psp/sdk/lib\libpspgu.a(sceGuFrontFace.o)
                                        0x102 (size before relaxing)
 .debug_str     0x000000000000a8fb       0x5c c:/pspsdk/psp/sdk/lib\libpspgu.a(sceGuGetMemory.o)
                                        0x181 (size before relaxing)
 .debug_str     0x000000000000a957      0x12a c:/pspsdk/psp/sdk/lib\libpspgu.a(sceGuInit.o)
                                        0x281 (size before relaxing)
 .debug_str     0x000000000000aa81       0x34 c:/pspsdk/psp/sdk/lib\libpspgu.a(sceGuOffset.o)
                                         0xf6 (size before relaxing)
 .debug_str     0x000000000000aab5       0x42 c:/pspsdk/psp/sdk/lib\libpspgu.a(sceGuScissor.o)
                                        0x230 (size before relaxing)
 .debug_str     0x000000000000aaf7       0x3c c:/pspsdk/psp/sdk/lib\libpspgu.a(sceGuShadeModel.o)
                                        0x103 (size before relaxing)
 .debug_str     0x000000000000ab33       0x63 c:/pspsdk/psp/sdk/lib\libpspgu.a(sceGuStart.o)
                                        0x3a4 (size before relaxing)
 .debug_str     0x000000000000ab96       0x3e c:/pspsdk/psp/sdk/lib\libpspgu.a(sceGuStencilFunc.o)
                                        0x10a (size before relaxing)
 .debug_str     0x000000000000abd4       0x46 c:/pspsdk/psp/sdk/lib\libpspgu.a(sceGuStencilOp.o)
                                        0x10d (size before relaxing)
 .debug_str     0x000000000000ac1a       0x86 c:/pspsdk/psp/sdk/lib\libpspgu.a(sceGuSwapBuffers.o)
                                        0x2a1 (size before relaxing)
 .debug_str     0x000000000000aca0       0x35 c:/pspsdk/psp/sdk/lib\libpspgu.a(sceGuSync.o)
                                        0x128 (size before relaxing)
 .debug_str     0x000000000000acd5       0x30 c:/pspsdk/psp/sdk/lib\libpspgu.a(sceGuTerm.o)
                                        0x1ac (size before relaxing)
 .debug_str     0x000000000000ad05       0x3e c:/pspsdk/psp/sdk/lib\libpspgu.a(sceGuTexEnvColor.o)
                                        0x106 (size before relaxing)
 .debug_str     0x000000000000ad43       0x3a c:/pspsdk/psp/sdk/lib\libpspgu.a(sceGuTexFilter.o)
                                         0xfc (size before relaxing)
 .debug_str     0x000000000000ad7d       0x36 c:/pspsdk/psp/sdk/lib\libpspgu.a(sceGuTexFunc.o)
                                        0x224 (size before relaxing)
 .debug_str     0x000000000000adb3       0x69 c:/pspsdk/psp/sdk/lib\libpspgu.a(sceGuTexImage.o)
                                        0x138 (size before relaxing)
 .debug_str     0x000000000000ae1c       0x4b c:/pspsdk/psp/sdk/lib\libpspgu.a(sceGuTexMode.o)
                                        0x239 (size before relaxing)
 .debug_str     0x000000000000ae67       0x3a c:/pspsdk/psp/sdk/lib\libpspgu.a(sceGuTexOffset.o)
                                         0xfc (size before relaxing)
 .debug_str     0x000000000000aea1       0x38 c:/pspsdk/psp/sdk/lib\libpspgu.a(sceGuTexScale.o)
                                         0xfa (size before relaxing)
 .debug_str     0x000000000000aed9       0x36 c:/pspsdk/psp/sdk/lib\libpspgu.a(sceGuTexWrap.o)
                                         0xf8 (size before relaxing)
 .debug_str     0x000000000000af0f       0x38 c:/pspsdk/psp/sdk/lib\libpspgu.a(sceGuViewport.o)
                                        0x107 (size before relaxing)
 .debug_str     0x000000000000af47       0x6a c:/pspsdk/psp/sdk/lib\libpspgu.a(sendCommand.o)
                                        0x1a4 (size before relaxing)
 .debug_str     0x000000000000afb1       0x34 c:/pspsdk/psp/sdk/lib\libpspgu.a(callbackFin.o)
                                        0x192 (size before relaxing)
 .debug_str     0x000000000000afe5       0x34 c:/pspsdk/psp/sdk/lib\libpspgu.a(callbackSig.o)
                                        0x1ad (size before relaxing)
 .debug_str     0x000000000000b019       0xb7 c:/pspsdk/psp/sdk/lib\libpspgu.a(guInternal.o)
                                        0x438 (size before relaxing)
 .debug_str     0x000000000000b0d0       0x34 c:/pspsdk/psp/sdk/lib\libpspgu.a(resetValues.o)
                                        0x377 (size before relaxing)
 .debug_str     0x000000000000b104       0x42 c:/pspsdk/psp/sdk/lib\libpspgu.a(sceGuColorMaterial.o)
                                        0x104 (size before relaxing)
 .debug_str     0x000000000000b146       0x3e c:/pspsdk/psp/sdk/lib\libpspgu.a(sceGuPatchDivide.o)
                                        0x100 (size before relaxing)
 .debug_str     0x000000000000b184       0x3a c:/pspsdk/psp/sdk/lib\libpspgu.a(sceGuSetDither.o)
                                        0x121 (size before relaxing)
 .debug_str     0x000000000000b1be       0x3e c:/pspsdk/psp/sdk/lib\libpspgu.a(sceGuSpecular.o)
                                        0x100 (size before relaxing)
 .debug_str     0x000000000000b1fc       0x38 c:/pspsdk/psp/sdk/lib\libpspgu.a(sceGuTexFlush.o)
                                         0xfa (size before relaxing)
 .debug_str     0x000000000000b234      0x112 c:/pspsdk/bin/../lib/gcc/psp/4.3.5/../../../../psp/lib\libstdc++.a(del_op.o)
                                        0x1ed (size before relaxing)
 .debug_str     0x000000000000b346       0x55 c:/pspsdk/bin/../lib/gcc/psp/4.3.5/../../../../psp/lib\libstdc++.a(del_opv.o)
                                         0xc9 (size before relaxing)
 .debug_str     0x000000000000b39b       0x5b c:/pspsdk/bin/../lib/gcc/psp/4.3.5/../../../../psp/lib\libstdc++.a(new_op.o)
                                        0x224 (size before relaxing)
 .debug_str     0x000000000000b3f6       0x51 c:/pspsdk/bin/../lib/gcc/psp/4.3.5/../../../../psp/lib\libstdc++.a(new_opv.o)
                                         0xcc (size before relaxing)
 .debug_str     0x000000000000b447      0x4b9 c:/pspsdk/bin/../lib/gcc/psp/4.3.5/../../../../psp/lib\libstdc++.a(eh_alloc.o)
                                        0x732 (size before relaxing)
 .debug_str     0x000000000000b900       0x6c c:/pspsdk/bin/../lib/gcc/psp/4.3.5/../../../../psp/lib\libstdc++.a(eh_globals.o)
                                        0x4c4 (size before relaxing)
 .debug_str     0x000000000000b96c      0x43c c:/pspsdk/bin/../lib/gcc/psp/4.3.5/../../../../psp/lib\libstdc++.a(eh_personality.o)
                                        0x924 (size before relaxing)
 .debug_str     0x000000000000bda8      0x188 c:/pspsdk/bin/../lib/gcc/psp/4.3.5/../../../../psp/lib\libstdc++.a(eh_terminate.o)
                                        0x3a4 (size before relaxing)
 .debug_str     0x000000000000bf30       0x43 c:/pspsdk/bin/../lib/gcc/psp/4.3.5/../../../../psp/lib\libstdc++.a(eh_term_handler.o)
                                        0x17c (size before relaxing)
 .debug_str     0x000000000000bf73       0x8e c:/pspsdk/bin/../lib/gcc/psp/4.3.5/../../../../psp/lib\libstdc++.a(eh_throw.o)
                                        0x4c5 (size before relaxing)
 .debug_str     0x000000000000c001       0x43 c:/pspsdk/bin/../lib/gcc/psp/4.3.5/../../../../psp/lib\libstdc++.a(eh_unex_handler.o)
                                        0x17f (size before relaxing)
 .debug_str     0x000000000000c044       0xb1 c:/pspsdk/bin/../lib/gcc/psp/4.3.5/../../../../psp/lib\libstdc++.a(new_handler.o)
                                        0x17c (size before relaxing)
 .debug_str     0x000000000000c0f5      0x3da c:/pspsdk/bin/../lib/gcc/psp/4.3.5/../../../../psp/lib\libstdc++.a(si_class_type_info.o)
                                        0x4db (size before relaxing)
 .debug_str     0x000000000000c4cf      0x1af c:/pspsdk/bin/../lib/gcc/psp/4.3.5/../../../../psp/lib\libstdc++.a(tinfo.o)
                                        0x2dc (size before relaxing)
 .debug_str     0x000000000000c67e      0x12f c:/pspsdk/bin/../lib/gcc/psp/4.3.5/../../../../psp/lib\libstdc++.a(vterminate.o)
                                        0x706 (size before relaxing)
 .debug_str     0x000000000000c7ad      0x278 c:/pspsdk/bin/../lib/gcc/psp/4.3.5/../../../../psp/lib\libstdc++.a(class_type_info.o)
                                        0x54d (size before relaxing)
 .debug_str     0x000000000000ca25       0x50 c:/pspsdk/bin/../lib/gcc/psp/4.3.5/../../../../psp/lib\libstdc++.a(eh_call.o)
                                        0x4af (size before relaxing)
 .debug_str     0x000000000000ca75       0xcf c:/pspsdk/bin/../lib/gcc/psp/4.3.5/../../../../psp/lib\libstdc++.a(eh_catch.o)
                                        0x57e (size before relaxing)
 .debug_str     0x000000000000cb44      0x168 c:/pspsdk/bin/../lib/gcc/psp/4.3.5/../../../../psp/lib\libstdc++.a(eh_exception.o)
                                        0x25a (size before relaxing)
 .debug_str     0x000000000000ccac       0x58 c:/pspsdk/bin/../lib/gcc/psp/4.3.5/../../../../psp/lib\libstdc++.a(eh_type.o)
                                        0x3d1 (size before relaxing)
 .debug_str     0x000000000000cd04       0x4b c:/pspsdk/bin/../lib/gcc/psp/4.3.5/../../../../psp/lib\libstdc++.a(pure.o)
                                        0x179 (size before relaxing)
 .debug_str     0x000000000000cd4f       0x97 c:/pspsdk/bin/../lib/gcc/psp/4.3.5/../../../../psp/lib\libm.a(lib_a-s_ceil.o)
                                        0x148 (size before relaxing)
 .debug_str     0x000000000000cde6       0x43 c:/pspsdk/bin/../lib/gcc/psp/4.3.5/../../../../psp/lib\libm.a(lib_a-s_floor.o)
                                        0x14a (size before relaxing)
 .debug_str     0x000000000000ce29       0x3b c:/pspsdk/bin/../lib/gcc/psp/4.3.5/../../../../psp/lib\libm.a(lib_a-s_log.o)
                                        0x142 (size before relaxing)
 .debug_str     0x000000000000ce64       0x3d c:/pspsdk/bin/../lib/gcc/psp/4.3.5/../../../../psp/lib\libm.a(lib_a-s_log10.o)
                                        0x14a (size before relaxing)
 .debug_str     0x000000000000cea1       0x65 c:/pspsdk/bin/../lib/gcc/psp/4.3.5/../../../../psp/lib\libm.a(lib_a-s_logarithm.o)
                                        0x16c (size before relaxing)
 .debug_str     0x000000000000cf06       0x91 c:/pspsdk/bin/../lib/gcc/psp/4.3.5/../../../../psp/lib\libm.a(lib_a-s_mathcnst.o)
                                        0x1ad (size before relaxing)
 .debug_str     0x000000000000cf97       0xd7 c:/pspsdk/bin/../lib/gcc/psp/4.3.5/../../../../psp/lib\libm.a(lib_a-s_modf.o)
                                        0x194 (size before relaxing)
 .debug_str     0x000000000000d06e       0x55 c:/pspsdk/bin/../lib/gcc/psp/4.3.5/../../../../psp/lib\libm.a(lib_a-s_pow.o)
                                        0x1a6 (size before relaxing)
 .debug_str     0x000000000000d0c3       0x3b c:/pspsdk/bin/../lib/gcc/psp/4.3.5/../../../../psp/lib\libm.a(lib_a-s_sin.o)
                                        0x142 (size before relaxing)
 .debug_str     0x000000000000d0fe       0x5c c:/pspsdk/bin/../lib/gcc/psp/4.3.5/../../../../psp/lib\libm.a(lib_a-s_sine.o)
                                        0x17c (size before relaxing)
 .debug_str     0x000000000000d15a       0x41 c:/pspsdk/bin/../lib/gcc/psp/4.3.5/../../../../psp/lib\libm.a(lib_a-s_sqrt.o)
                                        0x15d (size before relaxing)
 .debug_str     0x000000000000d19b       0x43 c:/pspsdk/bin/../lib/gcc/psp/4.3.5/../../../../psp/lib\libm.a(lib_a-s_exp.o)
                                        0x16b (size before relaxing)
 .debug_str     0x000000000000d1de       0x41 c:/pspsdk/bin/../lib/gcc/psp/4.3.5/../../../../psp/lib\libm.a(lib_a-s_fabs.o)
                                        0x148 (size before relaxing)
 .debug_str     0x000000000000d21f       0x50 c:/pspsdk/bin/../lib/gcc/psp/4.3.5/../../../../psp/lib\libm.a(lib_a-s_fpclassify.o)
                                        0x162 (size before relaxing)
 .debug_str     0x000000000000d26f       0x43 c:/pspsdk/bin/../lib/gcc/psp/4.3.5/../../../../psp/lib\libm.a(lib_a-s_frexp.o)
                                        0x17d (size before relaxing)
 .debug_str     0x000000000000d2b2       0x48 c:/pspsdk/bin/../lib/gcc/psp/4.3.5/../../../../psp/lib\libm.a(lib_a-s_ispos.o)
                                        0x17d (size before relaxing)
 .debug_str     0x000000000000d2fa       0x43 c:/pspsdk/bin/../lib/gcc/psp/4.3.5/../../../../psp/lib\libm.a(lib_a-s_ldexp.o)
                                        0x188 (size before relaxing)
 .debug_str     0x000000000000d33d       0x47 c:/pspsdk/bin/../lib/gcc/psp/4.3.5/../../../../psp/lib\libm.a(lib_a-s_numtest.o)
                                        0x181 (size before relaxing)
 .debug_str     0x000000000000d384       0xb2 c:/pspsdk/bin/../lib/gcc/psp/4.3.5/../../../../psp/lib\libc.a(fprintf.o)
                                        0x527 (size before relaxing)
 .debug_str     0x000000000000d436       0x91 c:/pspsdk/bin/../lib/gcc/psp/4.3.5/../../../../psp/lib\libc.a(lib_a-abort.o)
                                        0x12f (size before relaxing)
 .debug_str     0x000000000000d4c7       0x6c c:/pspsdk/bin/../lib/gcc/psp/4.3.5/../../../../psp/lib\libc.a(lib_a-atexit.o)
                                        0x161 (size before relaxing)
 .debug_str     0x000000000000d533       0x3a c:/pspsdk/bin/../lib/gcc/psp/4.3.5/../../../../psp/lib\libc.a(lib_a-atof.o)
                                        0x134 (size before relaxing)
 .debug_str     0x000000000000d56d       0x42 c:/pspsdk/bin/../lib/gcc/psp/4.3.5/../../../../psp/lib\libc.a(lib_a-atoi.o)
                                        0x4e4 (size before relaxing)
 .debug_str     0x000000000000d5af       0x43 c:/pspsdk/bin/../lib/gcc/psp/4.3.5/../../../../psp/lib\libc.a(lib_a-calloc.o)
                                        0x4f8 (size before relaxing)
 .debug_str     0x000000000000d5f2       0x81 c:/pspsdk/bin/../lib/gcc/psp/4.3.5/../../../../psp/lib\libc.a(lib_a-callocr.o)
                                        0x52a (size before relaxing)
 .debug_str     0x000000000000d673       0x98 c:/pspsdk/bin/../lib/gcc/psp/4.3.5/../../../../psp/lib\libc.a(lib_a-ctype_.o)
                                         0xba (size before relaxing)
 .debug_str     0x000000000000d70b       0x97 c:/pspsdk/bin/../lib/gcc/psp/4.3.5/../../../../psp/lib\libc.a(lib_a-errno.o)
                                        0x4ea (size before relaxing)
 .debug_str     0x000000000000d7a2       0x4d c:/pspsdk/bin/../lib/gcc/psp/4.3.5/../../../../psp/lib\libc.a(lib_a-exit.o)
                                        0x4f4 (size before relaxing)
 .debug_str     0x000000000000d7ef       0x9a c:/pspsdk/bin/../lib/gcc/psp/4.3.5/../../../../psp/lib\libc.a(lib_a-fclose.o)
                                        0x4fe (size before relaxing)
 .debug_str     0x000000000000d889       0x62 c:/pspsdk/bin/../lib/gcc/psp/4.3.5/../../../../psp/lib\libc.a(lib_a-fdopen.o)
                                        0x51a (size before relaxing)
 .debug_str     0x000000000000d8eb       0x56 c:/pspsdk/bin/../lib/gcc/psp/4.3.5/../../../../psp/lib\libc.a(lib_a-fflush.o)
                                        0x524 (size before relaxing)
 .debug_str     0x000000000000d941       0x43 c:/pspsdk/bin/../lib/gcc/psp/4.3.5/../../../../psp/lib\libc.a(lib_a-fgetc.o)
                                        0x4fd (size before relaxing)
 .debug_str     0x000000000000d984       0x43 c:/pspsdk/bin/../lib/gcc/psp/4.3.5/../../../../psp/lib\libc.a(lib_a-fgets.o)
                                        0x4fd (size before relaxing)
 .debug_str     0x000000000000d9c7       0xfd c:/pspsdk/bin/../lib/gcc/psp/4.3.5/../../../../psp/lib\libc.a(lib_a-findfp.o)
                                        0x5dc (size before relaxing)
 .debug_str     0x000000000000dac4       0x48 c:/pspsdk/bin/../lib/gcc/psp/4.3.5/../../../../psp/lib\libc.a(lib_a-flags.o)
                                        0x4e9 (size before relaxing)
 .debug_str     0x000000000000db0c       0xa9 c:/pspsdk/bin/../lib/gcc/psp/4.3.5/../../../../psp/lib\libc.a(lib_a-fmemopen.o)
                                        0x59b (size before relaxing)
 .debug_str     0x000000000000dbb5       0x43 c:/pspsdk/bin/../lib/gcc/psp/4.3.5/../../../../psp/lib\libc.a(lib_a-fopen.o)
                                        0x50d (size before relaxing)
 .debug_str     0x000000000000dbf8       0x49 c:/pspsdk/bin/../lib/gcc/psp/4.3.5/../../../../psp/lib\libc.a(lib_a-fputc.o)
                                        0x502 (size before relaxing)
 .debug_str     0x000000000000dc41       0x85 c:/pspsdk/bin/../lib/gcc/psp/4.3.5/../../../../psp/lib\libc.a(lib_a-fputs.o)
                                        0x540 (size before relaxing)
 .debug_str     0x000000000000dcc6       0x65 c:/pspsdk/bin/../lib/gcc/psp/4.3.5/../../../../psp/lib\libc.a(lib_a-fread.o)
                                        0x536 (size before relaxing)
 .debug_str     0x000000000000dd2b       0xee c:/pspsdk/bin/../lib/gcc/psp/4.3.5/../../../../psp/lib\libc.a(lib_a-freer.o)
                                        0x62b (size before relaxing)
 .debug_str     0x000000000000de19      0x119 c:/pspsdk/bin/../lib/gcc/psp/4.3.5/../../../../psp/lib\libc.a(lib_a-fseek.o)
                                        0x61a (size before relaxing)
 .debug_str     0x000000000000df32       0x9f c:/pspsdk/bin/../lib/gcc/psp/4.3.5/../../../../psp/lib\libc.a(lib_a-fstatr.o)
                                        0x5d9 (size before relaxing)
 .debug_str     0x000000000000dfd1       0x43 c:/pspsdk/bin/../lib/gcc/psp/4.3.5/../../../../psp/lib\libc.a(lib_a-ftell.o)
                                        0x4f6 (size before relaxing)
 .debug_str     0x000000000000e014       0x67 c:/pspsdk/bin/../lib/gcc/psp/4.3.5/../../../../psp/lib\libc.a(lib_a-fvwrite.o)
                                        0x54b (size before relaxing)
 .debug_str     0x000000000000e07b       0x5f c:/pspsdk/bin/../lib/gcc/psp/4.3.5/../../../../psp/lib\libc.a(lib_a-fwalk.o)
                                        0x51d (size before relaxing)
 .debug_str     0x000000000000e0da       0x4c c:/pspsdk/bin/../lib/gcc/psp/4.3.5/../../../../psp/lib\libc.a(lib_a-fwrite.o)
                                        0x547 (size before relaxing)
 .debug_str     0x000000000000e126       0x45 c:/pspsdk/bin/../lib/gcc/psp/4.3.5/../../../../psp/lib\libc.a(lib_a-getenv.o)
                                        0x501 (size before relaxing)
 .debug_str     0x000000000000e16b       0x5d c:/pspsdk/bin/../lib/gcc/psp/4.3.5/../../../../psp/lib\libc.a(lib_a-getenv_r.o)
                                        0x518 (size before relaxing)
 .debug_str     0x000000000000e1c8       0x94 c:/pspsdk/bin/../lib/gcc/psp/4.3.5/../../../../psp/lib\libc.a(lib_a-gmtime.o)
                                        0x53b (size before relaxing)
 .debug_str     0x000000000000e25c       0x45 c:/pspsdk/bin/../lib/gcc/psp/4.3.5/../../../../psp/lib\libc.a(lib_a-gmtime_r.o)
                                        0x184 (size before relaxing)
 .debug_str     0x000000000000e2a1       0x47 c:/pspsdk/bin/../lib/gcc/psp/4.3.5/../../../../psp/lib\libc.a(lib_a-impure.o)
                                        0x502 (size before relaxing)
 .debug_str     0x000000000000e2e8       0x47 c:/pspsdk/bin/../lib/gcc/psp/4.3.5/../../../../psp/lib\libc.a(lib_a-iprintf.o)
                                        0x520 (size before relaxing)
 .debug_str     0x000000000000e32f       0x45 c:/pspsdk/bin/../lib/gcc/psp/4.3.5/../../../../psp/lib\libc.a(lib_a-lcltime.o)
                                        0x53f (size before relaxing)
 .debug_str     0x000000000000e374       0x49 c:/pspsdk/bin/../lib/gcc/psp/4.3.5/../../../../psp/lib\libc.a(lib_a-lcltime_r.o)
                                        0x188 (size before relaxing)
 .debug_str     0x000000000000e3bd       0x54 c:/pspsdk/bin/../lib/gcc/psp/4.3.5/../../../../psp/lib\libc.a(lib_a-makebuf.o)
                                        0x5ee (size before relaxing)
 .debug_str     0x000000000000e411       0x45 c:/pspsdk/bin/../lib/gcc/psp/4.3.5/../../../../psp/lib\libc.a(lib_a-malign.o)
                                        0x502 (size before relaxing)
 .debug_str     0x000000000000e456       0x3d c:/pspsdk/bin/../lib/gcc/psp/4.3.5/../../../../psp/lib\libc.a(lib_a-malignr.o)
                                        0x55c (size before relaxing)
 .debug_str     0x000000000000e493       0x41 c:/pspsdk/bin/../lib/gcc/psp/4.3.5/../../../../psp/lib\libc.a(lib_a-malloc.o)
                                        0x504 (size before relaxing)
 .debug_str     0x000000000000e4d4       0xca c:/pspsdk/bin/../lib/gcc/psp/4.3.5/../../../../psp/lib\libc.a(lib_a-mallocr.o)
                                        0x6d9 (size before relaxing)
 .debug_str     0x000000000000e59e       0xa2 c:/pspsdk/bin/../lib/gcc/psp/4.3.5/../../../../psp/lib\libc.a(lib_a-memchr.o)
                                        0x152 (size before relaxing)
 .debug_str     0x000000000000e640       0x43 c:/pspsdk/bin/../lib/gcc/psp/4.3.5/../../../../psp/lib\libc.a(lib_a-memcmp.o)
                                        0x138 (size before relaxing)
 .debug_str     0x000000000000e683       0xdf c:/pspsdk/bin/../lib/gcc/psp/4.3.5/../../../../psp/lib\libc.a(lib_a-memcpy.o)
                                        0x129 (size before relaxing)
 .debug_str     0x000000000000e762       0x4e c:/pspsdk/bin/../lib/gcc/psp/4.3.5/../../../../psp/lib\libc.a(lib_a-memmove.o)
                                        0x16b (size before relaxing)
 .debug_str     0x000000000000e7b0       0x64 c:/pspsdk/bin/../lib/gcc/psp/4.3.5/../../../../psp/lib\libc.a(lib_a-memset.o)
                                        0x175 (size before relaxing)
 .debug_str     0x000000000000e814      0x11c c:/pspsdk/bin/../lib/gcc/psp/4.3.5/../../../../psp/lib\libc.a(lib_a-mktm_r.o)
                                        0x273 (size before relaxing)
 .debug_str     0x000000000000e930       0x6e c:/pspsdk/bin/../lib/gcc/psp/4.3.5/../../../../psp/lib\libc.a(lib_a-mlock.o)
                                        0x50b (size before relaxing)
 .debug_str     0x000000000000e99e       0x42 c:/pspsdk/bin/../lib/gcc/psp/4.3.5/../../../../psp/lib\libc.a(lib_a-openr.o)
                                        0x4f4 (size before relaxing)
 .debug_str     0x000000000000e9e0       0x41 c:/pspsdk/bin/../lib/gcc/psp/4.3.5/../../../../psp/lib\libc.a(lib_a-putc.o)
                                        0x4fa (size before relaxing)
 .debug_str     0x000000000000ea21       0x3a c:/pspsdk/bin/../lib/gcc/psp/4.3.5/../../../../psp/lib\libc.a(lib_a-rand.o)
                                        0x4f3 (size before relaxing)
 .debug_str     0x000000000000ea5b       0x45 c:/pspsdk/bin/../lib/gcc/psp/4.3.5/../../../../psp/lib\libc.a(lib_a-realloc.o)
                                        0x4fc (size before relaxing)
 .debug_str     0x000000000000eaa0       0x49 c:/pspsdk/bin/../lib/gcc/psp/4.3.5/../../../../psp/lib\libc.a(lib_a-reallocr.o)
                                        0x5ab (size before relaxing)
 .debug_str     0x000000000000eae9       0x74 c:/pspsdk/bin/../lib/gcc/psp/4.3.5/../../../../psp/lib\libc.a(lib_a-reent.o)
                                        0x527 (size before relaxing)
 .debug_str     0x000000000000eb5d       0x4e c:/pspsdk/bin/../lib/gcc/psp/4.3.5/../../../../psp/lib\libc.a(lib_a-refill.o)
                                        0x502 (size before relaxing)
 .debug_str     0x000000000000ebab       0x4b c:/pspsdk/bin/../lib/gcc/psp/4.3.5/../../../../psp/lib\libc.a(lib_a-rget.o)
                                        0x4f8 (size before relaxing)
 .debug_str     0x000000000000ebf6       0x47 c:/pspsdk/bin/../lib/gcc/psp/4.3.5/../../../../psp/lib\libc.a(lib_a-sbrkr.o)
                                        0x4f3 (size before relaxing)
 .debug_str     0x000000000000ec3d       0xec c:/pspsdk/bin/../lib/gcc/psp/4.3.5/../../../../psp/lib\libc.a(lib_a-signal.o)
                                        0x555 (size before relaxing)
 .debug_str     0x000000000000ed29       0x4e c:/pspsdk/bin/../lib/gcc/psp/4.3.5/../../../../psp/lib\libc.a(lib_a-signalr.o)
                                        0x4f0 (size before relaxing)
 .debug_str     0x000000000000ed77       0x49 c:/pspsdk/bin/../lib/gcc/psp/4.3.5/../../../../psp/lib\libc.a(lib_a-snprintf.o)
                                        0x534 (size before relaxing)
 .debug_str     0x000000000000edc0       0x4f c:/pspsdk/bin/../lib/gcc/psp/4.3.5/../../../../psp/lib\libc.a(lib_a-sprintf.o)
                                        0x525 (size before relaxing)
 .debug_str     0x000000000000ee0f       0x4c c:/pspsdk/bin/../lib/gcc/psp/4.3.5/../../../../psp/lib\libc.a(lib_a-sscanf.o)
                                        0x522 (size before relaxing)
 .debug_str     0x000000000000ee5b       0x67 c:/pspsdk/bin/../lib/gcc/psp/4.3.5/../../../../psp/lib\libc.a(lib_a-stdio.o)
                                        0x529 (size before relaxing)
 .debug_str     0x000000000000eec2       0x50 c:/pspsdk/bin/../lib/gcc/psp/4.3.5/../../../../psp/lib\libc.a(lib_a-strcasecmp.o)
                                        0x151 (size before relaxing)
 .debug_str     0x000000000000ef12       0x47 c:/pspsdk/bin/../lib/gcc/psp/4.3.5/../../../../psp/lib\libc.a(lib_a-strcat.o)
                                        0x13c (size before relaxing)
 .debug_str     0x000000000000ef59       0x43 c:/pspsdk/bin/../lib/gcc/psp/4.3.5/../../../../psp/lib\libc.a(lib_a-strchr.o)
                                        0x143 (size before relaxing)
 .debug_str     0x000000000000ef9c       0x51 c:/pspsdk/bin/../lib/gcc/psp/4.3.5/../../../../psp/lib\libc.a(lib_a-strcmp.o)
                                        0x145 (size before relaxing)
 .debug_str     0x000000000000efed       0x3c c:/pspsdk/bin/../lib/gcc/psp/4.3.5/../../../../psp/lib\libc.a(lib_a-strcpy.o)
                                        0x153 (size before relaxing)
 .debug_str     0x000000000000f029       0x45 c:/pspsdk/bin/../lib/gcc/psp/4.3.5/../../../../psp/lib\libc.a(lib_a-strerror.o)
                                        0x142 (size before relaxing)
 .debug_str     0x000000000000f06e       0x4c c:/pspsdk/bin/../lib/gcc/psp/4.3.5/../../../../psp/lib\libc.a(lib_a-strlen.o)
                                        0x14d (size before relaxing)
 .debug_str     0x000000000000f0ba       0x45 c:/pspsdk/bin/../lib/gcc/psp/4.3.5/../../../../psp/lib\libc.a(lib_a-strncmp.o)
                                        0x13a (size before relaxing)
 .debug_str     0x000000000000f0ff       0x91 c:/pspsdk/bin/../lib/gcc/psp/4.3.5/../../../../psp/lib\libc.a(lib_a-strncpy.o)
                                        0x1a6 (size before relaxing)
 .debug_str     0x000000000000f190       0x45 c:/pspsdk/bin/../lib/gcc/psp/4.3.5/../../../../psp/lib\libc.a(lib_a-strrchr.o)
                                        0x138 (size before relaxing)
 .debug_str     0x000000000000f1d5      0x1d6 c:/pspsdk/bin/../lib/gcc/psp/4.3.5/../../../../psp/lib\libc.a(lib_a-strtod.o)
                                        0x6d3 (size before relaxing)
 .debug_str     0x000000000000f3ab       0x54 c:/pspsdk/bin/../lib/gcc/psp/4.3.5/../../../../psp/lib\libc.a(lib_a-strtol.o)
                                        0x528 (size before relaxing)
 .debug_str     0x000000000000f3ff       0xff c:/pspsdk/bin/../lib/gcc/psp/4.3.5/../../../../psp/lib\libc.a(lib_a-svfprintf.o)
                                        0x6aa (size before relaxing)
 .debug_str     0x000000000000f4fe      0x11c c:/pspsdk/bin/../lib/gcc/psp/4.3.5/../../../../psp/lib\libc.a(lib_a-svfscanf.o)
                                        0x65f (size before relaxing)
 .debug_str     0x000000000000f61a       0xac c:/pspsdk/bin/../lib/gcc/psp/4.3.5/../../../../psp/lib\libc.a(lib_a-sysgettod.o)
                                        0x536 (size before relaxing)
 .debug_str     0x000000000000f6c6       0x40 c:/pspsdk/bin/../lib/gcc/psp/4.3.5/../../../../psp/lib\libc.a(lib_a-syswrite.o)
                                        0x4f8 (size before relaxing)
 .debug_str     0x000000000000f706       0x38 c:/pspsdk/bin/../lib/gcc/psp/4.3.5/../../../../psp/lib\libc.a(lib_a-time.o)
                                        0x50e (size before relaxing)
 .debug_str     0x000000000000f73e       0x61 c:/pspsdk/bin/../lib/gcc/psp/4.3.5/../../../../psp/lib\libc.a(lib_a-tzlock.o)
                                        0x14d (size before relaxing)
 .debug_str     0x000000000000f79f       0x4c c:/pspsdk/bin/../lib/gcc/psp/4.3.5/../../../../psp/lib\libc.a(lib_a-tzvars.o)
                                        0x142 (size before relaxing)
 .debug_str     0x000000000000f7eb       0x4d c:/pspsdk/bin/../lib/gcc/psp/4.3.5/../../../../psp/lib\libc.a(lib_a-u_strerr.o)
                                         0xbe (size before relaxing)
 .debug_str     0x000000000000f838       0x4f c:/pspsdk/bin/../lib/gcc/psp/4.3.5/../../../../psp/lib\libc.a(lib_a-ungetc.o)
                                        0x508 (size before relaxing)
 .debug_str     0x000000000000f887       0x32 c:/pspsdk/bin/../lib/gcc/psp/4.3.5/../../../../psp/lib\libc.a(lib_a-vfiprintf.o)
                                        0x653 (size before relaxing)
 .debug_str     0x000000000000f8b9       0x55 c:/pspsdk/bin/../lib/gcc/psp/4.3.5/../../../../psp/lib\libc.a(lib_a-vsnprintf.o)
                                        0x537 (size before relaxing)
 .debug_str     0x000000000000f90e       0x4b c:/pspsdk/bin/../lib/gcc/psp/4.3.5/../../../../psp/lib\libc.a(lib_a-wbuf.o)
                                        0x4f8 (size before relaxing)
 .debug_str     0x000000000000f959       0x4d c:/pspsdk/bin/../lib/gcc/psp/4.3.5/../../../../psp/lib\libc.a(lib_a-writer.o)
                                        0x4f6 (size before relaxing)
 .debug_str     0x000000000000f9a6       0x47 c:/pspsdk/bin/../lib/gcc/psp/4.3.5/../../../../psp/lib\libc.a(lib_a-wsetup.o)
                                        0x4f4 (size before relaxing)
 .debug_str     0x000000000000f9ed      0x137 c:/pspsdk/bin/../lib/gcc/psp/4.3.5/../../../../psp/lib\libc.a(vxprintf.o)
                                        0x315 (size before relaxing)
 .debug_str     0x000000000000fb24       0x19 c:/pspsdk/bin/../lib/gcc/psp/4.3.5/../../../../psp/lib\libc.a(__fout.o)
                                        0x4f8 (size before relaxing)
 .debug_str     0x000000000000fb3d       0x52 c:/pspsdk/bin/../lib/gcc/psp/4.3.5/../../../../psp/lib\libc.a(_exit.o)
                                        0x182 (size before relaxing)
 .debug_str     0x000000000000fb8f       0xd1 c:/pspsdk/bin/../lib/gcc/psp/4.3.5/../../../../psp/lib\libc.a(_fstat.o)
                                        0x327 (size before relaxing)
 .debug_str     0x000000000000fc60        0xe c:/pspsdk/bin/../lib/gcc/psp/4.3.5/../../../../psp/lib\libc.a(_getpid.o)
                                        0x145 (size before relaxing)
 .debug_str     0x000000000000fc6e        0xe c:/pspsdk/bin/../lib/gcc/psp/4.3.5/../../../../psp/lib\libc.a(_kill.o)
                                        0x14c (size before relaxing)
 .debug_str     0x000000000000fc7c       0x10 c:/pspsdk/bin/../lib/gcc/psp/4.3.5/../../../../psp/lib\libc.a(_open.o)
                                        0x234 (size before relaxing)
 .debug_str     0x000000000000fc8c       0xc5 c:/pspsdk/bin/../lib/gcc/psp/4.3.5/../../../../psp/lib\libc.a(_sbrk.o)
                                        0x223 (size before relaxing)
 .debug_str     0x000000000000fd51        0x0 c:/pspsdk/bin/../lib/gcc/psp/4.3.5/../../../../psp/lib\libc.a(_write.o)
                                        0x222 (size before relaxing)
 .debug_str     0x000000000000fd51       0xce c:/pspsdk/bin/../lib/gcc/psp/4.3.5/../../../../psp/lib\libc.a(fdman.o)
                                        0x2a1 (size before relaxing)
 .debug_str     0x000000000000fe1f       0x11 c:/pspsdk/bin/../lib/gcc/psp/4.3.5/../../../../psp/lib\libc.a(isatty.o)
                                        0x5cf (size before relaxing)
 .debug_str     0x000000000000fe30       0x52 c:/pspsdk/bin/../lib/gcc/psp/4.3.5/../../../../psp/lib\libc.a(lib_a-__atexit.o)
                                        0x53c (size before relaxing)
 .debug_str     0x000000000000fe82       0x5a c:/pspsdk/bin/../lib/gcc/psp/4.3.5/../../../../psp/lib\libc.a(lib_a-__call_atexit.o)
                                        0x51c (size before relaxing)
 .debug_str     0x000000000000fedc       0x44 c:/pspsdk/bin/../lib/gcc/psp/4.3.5/../../../../psp/lib\libc.a(lib_a-closer.o)
                                        0x4e6 (size before relaxing)
 .debug_str     0x000000000000ff20       0xd5 c:/pspsdk/bin/../lib/gcc/psp/4.3.5/../../../../psp/lib\libc.a(lib_a-dtoa.o)
                                        0x5e9 (size before relaxing)
 .debug_str     0x000000000000fff5       0x49 c:/pspsdk/bin/../lib/gcc/psp/4.3.5/../../../../psp/lib\libc.a(lib_a-environ.o)
                                         0xbb (size before relaxing)
 .debug_str     0x000000000001003e       0x67 c:/pspsdk/bin/../lib/gcc/psp/4.3.5/../../../../psp/lib\libc.a(lib_a-envlock.o)
                                        0x504 (size before relaxing)
 .debug_str     0x00000000000100a5       0x44 c:/pspsdk/bin/../lib/gcc/psp/4.3.5/../../../../psp/lib\libc.a(lib_a-fcntlr.o)
                                        0x4e6 (size before relaxing)
 .debug_str     0x00000000000100e9       0x4e c:/pspsdk/bin/../lib/gcc/psp/4.3.5/../../../../psp/lib\libc.a(lib_a-fputwc.o)
                                        0x51e (size before relaxing)
 .debug_str     0x0000000000010137       0xef c:/pspsdk/bin/../lib/gcc/psp/4.3.5/../../../../psp/lib\libc.a(lib_a-gdtoa-gethex.o)
                                        0x6ce (size before relaxing)
 .debug_str     0x0000000000010226       0x53 c:/pspsdk/bin/../lib/gcc/psp/4.3.5/../../../../psp/lib\libc.a(lib_a-gdtoa-hexnan.o)
                                        0x267 (size before relaxing)
 .debug_str     0x0000000000010279       0x52 c:/pspsdk/bin/../lib/gcc/psp/4.3.5/../../../../psp/lib\libc.a(lib_a-gettimeofdayr.o)
                                        0x531 (size before relaxing)
 .debug_str     0x00000000000102cb       0x49 c:/pspsdk/bin/../lib/gcc/psp/4.3.5/../../../../psp/lib\libc.a(lib_a-gettzinfo.o)
                                        0x1a9 (size before relaxing)
 .debug_str     0x0000000000010314       0x44 c:/pspsdk/bin/../lib/gcc/psp/4.3.5/../../../../psp/lib\libc.a(lib_a-isdigit.o)
                                         0xbb (size before relaxing)
 .debug_str     0x0000000000010358       0x46 c:/pspsdk/bin/../lib/gcc/psp/4.3.5/../../../../psp/lib\libc.a(lib_a-iswspace.o)
                                        0x148 (size before relaxing)
 .debug_str     0x000000000001039e      0x24c c:/pspsdk/bin/../lib/gcc/psp/4.3.5/../../../../psp/lib\libc.a(lib_a-locale.o)
                                        0x744 (size before relaxing)
 .debug_str     0x00000000000105ea       0x44 c:/pspsdk/bin/../lib/gcc/psp/4.3.5/../../../../psp/lib\libc.a(lib_a-lseekr.o)
                                        0x4f4 (size before relaxing)
 .debug_str     0x000000000001062e       0x59 c:/pspsdk/bin/../lib/gcc/psp/4.3.5/../../../../psp/lib\libc.a(lib_a-mbrtowc.o)
                                        0x522 (size before relaxing)
 .debug_str     0x0000000000010687       0x57 c:/pspsdk/bin/../lib/gcc/psp/4.3.5/../../../../psp/lib\libc.a(lib_a-mbtowc_r.o)
                                        0x52a (size before relaxing)
 .debug_str     0x00000000000106de       0xf9 c:/pspsdk/bin/../lib/gcc/psp/4.3.5/../../../../psp/lib\libc.a(lib_a-mprec.o)
                                        0x5f6 (size before relaxing)
 .debug_str     0x00000000000107d7       0x42 c:/pspsdk/bin/../lib/gcc/psp/4.3.5/../../../../psp/lib\libc.a(lib_a-readr.o)
                                        0x4f4 (size before relaxing)
 .debug_str     0x0000000000010819       0x50 c:/pspsdk/bin/../lib/gcc/psp/4.3.5/../../../../psp/lib\libc.a(lib_a-sccl.o)
                                        0x13d (size before relaxing)
 .debug_str     0x0000000000010869       0x41 c:/pspsdk/bin/../lib/gcc/psp/4.3.5/../../../../psp/lib\libc.a(lib_a-sf_nan.o)
                                        0x14f (size before relaxing)
 .debug_str     0x00000000000108aa       0x43 c:/pspsdk/bin/../lib/gcc/psp/4.3.5/../../../../psp/lib\libc.a(lib_a-strdup.o)
                                        0x4ec (size before relaxing)
 .debug_str     0x00000000000108ed       0x4d c:/pspsdk/bin/../lib/gcc/psp/4.3.5/../../../../psp/lib\libc.a(lib_a-strdup_r.o)
                                        0x4fb (size before relaxing)
 .debug_str     0x000000000001093a       0x4a c:/pspsdk/bin/../lib/gcc/psp/4.3.5/../../../../psp/lib\libc.a(lib_a-strtoll_r.o)
                                        0x519 (size before relaxing)
 .debug_str     0x0000000000010984       0x48 c:/pspsdk/bin/../lib/gcc/psp/4.3.5/../../../../psp/lib\libc.a(lib_a-strtoul.o)
                                        0x52b (size before relaxing)
 .debug_str     0x00000000000109cc       0x4c c:/pspsdk/bin/../lib/gcc/psp/4.3.5/../../../../psp/lib\libc.a(lib_a-strtoull_r.o)
                                        0x51b (size before relaxing)
 .debug_str     0x0000000000010a18       0x1a c:/pspsdk/bin/../lib/gcc/psp/4.3.5/../../../../psp/lib\libc.a(lib_a-svfiprintf.o)
                                        0x62a (size before relaxing)
 .debug_str     0x0000000000010a32       0x31 c:/pspsdk/bin/../lib/gcc/psp/4.3.5/../../../../psp/lib\libc.a(lib_a-svfiscanf.o)
                                        0x63a (size before relaxing)
 .debug_str     0x0000000000010a63       0x3f c:/pspsdk/bin/../lib/gcc/psp/4.3.5/../../../../psp/lib\libc.a(lib_a-sysstat.o)
                                        0x5e2 (size before relaxing)
 .debug_str     0x0000000000010aa2       0x59 c:/pspsdk/bin/../lib/gcc/psp/4.3.5/../../../../psp/lib\libc.a(lib_a-wcrtomb.o)
                                        0x522 (size before relaxing)
 .debug_str     0x0000000000010afb       0x5e c:/pspsdk/bin/../lib/gcc/psp/4.3.5/../../../../psp/lib\libc.a(lib_a-wctomb_r.o)
                                        0x52a (size before relaxing)
 .debug_str     0x0000000000010b59     0x1a11 c:/pspsdk/bin/../lib/gcc/psp/4.3.5/../../../../psp/lib\libc.a(pipe.o)
                                       0x1c08 (size before relaxing)
 .debug_str     0x000000000001256a       0xce c:/pspsdk/bin/../lib/gcc/psp/4.3.5/../../../../psp/lib\libc.a(pspcwd.o)
                                        0x1ce (size before relaxing)
 .debug_str     0x0000000000012638       0x10 c:/pspsdk/bin/../lib/gcc/psp/4.3.5/../../../../psp/lib\libc.a(__psp_set_errno.o)
                                        0x14c (size before relaxing)
 .debug_str     0x0000000000012648        0x0 c:/pspsdk/bin/../lib/gcc/psp/4.3.5/../../../../psp/lib\libc.a(_close.o)
                                        0x216 (size before relaxing)
 .debug_str     0x0000000000012648        0xd c:/pspsdk/bin/../lib/gcc/psp/4.3.5/../../../../psp/lib\libc.a(_fcntl.o)
                                        0x24f (size before relaxing)
 .debug_str     0x0000000000012655       0x2e c:/pspsdk/bin/../lib/gcc/psp/4.3.5/../../../../psp/lib\libc.a(_gettimeofday.o)
                                        0x198 (size before relaxing)
 .debug_str     0x0000000000012683        0x7 c:/pspsdk/bin/../lib/gcc/psp/4.3.5/../../../../psp/lib\libc.a(_lseek.o)
                                        0x231 (size before relaxing)
 .debug_str     0x000000000001268a        0x0 c:/pspsdk/bin/../lib/gcc/psp/4.3.5/../../../../psp/lib\libc.a(_read.o)
                                        0x221 (size before relaxing)
 .debug_str     0x000000000001268a        0x6 c:/pspsdk/bin/../lib/gcc/psp/4.3.5/../../../../psp/lib\libc.a(chdir.o)
                                        0x158 (size before relaxing)
 .debug_str     0x0000000000012690       0x42 c:/pspsdk/bin/../lib/gcc/psp/4.3.5/../../../../psp/lib\libc.a(lib_a-statr.o)
                                        0x5dc (size before relaxing)
 .debug_str     0x00000000000126d2       0x76 c:/pspsdk/bin/../lib/gcc/psp/4.3.5/../../../../psp/lib\libc.a(setsockopt.o)
                                        0x249 (size before relaxing)
 .debug_str     0x0000000000012748      0x15f c:/pspsdk/bin/../lib/gcc/psp/4.3.5/../../../../psp/lib\libc.a(_stat.o)
                                        0x413 (size before relaxing)
 .debug_str     0x00000000000128a7       0xae c:/pspsdk/bin/../lib/gcc/psp/4.3.5/../../../../psp/lib\libc.a(lib_a-mktime.o)
                                        0x277 (size before relaxing)
 .debug_str     0x0000000000012955       0x39 c:/pspsdk/bin/../lib/gcc/psp/4.3.5/../../../../psp/lib\libc.a(lib_a-div.o)
                                        0x138 (size before relaxing)
 .debug_str     0x000000000001298e       0xad c:/pspsdk/bin/../lib/gcc/psp/4.3.5\libgcc.a(_fixunsdfsi.o)
                                        0x152 (size before relaxing)
 .debug_str     0x0000000000012a3b       0x65 c:/pspsdk/bin/../lib/gcc/psp/4.3.5\libgcc.a(_udivdi3.o)
                                        0x1b6 (size before relaxing)
 .debug_str     0x0000000000012aa0        0xa c:/pspsdk/bin/../lib/gcc/psp/4.3.5\libgcc.a(_umoddi3.o)
                                        0x1b6 (size before relaxing)
 .debug_str     0x0000000000012aaa       0xcd c:/pspsdk/bin/../lib/gcc/psp/4.3.5\libgcc.a(_sf_to_df.o)
                                        0x1c5 (size before relaxing)
 .debug_str     0x0000000000012b77       0xa7 c:/pspsdk/bin/../lib/gcc/psp/4.3.5\libgcc.a(_addsub_df.o)
                                        0x242 (size before relaxing)
 .debug_str     0x0000000000012c1e       0x40 c:/pspsdk/bin/../lib/gcc/psp/4.3.5\libgcc.a(_mul_df.o)
                                        0x214 (size before relaxing)
 .debug_str     0x0000000000012c5e       0x35 c:/pspsdk/bin/../lib/gcc/psp/4.3.5\libgcc.a(_div_df.o)
                                        0x204 (size before relaxing)
 .debug_str     0x0000000000012c93       0x10 c:/pspsdk/bin/../lib/gcc/psp/4.3.5\libgcc.a(_eq_df.o)
                                        0x1d2 (size before relaxing)
 .debug_str     0x0000000000012ca3        0x8 c:/pspsdk/bin/../lib/gcc/psp/4.3.5\libgcc.a(_ne_df.o)
                                        0x1d2 (size before relaxing)
 .debug_str     0x0000000000012cab        0x8 c:/pspsdk/bin/../lib/gcc/psp/4.3.5\libgcc.a(_gt_df.o)
                                        0x1d2 (size before relaxing)
 .debug_str     0x0000000000012cb3        0x8 c:/pspsdk/bin/../lib/gcc/psp/4.3.5\libgcc.a(_ge_df.o)
                                        0x1d2 (size before relaxing)
 .debug_str     0x0000000000012cbb        0x8 c:/pspsdk/bin/../lib/gcc/psp/4.3.5\libgcc.a(_lt_df.o)
                                        0x1d2 (size before relaxing)
 .debug_str     0x0000000000012cc3        0x8 c:/pspsdk/bin/../lib/gcc/psp/4.3.5\libgcc.a(_le_df.o)
                                        0x1d2 (size before relaxing)
 .debug_str     0x0000000000012ccb       0x18 c:/pspsdk/bin/../lib/gcc/psp/4.3.5\libgcc.a(_si_to_df.o)
                                        0x1b1 (size before relaxing)
 .debug_str     0x0000000000012ce3        0xa c:/pspsdk/bin/../lib/gcc/psp/4.3.5\libgcc.a(_df_to_si.o)
                                        0x1da (size before relaxing)
 .debug_str     0x0000000000012ced        0xa c:/pspsdk/bin/../lib/gcc/psp/4.3.5\libgcc.a(_make_df.o)
                                        0x18c (size before relaxing)
 .debug_str     0x0000000000012cf7       0x14 c:/pspsdk/bin/../lib/gcc/psp/4.3.5\libgcc.a(_df_to_sf.o)
                                        0x1d1 (size before relaxing)
 .debug_str     0x0000000000012d0b        0x0 c:/pspsdk/bin/../lib/gcc/psp/4.3.5\libgcc.a(_thenan_df.o)
                                        0x176 (size before relaxing)
 .debug_str     0x0000000000012d0b       0x14 c:/pspsdk/bin/../lib/gcc/psp/4.3.5\libgcc.a(_usi_to_df.o)
                                        0x1ad (size before relaxing)
 .debug_str     0x0000000000012d1f     0x114d c:/pspsdk/bin/../lib/gcc/psp/4.3.5\libgcc.a(unwind-dw2.o)
                                       0x1551 (size before relaxing)
 .debug_str     0x0000000000013e6c      0x3d0 c:/pspsdk/bin/../lib/gcc/psp/4.3.5\libgcc.a(unwind-dw2-fde.o)
                                        0x673 (size before relaxing)
 .debug_str     0x000000000001423c       0x1a c:/pspsdk/bin/../lib/gcc/psp/4.3.5\libgcc.a(_ucmpdi2.o)
                                        0x174 (size before relaxing)
 .debug_str     0x0000000000014256        0x0 c:/pspsdk/bin/../lib/gcc/psp/4.3.5\libgcc.a(_clz.o)
                                        0x148 (size before relaxing)
 .debug_str     0x0000000000014256        0xb c:/pspsdk/bin/../lib/gcc/psp/4.3.5\libgcc.a(_unpack_sf.o)
                                        0x1b5 (size before relaxing)
 .debug_str     0x0000000000014261        0xa c:/pspsdk/bin/../lib/gcc/psp/4.3.5\libgcc.a(_make_sf.o)
                                        0x18c (size before relaxing)
 .debug_str     0x000000000001426b       0x10 c:/pspsdk/bin/../lib/gcc/psp/4.3.5\libgcc.a(_pack_df.o)
                                        0x1d9 (size before relaxing)
 .debug_str     0x000000000001427b        0xb c:/pspsdk/bin/../lib/gcc/psp/4.3.5\libgcc.a(_unpack_df.o)
                                        0x1bb (size before relaxing)
 .debug_str     0x0000000000014286       0x10 c:/pspsdk/bin/../lib/gcc/psp/4.3.5\libgcc.a(_fpcmp_parts_df.o)
                                        0x199 (size before relaxing)
 .debug_str     0x0000000000014296        0x9 c:/pspsdk/bin/../lib/gcc/psp/4.3.5\libgcc.a(_pack_sf.o)
                                        0x1d3 (size before relaxing)

.debug_loc      0x0000000000000000    0x4e528
 *(.debug_loc)
 .debug_loc     0x0000000000000000      0x18f c:/pspsdk/bin/../lib/gcc/psp/4.3.5/../../../../psp/lib/crt0.o
 .debug_loc     0x000000000000018f      0x835 psp/sound.o
 .debug_loc     0x00000000000009c4     0x1024 psp/gym/gym.o
 .debug_loc     0x00000000000019e8      0x4fe psp/gym/gym_play.o
 .debug_loc     0x0000000000001ee6      0xf69 psp/vgm/In_vgm.o
 .debug_loc     0x0000000000002e4f      0x6eb c:/pspsdk/bin/../lib/gcc/psp/4.3.5/../../../../psp/lib\libosl.a(oslib.o)
 .debug_loc     0x000000000000353a      0xc1a c:/pspsdk/bin/../lib/gcc/psp/4.3.5/../../../../psp/lib\libosl.a(drawing.o)
 .debug_loc     0x0000000000004154      0x88b c:/pspsdk/bin/../lib/gcc/psp/4.3.5/../../../../psp/lib\libosl.a(image.o)
 .debug_loc     0x00000000000049df      0x20e c:/pspsdk/bin/../lib/gcc/psp/4.3.5/../../../../psp/lib\libosl.a(palette.o)
 .debug_loc     0x0000000000004bed      0x49f c:/pspsdk/bin/../lib/gcc/psp/4.3.5/../../../../psp/lib\libosl.a(shape.o)
 .debug_loc     0x000000000000508c      0x2fc c:/pspsdk/bin/../lib/gcc/psp/4.3.5/../../../../psp/lib\libosl.a(messagebox.o)
 .debug_loc     0x0000000000005388       0xe7 c:/pspsdk/bin/../lib/gcc/psp/4.3.5/../../../../psp/lib\libosl.a(keys.o)
 .debug_loc     0x000000000000546f     0x10b1 c:/pspsdk/bin/../lib/gcc/psp/4.3.5/../../../../psp/lib\libosl.a(text.o)
 .debug_loc     0x0000000000006520      0x1d1 c:/pspsdk/bin/../lib/gcc/psp/4.3.5/../../../../psp/lib\libosl.a(vram_mgr.o)
 .debug_loc     0x00000000000066f1     0x106f c:/pspsdk/bin/../lib/gcc/psp/4.3.5/../../../../psp/lib\libosl.a(audio.o)
 .debug_loc     0x0000000000007760      0x552 c:/pspsdk/bin/../lib/gcc/psp/4.3.5/../../../../psp/lib\libosl.a(bgm.o)
 .debug_loc     0x0000000000007cb2       0xad c:/pspsdk/bin/../lib/gcc/psp/4.3.5/../../../../psp/lib\libosl.a(usb.o)
 .debug_loc     0x0000000000007d5f      0xa85 c:/pspsdk/bin/../lib/gcc/psp/4.3.5/../../../../psp/lib\libosl.a(VirtualFile.o)
 .debug_loc     0x00000000000087e4      0x31d c:/pspsdk/bin/../lib/gcc/psp/4.3.5/../../../../psp/lib\libosl.a(vfsFile.o)
 .debug_loc     0x0000000000008b01      0x1ae c:/pspsdk/bin/../lib/gcc/psp/4.3.5/../../../../psp/lib\libosl.a(oslDrawImage.o)
 .debug_loc     0x0000000000008caf       0x84 c:/pspsdk/bin/../lib/gcc/psp/4.3.5/../../../../psp/lib\libosl.a(oslDrawImageSimple.o)
 .debug_loc     0x0000000000008d33       0x5b c:/pspsdk/bin/../lib/gcc/psp/4.3.5/../../../../psp/lib\libosl.a(oslLockImage.o)
 .debug_loc     0x0000000000008d8e      0x28e c:/pspsdk/bin/../lib/gcc/psp/4.3.5/../../../../psp/lib\libosl.a(oslSwizzleImage.o)
 .debug_loc     0x000000000000901c       0x3d c:/pspsdk/bin/../lib/gcc/psp/4.3.5/../../../../psp/lib\libosl.a(oslSetDrawBuffer.o)
 .debug_loc     0x0000000000009059      0x3d0 c:/pspsdk/bin/../lib/gcc/psp/4.3.5/../../../../psp/lib\libosl.a(oslWriteImageFilePNG.o)
 .debug_loc     0x0000000000009429      0x144 c:/pspsdk/bin/../lib/gcc/psp/4.3.5/../../../../psp/lib\libosl.a(oslLoadImageFile.o)
 .debug_loc     0x000000000000956d     0x28ae c:/pspsdk/bin/../lib/gcc/psp/4.3.5/../../../../psp/lib\libosl.a(intraFont.o)
 .debug_loc     0x000000000000be1b     0x16d7 c:/pspsdk/bin/../lib/gcc/psp/4.3.5/../../../../psp/lib\libosl.a(libccc.o)
 .debug_loc     0x000000000000d4f2       0x78 c:/pspsdk/bin/../lib/gcc/psp/4.3.5/../../../../psp/lib\libosl.a(oslHandleLoadNoFailError.o)
 .debug_loc     0x000000000000d56a      0x5a7 c:/pspsdk/bin/../lib/gcc/psp/4.3.5/../../../../psp/lib\libosl.a(oslLoadImageFilePNG.o)
 .debug_loc     0x000000000000db11      0x21a c:/pspsdk/bin/../lib/gcc/psp/4.3.5/../../../../psp/lib\libosl.a(oslLoadImageFileJPG.o)
 .debug_loc     0x000000000000dd2b      0x78a c:/pspsdk/bin/../lib/gcc/psp/4.3.5/../../../../psp/lib\libosl.a(oslLoadImageFileGIF.o)
 .debug_loc     0x000000000000e4b5      0x1ea c:/pspsdk/bin/../lib/gcc/psp/4.3.5/../../../../psp/lib\libosl.a(oslConvertImageTo.o)
 .debug_loc     0x000000000000e69f       0xc3 c:/pspsdk/bin/../lib/gcc/psp/4.3.5/../../../../psp/lib\libosl.a(oslSetImagePixel.o)
 .debug_loc     0x000000000000e762       0xb8 c:/pspsdk/bin/../lib/gcc/psp/4.3.5/../../../../psp/lib\libosl.a(oslGetImagePixel.o)
 .debug_loc     0x000000000000e81a     0x10ef c:/pspsdk/bin/../lib/gcc/psp/4.3.5/../../../../psp/lib\libosl.a(dgif_lib.o)
 .debug_loc     0x000000000000f909       0x13 c:/pspsdk/bin/../lib/gcc/psp/4.3.5/../../../../psp/lib\libosl.a(gif_err.o)
 .debug_loc     0x000000000000f91c      0x694 c:/pspsdk/bin/../lib/gcc/psp/4.3.5/../../../../psp/lib\libosl.a(gifalloc.o)
 .debug_loc     0x000000000000ffb0      0x3fc c:/pspsdk/bin/../lib/gcc/psp/4.3.5/../../../../psp/lib\libjpeg.a(jdapimin.o)
 .debug_loc     0x00000000000103ac      0x351 c:/pspsdk/bin/../lib/gcc/psp/4.3.5/../../../../psp/lib\libjpeg.a(jdapistd.o)
 .debug_loc     0x00000000000106fd      0x292 c:/pspsdk/bin/../lib/gcc/psp/4.3.5/../../../../psp/lib\libjpeg.a(jdatasrc.o)
 .debug_loc     0x000000000001098f      0x305 c:/pspsdk/bin/../lib/gcc/psp/4.3.5/../../../../psp/lib\libjpeg.a(jdmaster.o)
 .debug_loc     0x0000000000010c94      0x3e5 c:/pspsdk/bin/../lib/gcc/psp/4.3.5/../../../../psp/lib\libjpeg.a(jdinput.o)
 .debug_loc     0x0000000000011079     0x2ad4 c:/pspsdk/bin/../lib/gcc/psp/4.3.5/../../../../psp/lib\libjpeg.a(jdmarker.o)
 .debug_loc     0x0000000000013b4d     0x28c8 c:/pspsdk/bin/../lib/gcc/psp/4.3.5/../../../../psp/lib\libjpeg.a(jdhuff.o)
 .debug_loc     0x0000000000016415      0x774 c:/pspsdk/bin/../lib/gcc/psp/4.3.5/../../../../psp/lib\libjpeg.a(jdmainct.o)
 .debug_loc     0x0000000000016b89     0x1243 c:/pspsdk/bin/../lib/gcc/psp/4.3.5/../../../../psp/lib\libjpeg.a(jdcoefct.o)
 .debug_loc     0x0000000000017dcc      0x4df c:/pspsdk/bin/../lib/gcc/psp/4.3.5/../../../../psp/lib\libjpeg.a(jdpostct.o)
 .debug_loc     0x00000000000182ab      0x560 c:/pspsdk/bin/../lib/gcc/psp/4.3.5/../../../../psp/lib\libjpeg.a(jddctmgr.o)
 .debug_loc     0x000000000001880b      0x683 c:/pspsdk/bin/../lib/gcc/psp/4.3.5/../../../../psp/lib\libjpeg.a(jidctfst.o)
 .debug_loc     0x0000000000018e8e      0x3d2 c:/pspsdk/bin/../lib/gcc/psp/4.3.5/../../../../psp/lib\libjpeg.a(jidctflt.o)
 .debug_loc     0x0000000000019260     0x6fa0 c:/pspsdk/bin/../lib/gcc/psp/4.3.5/../../../../psp/lib\libjpeg.a(jidctint.o)
 .debug_loc     0x0000000000020200      0x598 c:/pspsdk/bin/../lib/gcc/psp/4.3.5/../../../../psp/lib\libjpeg.a(jdsample.o)
 .debug_loc     0x0000000000020798      0x510 c:/pspsdk/bin/../lib/gcc/psp/4.3.5/../../../../psp/lib\libjpeg.a(jdcolor.o)
 .debug_loc     0x0000000000020ca8      0xfac c:/pspsdk/bin/../lib/gcc/psp/4.3.5/../../../../psp/lib\libjpeg.a(jquant1.o)
 .debug_loc     0x0000000000021c54     0x19eb c:/pspsdk/bin/../lib/gcc/psp/4.3.5/../../../../psp/lib\libjpeg.a(jquant2.o)
 .debug_loc     0x000000000002363f      0x7d0 c:/pspsdk/bin/../lib/gcc/psp/4.3.5/../../../../psp/lib\libjpeg.a(jdmerge.o)
 .debug_loc     0x0000000000023e0f       0xff c:/pspsdk/bin/../lib/gcc/psp/4.3.5/../../../../psp/lib\libjpeg.a(jcomapi.o)
 .debug_loc     0x0000000000023f0e      0x1b5 c:/pspsdk/bin/../lib/gcc/psp/4.3.5/../../../../psp/lib\libjpeg.a(jutils.o)
 .debug_loc     0x00000000000240c3      0x250 c:/pspsdk/bin/../lib/gcc/psp/4.3.5/../../../../psp/lib\libjpeg.a(jerror.o)
 .debug_loc     0x0000000000024313     0x1316 c:/pspsdk/bin/../lib/gcc/psp/4.3.5/../../../../psp/lib\libjpeg.a(jmemmgr.o)
 .debug_loc     0x0000000000025629       0xf7 c:/pspsdk/bin/../lib/gcc/psp/4.3.5/../../../../psp/lib\libjpeg.a(jmemnobs.o)
 .debug_loc     0x0000000000025720     0x1374 c:/pspsdk/bin/../lib/gcc/psp/4.3.5/../../../../psp/lib\libjpeg.a(jdarith.o)
 .debug_loc     0x0000000000026a94      0x147 c:/pspsdk/psp/sdk/lib\libpspsdk.a(loadmodule.o)
 .debug_loc     0x0000000000026bdb       0x39 c:/pspsdk/psp/sdk/lib\libpspgu.a(sceGuAlphaFunc.o)
 .debug_loc     0x0000000000026c14       0x3d c:/pspsdk/psp/sdk/lib\libpspgu.a(sceGuAmbientColor.o)
 .debug_loc     0x0000000000026c51       0x94 c:/pspsdk/psp/sdk/lib\libpspgu.a(sceGuBlendFunc.o)
 .debug_loc     0x0000000000026ce5      0x130 c:/pspsdk/psp/sdk/lib\libpspgu.a(sceGuClear.o)
 .debug_loc     0x0000000000026e15       0x5b c:/pspsdk/psp/sdk/lib\libpspgu.a(sceGuClutLoad.o)
 .debug_loc     0x0000000000026e70       0x4c c:/pspsdk/psp/sdk/lib\libpspgu.a(sceGuClutMode.o)
 .debug_loc     0x0000000000026ebc       0x6e c:/pspsdk/psp/sdk/lib\libpspgu.a(sceGuColorFunc.o)
 .debug_loc     0x0000000000026f2a       0x71 c:/pspsdk/psp/sdk/lib\libpspgu.a(sceGuDepthBuffer.o)
 .debug_loc     0x0000000000026f9b       0x13 c:/pspsdk/psp/sdk/lib\libpspgu.a(sceGuDepthFunc.o)
 .debug_loc     0x0000000000026fae       0xae c:/pspsdk/psp/sdk/lib\libpspgu.a(sceGuDepthRange.o)
 .debug_loc     0x000000000002705c       0x71 c:/pspsdk/psp/sdk/lib\libpspgu.a(sceGuDisable.o)
 .debug_loc     0x00000000000270cd      0x118 c:/pspsdk/psp/sdk/lib\libpspgu.a(sceGuDispBuffer.o)
 .debug_loc     0x00000000000271e5       0x53 c:/pspsdk/psp/sdk/lib\libpspgu.a(sceGuDisplay.o)
 .debug_loc     0x0000000000027238      0x123 c:/pspsdk/psp/sdk/lib\libpspgu.a(sceGuDrawArray.o)
 .debug_loc     0x000000000002735b       0x79 c:/pspsdk/psp/sdk/lib\libpspgu.a(sceGuDrawBuffer.o)
 .debug_loc     0x00000000000273d4       0x8f c:/pspsdk/psp/sdk/lib\libpspgu.a(sceGuEnable.o)
 .debug_loc     0x0000000000027463       0x72 c:/pspsdk/psp/sdk/lib\libpspgu.a(sceGuFinish.o)
 .debug_loc     0x00000000000274d5       0x1e c:/pspsdk/psp/sdk/lib\libpspgu.a(sceGuFrontFace.o)
 .debug_loc     0x00000000000274f3       0x63 c:/pspsdk/psp/sdk/lib\libpspgu.a(sceGuGetMemory.o)
 .debug_loc     0x0000000000027556       0x1f c:/pspsdk/psp/sdk/lib\libpspgu.a(sceGuInit.o)
 .debug_loc     0x0000000000027575       0x50 c:/pspsdk/psp/sdk/lib\libpspgu.a(sceGuOffset.o)
 .debug_loc     0x00000000000275c5       0x89 c:/pspsdk/psp/sdk/lib\libpspgu.a(sceGuScissor.o)
 .debug_loc     0x000000000002764e       0x1e c:/pspsdk/psp/sdk/lib\libpspgu.a(sceGuShadeModel.o)
 .debug_loc     0x000000000002766c       0xa2 c:/pspsdk/psp/sdk/lib\libpspgu.a(sceGuStart.o)
 .debug_loc     0x000000000002770e       0x39 c:/pspsdk/psp/sdk/lib\libpspgu.a(sceGuStencilFunc.o)
 .debug_loc     0x0000000000027747       0x39 c:/pspsdk/psp/sdk/lib\libpspgu.a(sceGuStencilOp.o)
 .debug_loc     0x0000000000027780       0x3d c:/pspsdk/psp/sdk/lib\libpspgu.a(sceGuSwapBuffers.o)
 .debug_loc     0x00000000000277bd       0x52 c:/pspsdk/psp/sdk/lib\libpspgu.a(sceGuSync.o)
 .debug_loc     0x000000000002780f       0x1f c:/pspsdk/psp/sdk/lib\libpspgu.a(sceGuTerm.o)
 .debug_loc     0x000000000002782e       0x13 c:/pspsdk/psp/sdk/lib\libpspgu.a(sceGuTexEnvColor.o)
 .debug_loc     0x0000000000027841       0x26 c:/pspsdk/psp/sdk/lib\libpspgu.a(sceGuTexFilter.o)
 .debug_loc     0x0000000000027867       0x39 c:/pspsdk/psp/sdk/lib\libpspgu.a(sceGuTexFunc.o)
 .debug_loc     0x00000000000278a0       0xe3 c:/pspsdk/psp/sdk/lib\libpspgu.a(sceGuTexImage.o)
 .debug_loc     0x0000000000027983       0x76 c:/pspsdk/psp/sdk/lib\libpspgu.a(sceGuTexMode.o)
 .debug_loc     0x00000000000279f9       0x53 c:/pspsdk/psp/sdk/lib\libpspgu.a(sceGuTexOffset.o)
 .debug_loc     0x0000000000027a4c       0x53 c:/pspsdk/psp/sdk/lib\libpspgu.a(sceGuTexScale.o)
 .debug_loc     0x0000000000027a9f       0x26 c:/pspsdk/psp/sdk/lib\libpspgu.a(sceGuTexWrap.o)
 .debug_loc     0x0000000000027ac5       0x8e c:/pspsdk/psp/sdk/lib\libpspgu.a(sceGuViewport.o)
 .debug_loc     0x0000000000027b53       0x92 c:/pspsdk/psp/sdk/lib\libpspgu.a(sendCommand.o)
 .debug_loc     0x0000000000027be5       0x3c c:/pspsdk/psp/sdk/lib\libpspgu.a(callbackFin.o)
 .debug_loc     0x0000000000027c21       0x6e c:/pspsdk/psp/sdk/lib\libpspgu.a(callbackSig.o)
 .debug_loc     0x0000000000027c8f       0x13 c:/pspsdk/psp/sdk/lib\libpspgu.a(sceGuColorMaterial.o)
 .debug_loc     0x0000000000027ca2       0x26 c:/pspsdk/psp/sdk/lib\libpspgu.a(sceGuPatchDivide.o)
 .debug_loc     0x0000000000027cc8       0x3d c:/pspsdk/psp/sdk/lib\libpspgu.a(sceGuSetDither.o)
 .debug_loc     0x0000000000027d05       0x14 c:/pspsdk/psp/sdk/lib\libpspgu.a(sceGuSpecular.o)
 .debug_loc     0x0000000000027d19       0x1e c:/pspsdk/bin/../lib/gcc/psp/4.3.5/../../../../psp/lib\libstdc++.a(del_op.o)
 .debug_loc     0x0000000000027d37       0x13 c:/pspsdk/bin/../lib/gcc/psp/4.3.5/../../../../psp/lib\libstdc++.a(del_opv.o)
 .debug_loc     0x0000000000027d4a       0x8f c:/pspsdk/bin/../lib/gcc/psp/4.3.5/../../../../psp/lib\libstdc++.a(new_op.o)
 .debug_loc     0x0000000000027dd9       0x32 c:/pspsdk/bin/../lib/gcc/psp/4.3.5/../../../../psp/lib\libstdc++.a(new_opv.o)
 .debug_loc     0x0000000000027e0b      0x112 c:/pspsdk/bin/../lib/gcc/psp/4.3.5/../../../../psp/lib\libstdc++.a(eh_alloc.o)
 .debug_loc     0x0000000000027f1d     0x148d c:/pspsdk/bin/../lib/gcc/psp/4.3.5/../../../../psp/lib\libstdc++.a(eh_personality.o)
 .debug_loc     0x00000000000293aa       0xc8 c:/pspsdk/bin/../lib/gcc/psp/4.3.5/../../../../psp/lib\libstdc++.a(eh_terminate.o)
 .debug_loc     0x0000000000029472      0x14a c:/pspsdk/bin/../lib/gcc/psp/4.3.5/../../../../psp/lib\libstdc++.a(eh_throw.o)
 .debug_loc     0x00000000000295bc       0x76 c:/pspsdk/bin/../lib/gcc/psp/4.3.5/../../../../psp/lib\libstdc++.a(new_handler.o)
 .debug_loc     0x0000000000029632      0x2b7 c:/pspsdk/bin/../lib/gcc/psp/4.3.5/../../../../psp/lib\libstdc++.a(si_class_type_info.o)
 .debug_loc     0x00000000000298e9       0x13 c:/pspsdk/bin/../lib/gcc/psp/4.3.5/../../../../psp/lib\libstdc++.a(tinfo.o)
 .debug_loc     0x00000000000298fc      0x107 c:/pspsdk/bin/../lib/gcc/psp/4.3.5/../../../../psp/lib\libstdc++.a(vterminate.o)
 .debug_loc     0x0000000000029a03      0x190 c:/pspsdk/bin/../lib/gcc/psp/4.3.5/../../../../psp/lib\libstdc++.a(class_type_info.o)
 .debug_loc     0x0000000000029b93       0x3d c:/pspsdk/bin/../lib/gcc/psp/4.3.5/../../../../psp/lib\libstdc++.a(eh_call.o)
 .debug_loc     0x0000000000029bd0      0x197 c:/pspsdk/bin/../lib/gcc/psp/4.3.5/../../../../psp/lib\libstdc++.a(eh_catch.o)
 .debug_loc     0x0000000000029d67       0x4c c:/pspsdk/bin/../lib/gcc/psp/4.3.5/../../../../psp/lib\libstdc++.a(eh_exception.o)
 .debug_loc     0x0000000000029db3       0x3d c:/pspsdk/bin/../lib/gcc/psp/4.3.5/../../../../psp/lib\libstdc++.a(eh_type.o)
 .debug_loc     0x0000000000029df0       0x1f c:/pspsdk/bin/../lib/gcc/psp/4.3.5/../../../../psp/lib\libstdc++.a(pure.o)
 .debug_loc     0x0000000000029e0f       0x87 c:/pspsdk/bin/../lib/gcc/psp/4.3.5/../../../../psp/lib\libm.a(lib_a-s_ceil.o)
 .debug_loc     0x0000000000029e96       0x97 c:/pspsdk/bin/../lib/gcc/psp/4.3.5/../../../../psp/lib\libm.a(lib_a-s_floor.o)
 .debug_loc     0x0000000000029f2d       0x18 c:/pspsdk/bin/../lib/gcc/psp/4.3.5/../../../../psp/lib\libm.a(lib_a-s_log.o)
 .debug_loc     0x0000000000029f45       0x18 c:/pspsdk/bin/../lib/gcc/psp/4.3.5/../../../../psp/lib\libm.a(lib_a-s_log10.o)
 .debug_loc     0x0000000000029f5d      0x1b2 c:/pspsdk/bin/../lib/gcc/psp/4.3.5/../../../../psp/lib\libm.a(lib_a-s_logarithm.o)
 .debug_loc     0x000000000002a10f      0x195 c:/pspsdk/bin/../lib/gcc/psp/4.3.5/../../../../psp/lib\libm.a(lib_a-s_modf.o)
 .debug_loc     0x000000000002a2a4      0x2db c:/pspsdk/bin/../lib/gcc/psp/4.3.5/../../../../psp/lib\libm.a(lib_a-s_pow.o)
 .debug_loc     0x000000000002a57f       0x18 c:/pspsdk/bin/../lib/gcc/psp/4.3.5/../../../../psp/lib\libm.a(lib_a-s_sin.o)
 .debug_loc     0x000000000002a597      0x210 c:/pspsdk/bin/../lib/gcc/psp/4.3.5/../../../../psp/lib\libm.a(lib_a-s_sine.o)
 .debug_loc     0x000000000002a7a7      0x11d c:/pspsdk/bin/../lib/gcc/psp/4.3.5/../../../../psp/lib\libm.a(lib_a-s_sqrt.o)
 .debug_loc     0x000000000002a8c4       0xd5 c:/pspsdk/bin/../lib/gcc/psp/4.3.5/../../../../psp/lib\libm.a(lib_a-s_exp.o)
 .debug_loc     0x000000000002a999       0x97 c:/pspsdk/bin/../lib/gcc/psp/4.3.5/../../../../psp/lib\libm.a(lib_a-s_fabs.o)
 .debug_loc     0x000000000002aa30       0x1e c:/pspsdk/bin/../lib/gcc/psp/4.3.5/../../../../psp/lib\libm.a(lib_a-s_fpclassify.o)
 .debug_loc     0x000000000002aa4e       0xa3 c:/pspsdk/bin/../lib/gcc/psp/4.3.5/../../../../psp/lib\libm.a(lib_a-s_frexp.o)
 .debug_loc     0x000000000002aaf1      0x128 c:/pspsdk/bin/../lib/gcc/psp/4.3.5/../../../../psp/lib\libm.a(lib_a-s_ldexp.o)
 .debug_loc     0x000000000002ac19       0x7f c:/pspsdk/bin/../lib/gcc/psp/4.3.5/../../../../psp/lib\libm.a(lib_a-s_numtest.o)
 .debug_loc     0x000000000002ac98       0x50 c:/pspsdk/bin/../lib/gcc/psp/4.3.5/../../../../psp/lib\libc.a(fprintf.o)
 .debug_loc     0x000000000002ace8       0x1f c:/pspsdk/bin/../lib/gcc/psp/4.3.5/../../../../psp/lib\libc.a(lib_a-abort.o)
 .debug_loc     0x000000000002ad07       0x13 c:/pspsdk/bin/../lib/gcc/psp/4.3.5/../../../../psp/lib\libc.a(lib_a-atexit.o)
 .debug_loc     0x000000000002ad1a       0x13 c:/pspsdk/bin/../lib/gcc/psp/4.3.5/../../../../psp/lib\libc.a(lib_a-atof.o)
 .debug_loc     0x000000000002ad2d       0x39 c:/pspsdk/bin/../lib/gcc/psp/4.3.5/../../../../psp/lib\libc.a(lib_a-atoi.o)
 .debug_loc     0x000000000002ad66       0x31 c:/pspsdk/bin/../lib/gcc/psp/4.3.5/../../../../psp/lib\libc.a(lib_a-calloc.o)
 .debug_loc     0x000000000002ad97       0xb2 c:/pspsdk/bin/../lib/gcc/psp/4.3.5/../../../../psp/lib\libc.a(lib_a-callocr.o)
 .debug_loc     0x000000000002ae49       0x3d c:/pspsdk/bin/../lib/gcc/psp/4.3.5/../../../../psp/lib\libc.a(lib_a-exit.o)
 .debug_loc     0x000000000002ae86       0xe4 c:/pspsdk/bin/../lib/gcc/psp/4.3.5/../../../../psp/lib\libc.a(lib_a-fclose.o)
 .debug_loc     0x000000000002af6a      0x1a5 c:/pspsdk/bin/../lib/gcc/psp/4.3.5/../../../../psp/lib\libc.a(lib_a-fdopen.o)
 .debug_loc     0x000000000002b10f      0x21f c:/pspsdk/bin/../lib/gcc/psp/4.3.5/../../../../psp/lib\libc.a(lib_a-fflush.o)
 .debug_loc     0x000000000002b32e      0x100 c:/pspsdk/bin/../lib/gcc/psp/4.3.5/../../../../psp/lib\libc.a(lib_a-fgetc.o)
 .debug_loc     0x000000000002b42e      0x271 c:/pspsdk/bin/../lib/gcc/psp/4.3.5/../../../../psp/lib\libc.a(lib_a-fgets.o)
 .debug_loc     0x000000000002b69f      0x278 c:/pspsdk/bin/../lib/gcc/psp/4.3.5/../../../../psp/lib\libc.a(lib_a-findfp.o)
 .debug_loc     0x000000000002b917       0xba c:/pspsdk/bin/../lib/gcc/psp/4.3.5/../../../../psp/lib\libc.a(lib_a-flags.o)
 .debug_loc     0x000000000002b9d1      0x551 c:/pspsdk/bin/../lib/gcc/psp/4.3.5/../../../../psp/lib\libc.a(lib_a-fmemopen.o)
 .debug_loc     0x000000000002bf22      0x150 c:/pspsdk/bin/../lib/gcc/psp/4.3.5/../../../../psp/lib\libc.a(lib_a-fopen.o)
 .debug_loc     0x000000000002c072       0xdf c:/pspsdk/bin/../lib/gcc/psp/4.3.5/../../../../psp/lib\libc.a(lib_a-fputc.o)
 .debug_loc     0x000000000002c151       0xb5 c:/pspsdk/bin/../lib/gcc/psp/4.3.5/../../../../psp/lib\libc.a(lib_a-fputs.o)
 .debug_loc     0x000000000002c206      0x345 c:/pspsdk/bin/../lib/gcc/psp/4.3.5/../../../../psp/lib\libc.a(lib_a-fread.o)
 .debug_loc     0x000000000002c54b      0x444 c:/pspsdk/bin/../lib/gcc/psp/4.3.5/../../../../psp/lib\libc.a(lib_a-freer.o)
 .debug_loc     0x000000000002c98f      0x356 c:/pspsdk/bin/../lib/gcc/psp/4.3.5/../../../../psp/lib\libc.a(lib_a-fseek.o)
 .debug_loc     0x000000000002cce5       0x6e c:/pspsdk/bin/../lib/gcc/psp/4.3.5/../../../../psp/lib\libc.a(lib_a-fstatr.o)
 .debug_loc     0x000000000002cd53       0xef c:/pspsdk/bin/../lib/gcc/psp/4.3.5/../../../../psp/lib\libc.a(lib_a-ftell.o)
 .debug_loc     0x000000000002ce42      0x570 c:/pspsdk/bin/../lib/gcc/psp/4.3.5/../../../../psp/lib\libc.a(lib_a-fvwrite.o)
 .debug_loc     0x000000000002d3b2      0x190 c:/pspsdk/bin/../lib/gcc/psp/4.3.5/../../../../psp/lib\libc.a(lib_a-fwalk.o)
 .debug_loc     0x000000000002d542      0x182 c:/pspsdk/bin/../lib/gcc/psp/4.3.5/../../../../psp/lib\libc.a(lib_a-fwrite.o)
 .debug_loc     0x000000000002d6c4       0x6e c:/pspsdk/bin/../lib/gcc/psp/4.3.5/../../../../psp/lib\libc.a(lib_a-getenv.o)
 .debug_loc     0x000000000002d732      0x168 c:/pspsdk/bin/../lib/gcc/psp/4.3.5/../../../../psp/lib\libc.a(lib_a-getenv_r.o)
 .debug_loc     0x000000000002d89a       0x13 c:/pspsdk/bin/../lib/gcc/psp/4.3.5/../../../../psp/lib\libc.a(lib_a-gmtime.o)
 .debug_loc     0x000000000002d8ad       0x26 c:/pspsdk/bin/../lib/gcc/psp/4.3.5/../../../../psp/lib\libc.a(lib_a-gmtime_r.o)
 .debug_loc     0x000000000002d8d3       0x8d c:/pspsdk/bin/../lib/gcc/psp/4.3.5/../../../../psp/lib\libc.a(lib_a-iprintf.o)
 .debug_loc     0x000000000002d960       0x13 c:/pspsdk/bin/../lib/gcc/psp/4.3.5/../../../../psp/lib\libc.a(lib_a-lcltime.o)
 .debug_loc     0x000000000002d973       0x26 c:/pspsdk/bin/../lib/gcc/psp/4.3.5/../../../../psp/lib\libc.a(lib_a-lcltime_r.o)
 .debug_loc     0x000000000002d999      0x13a c:/pspsdk/bin/../lib/gcc/psp/4.3.5/../../../../psp/lib\libc.a(lib_a-makebuf.o)
 .debug_loc     0x000000000002dad3       0x31 c:/pspsdk/bin/../lib/gcc/psp/4.3.5/../../../../psp/lib\libc.a(lib_a-malign.o)
 .debug_loc     0x000000000002db04      0x1bc c:/pspsdk/bin/../lib/gcc/psp/4.3.5/../../../../psp/lib\libc.a(lib_a-malignr.o)
 .debug_loc     0x000000000002dcc0       0x3c c:/pspsdk/bin/../lib/gcc/psp/4.3.5/../../../../psp/lib\libc.a(lib_a-malloc.o)
 .debug_loc     0x000000000002dcfc      0x7c8 c:/pspsdk/bin/../lib/gcc/psp/4.3.5/../../../../psp/lib\libc.a(lib_a-mallocr.o)
 .debug_loc     0x000000000002e4c4       0xcd c:/pspsdk/bin/../lib/gcc/psp/4.3.5/../../../../psp/lib\libc.a(lib_a-memchr.o)
 .debug_loc     0x000000000002e591      0x16c c:/pspsdk/bin/../lib/gcc/psp/4.3.5/../../../../psp/lib\libc.a(lib_a-memcmp.o)
 .debug_loc     0x000000000002e6fd      0x262 c:/pspsdk/bin/../lib/gcc/psp/4.3.5/../../../../psp/lib\libc.a(lib_a-memcpy.o)
 .debug_loc     0x000000000002e95f      0x18a c:/pspsdk/bin/../lib/gcc/psp/4.3.5/../../../../psp/lib\libc.a(lib_a-memmove.o)
 .debug_loc     0x000000000002eae9      0x101 c:/pspsdk/bin/../lib/gcc/psp/4.3.5/../../../../psp/lib\libc.a(lib_a-memset.o)
 .debug_loc     0x000000000002ebea      0x346 c:/pspsdk/bin/../lib/gcc/psp/4.3.5/../../../../psp/lib\libc.a(lib_a-mktm_r.o)
 .debug_loc     0x000000000002ef30       0x81 c:/pspsdk/bin/../lib/gcc/psp/4.3.5/../../../../psp/lib\libc.a(lib_a-openr.o)
 .debug_loc     0x000000000002efb1      0x218 c:/pspsdk/bin/../lib/gcc/psp/4.3.5/../../../../psp/lib\libc.a(lib_a-putc.o)
 .debug_loc     0x000000000002f1c9       0x1f c:/pspsdk/bin/../lib/gcc/psp/4.3.5/../../../../psp/lib\libc.a(lib_a-rand.o)
 .debug_loc     0x000000000002f1e8       0x31 c:/pspsdk/bin/../lib/gcc/psp/4.3.5/../../../../psp/lib\libc.a(lib_a-realloc.o)
 .debug_loc     0x000000000002f219      0x808 c:/pspsdk/bin/../lib/gcc/psp/4.3.5/../../../../psp/lib\libc.a(lib_a-reallocr.o)
 .debug_loc     0x000000000002fa21      0x210 c:/pspsdk/bin/../lib/gcc/psp/4.3.5/../../../../psp/lib\libc.a(lib_a-reent.o)
 .debug_loc     0x000000000002fc31       0xd1 c:/pspsdk/bin/../lib/gcc/psp/4.3.5/../../../../psp/lib\libc.a(lib_a-refill.o)
 .debug_loc     0x000000000002fd02       0xb0 c:/pspsdk/bin/../lib/gcc/psp/4.3.5/../../../../psp/lib\libc.a(lib_a-rget.o)
 .debug_loc     0x000000000002fdb2       0x5b c:/pspsdk/bin/../lib/gcc/psp/4.3.5/../../../../psp/lib\libc.a(lib_a-sbrkr.o)
 .debug_loc     0x000000000002fe0d      0x3d5 c:/pspsdk/bin/../lib/gcc/psp/4.3.5/../../../../psp/lib\libc.a(lib_a-signal.o)
 .debug_loc     0x00000000000301e2       0x81 c:/pspsdk/bin/../lib/gcc/psp/4.3.5/../../../../psp/lib\libc.a(lib_a-signalr.o)
 .debug_loc     0x0000000000030263      0x251 c:/pspsdk/bin/../lib/gcc/psp/4.3.5/../../../../psp/lib\libc.a(lib_a-snprintf.o)
 .debug_loc     0x00000000000304b4       0xb5 c:/pspsdk/bin/../lib/gcc/psp/4.3.5/../../../../psp/lib\libc.a(lib_a-sprintf.o)
 .debug_loc     0x0000000000030569       0xc0 c:/pspsdk/bin/../lib/gcc/psp/4.3.5/../../../../psp/lib\libc.a(lib_a-sscanf.o)
 .debug_loc     0x0000000000030629      0x1fe c:/pspsdk/bin/../lib/gcc/psp/4.3.5/../../../../psp/lib\libc.a(lib_a-stdio.o)
 .debug_loc     0x0000000000030827       0x78 c:/pspsdk/bin/../lib/gcc/psp/4.3.5/../../../../psp/lib\libc.a(lib_a-strcasecmp.o)
 .debug_loc     0x000000000003089f       0x84 c:/pspsdk/bin/../lib/gcc/psp/4.3.5/../../../../psp/lib\libc.a(lib_a-strcat.o)
 .debug_loc     0x0000000000030923      0x138 c:/pspsdk/bin/../lib/gcc/psp/4.3.5/../../../../psp/lib\libc.a(lib_a-strchr.o)
 .debug_loc     0x0000000000030a5b       0xf6 c:/pspsdk/bin/../lib/gcc/psp/4.3.5/../../../../psp/lib\libc.a(lib_a-strcmp.o)
 .debug_loc     0x0000000000030b51       0xb4 c:/pspsdk/bin/../lib/gcc/psp/4.3.5/../../../../psp/lib\libc.a(lib_a-strcpy.o)
 .debug_loc     0x0000000000030c05      0x402 c:/pspsdk/bin/../lib/gcc/psp/4.3.5/../../../../psp/lib\libc.a(lib_a-strerror.o)
 .debug_loc     0x0000000000031007       0x1e c:/pspsdk/bin/../lib/gcc/psp/4.3.5/../../../../psp/lib\libc.a(lib_a-strlen.o)
 .debug_loc     0x0000000000031025       0x3c c:/pspsdk/bin/../lib/gcc/psp/4.3.5/../../../../psp/lib\libc.a(lib_a-strncmp.o)
 .debug_loc     0x0000000000031061      0x167 c:/pspsdk/bin/../lib/gcc/psp/4.3.5/../../../../psp/lib\libc.a(lib_a-strncpy.o)
 .debug_loc     0x00000000000311c8       0x8f c:/pspsdk/bin/../lib/gcc/psp/4.3.5/../../../../psp/lib\libc.a(lib_a-strrchr.o)
 .debug_loc     0x0000000000031257     0x23ed c:/pspsdk/bin/../lib/gcc/psp/4.3.5/../../../../psp/lib\libc.a(lib_a-strtod.o)
 .debug_loc     0x0000000000033644      0x27f c:/pspsdk/bin/../lib/gcc/psp/4.3.5/../../../../psp/lib\libc.a(lib_a-strtol.o)
 .debug_loc     0x00000000000338c3     0x2df5 c:/pspsdk/bin/../lib/gcc/psp/4.3.5/../../../../psp/lib\libc.a(lib_a-svfprintf.o)
 .debug_loc     0x00000000000366b8     0x1ae9 c:/pspsdk/bin/../lib/gcc/psp/4.3.5/../../../../psp/lib\libc.a(lib_a-svfscanf.o)
 .debug_loc     0x00000000000381a1       0x31 c:/pspsdk/bin/../lib/gcc/psp/4.3.5/../../../../psp/lib\libc.a(lib_a-sysgettod.o)
 .debug_loc     0x00000000000381d2       0x5a c:/pspsdk/bin/../lib/gcc/psp/4.3.5/../../../../psp/lib\libc.a(lib_a-syswrite.o)
 .debug_loc     0x000000000003822c       0x53 c:/pspsdk/bin/../lib/gcc/psp/4.3.5/../../../../psp/lib\libc.a(lib_a-time.o)
 .debug_loc     0x000000000003827f      0x1bd c:/pspsdk/bin/../lib/gcc/psp/4.3.5/../../../../psp/lib\libc.a(lib_a-ungetc.o)
 .debug_loc     0x000000000003843c     0x1994 c:/pspsdk/bin/../lib/gcc/psp/4.3.5/../../../../psp/lib\libc.a(lib_a-vfiprintf.o)
 .debug_loc     0x0000000000039dd0      0x1ba c:/pspsdk/bin/../lib/gcc/psp/4.3.5/../../../../psp/lib\libc.a(lib_a-vsnprintf.o)
 .debug_loc     0x0000000000039f8a       0xff c:/pspsdk/bin/../lib/gcc/psp/4.3.5/../../../../psp/lib\libc.a(lib_a-wbuf.o)
 .debug_loc     0x000000000003a089       0x81 c:/pspsdk/bin/../lib/gcc/psp/4.3.5/../../../../psp/lib\libc.a(lib_a-writer.o)
 .debug_loc     0x000000000003a10a       0x7c c:/pspsdk/bin/../lib/gcc/psp/4.3.5/../../../../psp/lib\libc.a(lib_a-wsetup.o)
 .debug_loc     0x000000000003a186     0x22df c:/pspsdk/bin/../lib/gcc/psp/4.3.5/../../../../psp/lib\libc.a(vxprintf.o)
 .debug_loc     0x000000000003c465       0x39 c:/pspsdk/bin/../lib/gcc/psp/4.3.5/../../../../psp/lib\libc.a(__fout.o)
 .debug_loc     0x000000000003c49e       0x98 c:/pspsdk/bin/../lib/gcc/psp/4.3.5/../../../../psp/lib\libc.a(_exit.o)
 .debug_loc     0x000000000003c536       0xb0 c:/pspsdk/bin/../lib/gcc/psp/4.3.5/../../../../psp/lib\libc.a(_fstat.o)
 .debug_loc     0x000000000003c5e6       0x1f c:/pspsdk/bin/../lib/gcc/psp/4.3.5/../../../../psp/lib\libc.a(_getpid.o)
 .debug_loc     0x000000000003c605       0x45 c:/pspsdk/bin/../lib/gcc/psp/4.3.5/../../../../psp/lib\libc.a(_kill.o)
 .debug_loc     0x000000000003c64a      0x14d c:/pspsdk/bin/../lib/gcc/psp/4.3.5/../../../../psp/lib\libc.a(_open.o)
 .debug_loc     0x000000000003c797       0xe4 c:/pspsdk/bin/../lib/gcc/psp/4.3.5/../../../../psp/lib\libc.a(_sbrk.o)
 .debug_loc     0x000000000003c87b       0xf2 c:/pspsdk/bin/../lib/gcc/psp/4.3.5/../../../../psp/lib\libc.a(_write.o)
 .debug_loc     0x000000000003c96d      0x1b1 c:/pspsdk/bin/../lib/gcc/psp/4.3.5/../../../../psp/lib\libc.a(fdman.o)
 .debug_loc     0x000000000003cb1e       0xb6 c:/pspsdk/bin/../lib/gcc/psp/4.3.5/../../../../psp/lib\libc.a(isatty.o)
 .debug_loc     0x000000000003cbd4      0x123 c:/pspsdk/bin/../lib/gcc/psp/4.3.5/../../../../psp/lib\libc.a(lib_a-__atexit.o)
 .debug_loc     0x000000000003ccf7      0x160 c:/pspsdk/bin/../lib/gcc/psp/4.3.5/../../../../psp/lib\libc.a(lib_a-__call_atexit.o)
 .debug_loc     0x000000000003ce57       0x5b c:/pspsdk/bin/../lib/gcc/psp/4.3.5/../../../../psp/lib\libc.a(lib_a-closer.o)
 .debug_loc     0x000000000003ceb2     0x23d6 c:/pspsdk/bin/../lib/gcc/psp/4.3.5/../../../../psp/lib\libc.a(lib_a-dtoa.o)
 .debug_loc     0x000000000003f288       0x81 c:/pspsdk/bin/../lib/gcc/psp/4.3.5/../../../../psp/lib\libc.a(lib_a-fcntlr.o)
 .debug_loc     0x000000000003f309      0x1ff c:/pspsdk/bin/../lib/gcc/psp/4.3.5/../../../../psp/lib\libc.a(lib_a-fputwc.o)
 .debug_loc     0x000000000003f508      0xfd2 c:/pspsdk/bin/../lib/gcc/psp/4.3.5/../../../../psp/lib\libc.a(lib_a-gdtoa-gethex.o)
 .debug_loc     0x00000000000404da      0x467 c:/pspsdk/bin/../lib/gcc/psp/4.3.5/../../../../psp/lib\libc.a(lib_a-gdtoa-hexnan.o)
 .debug_loc     0x0000000000040941       0x6e c:/pspsdk/bin/../lib/gcc/psp/4.3.5/../../../../psp/lib\libc.a(lib_a-gettimeofdayr.o)
 .debug_loc     0x00000000000409af       0xc0 c:/pspsdk/bin/../lib/gcc/psp/4.3.5/../../../../psp/lib\libc.a(lib_a-locale.o)
 .debug_loc     0x0000000000040a6f       0x81 c:/pspsdk/bin/../lib/gcc/psp/4.3.5/../../../../psp/lib\libc.a(lib_a-lseekr.o)
 .debug_loc     0x0000000000040af0      0x264 c:/pspsdk/bin/../lib/gcc/psp/4.3.5/../../../../psp/lib\libc.a(lib_a-mbrtowc.o)
 .debug_loc     0x0000000000040d54       0xfd c:/pspsdk/bin/../lib/gcc/psp/4.3.5/../../../../psp/lib\libc.a(lib_a-mbtowc_r.o)
 .debug_loc     0x0000000000040e51     0x1471 c:/pspsdk/bin/../lib/gcc/psp/4.3.5/../../../../psp/lib\libc.a(lib_a-mprec.o)
 .debug_loc     0x00000000000422c2       0x81 c:/pspsdk/bin/../lib/gcc/psp/4.3.5/../../../../psp/lib\libc.a(lib_a-readr.o)
 .debug_loc     0x0000000000042343       0x9c c:/pspsdk/bin/../lib/gcc/psp/4.3.5/../../../../psp/lib\libc.a(lib_a-sccl.o)
 .debug_loc     0x00000000000423df       0x1e c:/pspsdk/bin/../lib/gcc/psp/4.3.5/../../../../psp/lib\libc.a(lib_a-strdup.o)
 .debug_loc     0x00000000000423fd       0x97 c:/pspsdk/bin/../lib/gcc/psp/4.3.5/../../../../psp/lib\libc.a(lib_a-strdup_r.o)
 .debug_loc     0x0000000000042494      0x3a6 c:/pspsdk/bin/../lib/gcc/psp/4.3.5/../../../../psp/lib\libc.a(lib_a-strtoll_r.o)
 .debug_loc     0x000000000004283a      0x21f c:/pspsdk/bin/../lib/gcc/psp/4.3.5/../../../../psp/lib\libc.a(lib_a-strtoul.o)
 .debug_loc     0x0000000000042a59      0x370 c:/pspsdk/bin/../lib/gcc/psp/4.3.5/../../../../psp/lib\libc.a(lib_a-strtoull_r.o)
 .debug_loc     0x0000000000042dc9     0x1b29 c:/pspsdk/bin/../lib/gcc/psp/4.3.5/../../../../psp/lib\libc.a(lib_a-svfiprintf.o)
 .debug_loc     0x00000000000448f2     0x1232 c:/pspsdk/bin/../lib/gcc/psp/4.3.5/../../../../psp/lib\libc.a(lib_a-svfiscanf.o)
 .debug_loc     0x0000000000045b24       0x31 c:/pspsdk/bin/../lib/gcc/psp/4.3.5/../../../../psp/lib\libc.a(lib_a-sysstat.o)
 .debug_loc     0x0000000000045b55      0x1fc c:/pspsdk/bin/../lib/gcc/psp/4.3.5/../../../../psp/lib\libc.a(lib_a-wcrtomb.o)
 .debug_loc     0x0000000000045d51       0x97 c:/pspsdk/bin/../lib/gcc/psp/4.3.5/../../../../psp/lib\libc.a(lib_a-wctomb_r.o)
 .debug_loc     0x0000000000045de8      0x4a5 c:/pspsdk/bin/../lib/gcc/psp/4.3.5/../../../../psp/lib\libc.a(pipe.o)
 .debug_loc     0x000000000004628d      0x48d c:/pspsdk/bin/../lib/gcc/psp/4.3.5/../../../../psp/lib\libc.a(pspcwd.o)
 .debug_loc     0x000000000004671a       0x53 c:/pspsdk/bin/../lib/gcc/psp/4.3.5/../../../../psp/lib\libc.a(__psp_set_errno.o)
 .debug_loc     0x000000000004676d       0xbe c:/pspsdk/bin/../lib/gcc/psp/4.3.5/../../../../psp/lib\libc.a(_close.o)
 .debug_loc     0x000000000004682b      0x127 c:/pspsdk/bin/../lib/gcc/psp/4.3.5/../../../../psp/lib\libc.a(_fcntl.o)
 .debug_loc     0x0000000000046952       0xdb c:/pspsdk/bin/../lib/gcc/psp/4.3.5/../../../../psp/lib\libc.a(_gettimeofday.o)
 .debug_loc     0x0000000000046a2d       0x84 c:/pspsdk/bin/../lib/gcc/psp/4.3.5/../../../../psp/lib\libc.a(_lseek.o)
 .debug_loc     0x0000000000046ab1       0xf2 c:/pspsdk/bin/../lib/gcc/psp/4.3.5/../../../../psp/lib\libc.a(_read.o)
 .debug_loc     0x0000000000046ba3       0x51 c:/pspsdk/bin/../lib/gcc/psp/4.3.5/../../../../psp/lib\libc.a(chdir.o)
 .debug_loc     0x0000000000046bf4       0x6e c:/pspsdk/bin/../lib/gcc/psp/4.3.5/../../../../psp/lib\libc.a(lib_a-statr.o)
 .debug_loc     0x0000000000046c62      0x1ac c:/pspsdk/bin/../lib/gcc/psp/4.3.5/../../../../psp/lib\libc.a(setsockopt.o)
 .debug_loc     0x0000000000046e0e       0x85 c:/pspsdk/bin/../lib/gcc/psp/4.3.5/../../../../psp/lib\libc.a(_stat.o)
 .debug_loc     0x0000000000046e93      0x345 c:/pspsdk/bin/../lib/gcc/psp/4.3.5/../../../../psp/lib\libc.a(lib_a-mktime.o)
 .debug_loc     0x00000000000471d8       0x1f c:/pspsdk/bin/../lib/gcc/psp/4.3.5/../../../../psp/lib\libc.a(lib_a-div.o)
 .debug_loc     0x00000000000471f7       0x67 c:/pspsdk/bin/../lib/gcc/psp/4.3.5\libgcc.a(_fixunsdfsi.o)
 .debug_loc     0x000000000004725e      0x68b c:/pspsdk/bin/../lib/gcc/psp/4.3.5\libgcc.a(_udivdi3.o)
 .debug_loc     0x00000000000478e9      0x6f6 c:/pspsdk/bin/../lib/gcc/psp/4.3.5\libgcc.a(_umoddi3.o)
 .debug_loc     0x0000000000047fdf       0x33 c:/pspsdk/bin/../lib/gcc/psp/4.3.5\libgcc.a(_sf_to_df.o)
 .debug_loc     0x0000000000048012      0x33a c:/pspsdk/bin/../lib/gcc/psp/4.3.5\libgcc.a(_addsub_df.o)
 .debug_loc     0x000000000004834c      0x26e c:/pspsdk/bin/../lib/gcc/psp/4.3.5\libgcc.a(_mul_df.o)
 .debug_loc     0x00000000000485ba      0x2d1 c:/pspsdk/bin/../lib/gcc/psp/4.3.5\libgcc.a(_div_df.o)
 .debug_loc     0x000000000004888b       0x50 c:/pspsdk/bin/../lib/gcc/psp/4.3.5\libgcc.a(_eq_df.o)
 .debug_loc     0x00000000000488db       0x50 c:/pspsdk/bin/../lib/gcc/psp/4.3.5\libgcc.a(_ne_df.o)
 .debug_loc     0x000000000004892b       0x50 c:/pspsdk/bin/../lib/gcc/psp/4.3.5\libgcc.a(_gt_df.o)
 .debug_loc     0x000000000004897b       0x50 c:/pspsdk/bin/../lib/gcc/psp/4.3.5\libgcc.a(_ge_df.o)
 .debug_loc     0x00000000000489cb       0x50 c:/pspsdk/bin/../lib/gcc/psp/4.3.5\libgcc.a(_lt_df.o)
 .debug_loc     0x0000000000048a1b       0x50 c:/pspsdk/bin/../lib/gcc/psp/4.3.5\libgcc.a(_le_df.o)
 .debug_loc     0x0000000000048a6b       0x8f c:/pspsdk/bin/../lib/gcc/psp/4.3.5\libgcc.a(_si_to_df.o)
 .debug_loc     0x0000000000048afa       0x8c c:/pspsdk/bin/../lib/gcc/psp/4.3.5\libgcc.a(_df_to_si.o)
 .debug_loc     0x0000000000048b86       0x70 c:/pspsdk/bin/../lib/gcc/psp/4.3.5\libgcc.a(_make_df.o)
 .debug_loc     0x0000000000048bf6       0x4a c:/pspsdk/bin/../lib/gcc/psp/4.3.5\libgcc.a(_df_to_sf.o)
 .debug_loc     0x0000000000048c40       0x92 c:/pspsdk/bin/../lib/gcc/psp/4.3.5\libgcc.a(_usi_to_df.o)
 .debug_loc     0x0000000000048cd2     0x39ac c:/pspsdk/bin/../lib/gcc/psp/4.3.5\libgcc.a(unwind-dw2.o)
 .debug_loc     0x000000000004c67e     0x1a44 c:/pspsdk/bin/../lib/gcc/psp/4.3.5\libgcc.a(unwind-dw2-fde.o)
 .debug_loc     0x000000000004e0c2       0x50 c:/pspsdk/bin/../lib/gcc/psp/4.3.5\libgcc.a(_ucmpdi2.o)
 .debug_loc     0x000000000004e112       0x65 c:/pspsdk/bin/../lib/gcc/psp/4.3.5\libgcc.a(_unpack_sf.o)
 .debug_loc     0x000000000004e177       0x6b c:/pspsdk/bin/../lib/gcc/psp/4.3.5\libgcc.a(_make_sf.o)
 .debug_loc     0x000000000004e1e2      0x132 c:/pspsdk/bin/../lib/gcc/psp/4.3.5\libgcc.a(_pack_df.o)
 .debug_loc     0x000000000004e314      0x128 c:/pspsdk/bin/../lib/gcc/psp/4.3.5\libgcc.a(_unpack_df.o)
 .debug_loc     0x000000000004e43c       0x29 c:/pspsdk/bin/../lib/gcc/psp/4.3.5\libgcc.a(_fpcmp_parts_df.o)
 .debug_loc     0x000000000004e465       0xc3 c:/pspsdk/bin/../lib/gcc/psp/4.3.5\libgcc.a(_pack_sf.o)

.debug_macinfo
 *(.debug_macinfo)

.debug_weaknames
 *(.debug_weaknames)

.debug_funcnames
 *(.debug_funcnames)

.debug_typenames
 *(.debug_typenames)

.debug_varnames
 *(.debug_varnames)

/DISCARD/
 *(.comment)
 *(.pdr)
 *(.note.GNU-stack)
OUTPUT(MasterBoy.elf elf32-littlemips)

.mdebug.eabi32  0x0000000000000000        0x0

.gcc_compiled_long32
                0x0000000000000000        0x0

.debug_ranges   0x0000000000000000     0x4aa0
 .debug_ranges  0x0000000000000000      0x2d8 psp/sound.o
 .debug_ranges  0x00000000000002d8      0x620 psp/gym/gym.o
 .debug_ranges  0x00000000000008f8      0x5f8 psp/vgm/In_vgm.o
 .debug_ranges  0x0000000000000ef0       0x68 c:/pspsdk/bin/../lib/gcc/psp/4.3.5/../../../../psp/lib\libosl.a(oslib.o)
 .debug_ranges  0x0000000000000f58       0x20 c:/pspsdk/bin/../lib/gcc/psp/4.3.5/../../../../psp/lib\libosl.a(drawing.o)
 .debug_ranges  0x0000000000000f78       0x98 c:/pspsdk/bin/../lib/gcc/psp/4.3.5/../../../../psp/lib\libosl.a(image.o)
 .debug_ranges  0x0000000000001010       0x18 c:/pspsdk/bin/../lib/gcc/psp/4.3.5/../../../../psp/lib\libosl.a(shape.o)
 .debug_ranges  0x0000000000001028       0xa8 c:/pspsdk/bin/../lib/gcc/psp/4.3.5/../../../../psp/lib\libosl.a(text.o)
 .debug_ranges  0x00000000000010d0       0x68 c:/pspsdk/bin/../lib/gcc/psp/4.3.5/../../../../psp/lib\libosl.a(vram_mgr.o)
 .debug_ranges  0x0000000000001138      0x120 c:/pspsdk/bin/../lib/gcc/psp/4.3.5/../../../../psp/lib\libosl.a(audio.o)
 .debug_ranges  0x0000000000001258       0x60 c:/pspsdk/bin/../lib/gcc/psp/4.3.5/../../../../psp/lib\libosl.a(bgm.o)
 .debug_ranges  0x00000000000012b8       0x48 c:/pspsdk/bin/../lib/gcc/psp/4.3.5/../../../../psp/lib\libosl.a(VirtualFile.o)
 .debug_ranges  0x0000000000001300       0x18 c:/pspsdk/bin/../lib/gcc/psp/4.3.5/../../../../psp/lib\libosl.a(oslSwizzleImage.o)
 .debug_ranges  0x0000000000001318       0x18 c:/pspsdk/bin/../lib/gcc/psp/4.3.5/../../../../psp/lib\libosl.a(oslLoadImageFile.o)
 .debug_ranges  0x0000000000001330      0x158 c:/pspsdk/bin/../lib/gcc/psp/4.3.5/../../../../psp/lib\libosl.a(intraFont.o)
 .debug_ranges  0x0000000000001488      0x130 c:/pspsdk/bin/../lib/gcc/psp/4.3.5/../../../../psp/lib\libosl.a(libccc.o)
 .debug_ranges  0x00000000000015b8       0x18 c:/pspsdk/bin/../lib/gcc/psp/4.3.5/../../../../psp/lib\libosl.a(oslHandleLoadNoFailError.o)
 .debug_ranges  0x00000000000015d0       0x60 c:/pspsdk/bin/../lib/gcc/psp/4.3.5/../../../../psp/lib\libosl.a(oslLoadImageFilePNG.o)
 .debug_ranges  0x0000000000001630       0x18 c:/pspsdk/bin/../lib/gcc/psp/4.3.5/../../../../psp/lib\libosl.a(oslLoadImageFileJPG.o)
 .debug_ranges  0x0000000000001648       0x50 c:/pspsdk/bin/../lib/gcc/psp/4.3.5/../../../../psp/lib\libosl.a(oslLoadImageFileGIF.o)
 .debug_ranges  0x0000000000001698       0x68 c:/pspsdk/bin/../lib/gcc/psp/4.3.5/../../../../psp/lib\libosl.a(oslConvertImageTo.o)
 .debug_ranges  0x0000000000001700       0xa0 c:/pspsdk/bin/../lib/gcc/psp/4.3.5/../../../../psp/lib\libosl.a(dgif_lib.o)
 .debug_ranges  0x00000000000017a0       0x18 c:/pspsdk/bin/../lib/gcc/psp/4.3.5/../../../../psp/lib\libosl.a(gifalloc.o)
 .debug_ranges  0x00000000000017b8       0x68 c:/pspsdk/bin/../lib/gcc/psp/4.3.5/../../../../psp/lib\libjpeg.a(jdapimin.o)
 .debug_ranges  0x0000000000001820       0x88 c:/pspsdk/bin/../lib/gcc/psp/4.3.5/../../../../psp/lib\libjpeg.a(jdmaster.o)
 .debug_ranges  0x00000000000018a8      0x148 c:/pspsdk/bin/../lib/gcc/psp/4.3.5/../../../../psp/lib\libjpeg.a(jdinput.o)
 .debug_ranges  0x00000000000019f0      0x450 c:/pspsdk/bin/../lib/gcc/psp/4.3.5/../../../../psp/lib\libjpeg.a(jdmarker.o)
 .debug_ranges  0x0000000000001e40      0x1c0 c:/pspsdk/bin/../lib/gcc/psp/4.3.5/../../../../psp/lib\libjpeg.a(jdhuff.o)
 .debug_ranges  0x0000000000002000       0x58 c:/pspsdk/bin/../lib/gcc/psp/4.3.5/../../../../psp/lib\libjpeg.a(jdmainct.o)
 .debug_ranges  0x0000000000002058      0x108 c:/pspsdk/bin/../lib/gcc/psp/4.3.5/../../../../psp/lib\libjpeg.a(jdcoefct.o)
 .debug_ranges  0x0000000000002160       0x40 c:/pspsdk/bin/../lib/gcc/psp/4.3.5/../../../../psp/lib\libjpeg.a(jddctmgr.o)
 .debug_ranges  0x00000000000021a0       0x30 c:/pspsdk/bin/../lib/gcc/psp/4.3.5/../../../../psp/lib\libjpeg.a(jidctfst.o)
 .debug_ranges  0x00000000000021d0       0x18 c:/pspsdk/bin/../lib/gcc/psp/4.3.5/../../../../psp/lib\libjpeg.a(jidctflt.o)
 .debug_ranges  0x00000000000021e8       0x60 c:/pspsdk/bin/../lib/gcc/psp/4.3.5/../../../../psp/lib\libjpeg.a(jidctint.o)
 .debug_ranges  0x0000000000002248      0x158 c:/pspsdk/bin/../lib/gcc/psp/4.3.5/../../../../psp/lib\libjpeg.a(jquant1.o)
 .debug_ranges  0x00000000000023a0      0x280 c:/pspsdk/bin/../lib/gcc/psp/4.3.5/../../../../psp/lib\libjpeg.a(jquant2.o)
 .debug_ranges  0x0000000000002620       0x30 c:/pspsdk/bin/../lib/gcc/psp/4.3.5/../../../../psp/lib\libjpeg.a(jdmerge.o)
 .debug_ranges  0x0000000000002650       0x50 c:/pspsdk/bin/../lib/gcc/psp/4.3.5/../../../../psp/lib\libjpeg.a(jmemmgr.o)
 .debug_ranges  0x00000000000026a0       0x38 c:/pspsdk/bin/../lib/gcc/psp/4.3.5/../../../../psp/lib\libjpeg.a(jdarith.o)
 .debug_ranges  0x00000000000026d8       0x20 c:/pspsdk/psp/sdk/lib\libpspsdk.a(loadmodule.o)
 .debug_ranges  0x00000000000026f8       0x20 c:/pspsdk/psp/sdk/lib\libpspgu.a(sceGuClear.o)
 .debug_ranges  0x0000000000002718       0x38 c:/pspsdk/psp/sdk/lib\libpspgu.a(sendCommand.o)
 .debug_ranges  0x0000000000002750       0x18 c:/pspsdk/bin/../lib/gcc/psp/4.3.5/../../../../psp/lib\libstdc++.a(del_op.o)
 .debug_ranges  0x0000000000002768       0x18 c:/pspsdk/bin/../lib/gcc/psp/4.3.5/../../../../psp/lib\libstdc++.a(del_opv.o)
 .debug_ranges  0x0000000000002780       0x48 c:/pspsdk/bin/../lib/gcc/psp/4.3.5/../../../../psp/lib\libstdc++.a(new_op.o)
 .debug_ranges  0x00000000000027c8       0x18 c:/pspsdk/bin/../lib/gcc/psp/4.3.5/../../../../psp/lib\libstdc++.a(new_opv.o)
 .debug_ranges  0x00000000000027e0       0x28 c:/pspsdk/bin/../lib/gcc/psp/4.3.5/../../../../psp/lib\libstdc++.a(eh_alloc.o)
 .debug_ranges  0x0000000000002808       0x20 c:/pspsdk/bin/../lib/gcc/psp/4.3.5/../../../../psp/lib\libstdc++.a(eh_globals.o)
 .debug_ranges  0x0000000000002828      0x1f8 c:/pspsdk/bin/../lib/gcc/psp/4.3.5/../../../../psp/lib\libstdc++.a(eh_personality.o)
 .debug_ranges  0x0000000000002a20       0x40 c:/pspsdk/bin/../lib/gcc/psp/4.3.5/../../../../psp/lib\libstdc++.a(eh_terminate.o)
 .debug_ranges  0x0000000000002a60       0x28 c:/pspsdk/bin/../lib/gcc/psp/4.3.5/../../../../psp/lib\libstdc++.a(eh_throw.o)
 .debug_ranges  0x0000000000002a88       0x38 c:/pspsdk/bin/../lib/gcc/psp/4.3.5/../../../../psp/lib\libstdc++.a(new_handler.o)
 .debug_ranges  0x0000000000002ac0       0x40 c:/pspsdk/bin/../lib/gcc/psp/4.3.5/../../../../psp/lib\libstdc++.a(si_class_type_info.o)
 .debug_ranges  0x0000000000002b00       0x48 c:/pspsdk/bin/../lib/gcc/psp/4.3.5/../../../../psp/lib\libstdc++.a(tinfo.o)
 .debug_ranges  0x0000000000002b48       0x50 c:/pspsdk/bin/../lib/gcc/psp/4.3.5/../../../../psp/lib\libstdc++.a(vterminate.o)
 .debug_ranges  0x0000000000002b98       0x68 c:/pspsdk/bin/../lib/gcc/psp/4.3.5/../../../../psp/lib\libstdc++.a(class_type_info.o)
 .debug_ranges  0x0000000000002c00       0x18 c:/pspsdk/bin/../lib/gcc/psp/4.3.5/../../../../psp/lib\libstdc++.a(eh_call.o)
 .debug_ranges  0x0000000000002c18       0x30 c:/pspsdk/bin/../lib/gcc/psp/4.3.5/../../../../psp/lib\libstdc++.a(eh_catch.o)
 .debug_ranges  0x0000000000002c48       0x80 c:/pspsdk/bin/../lib/gcc/psp/4.3.5/../../../../psp/lib\libstdc++.a(eh_exception.o)
 .debug_ranges  0x0000000000002cc8       0x18 c:/pspsdk/bin/../lib/gcc/psp/4.3.5/../../../../psp/lib\libstdc++.a(eh_type.o)
 .debug_ranges  0x0000000000002ce0       0x18 c:/pspsdk/bin/../lib/gcc/psp/4.3.5/../../../../psp/lib\libstdc++.a(pure.o)
 .debug_ranges  0x0000000000002cf8       0x90 c:/pspsdk/bin/../lib/gcc/psp/4.3.5/../../../../psp/lib\libm.a(lib_a-s_modf.o)
 .debug_ranges  0x0000000000002d88       0x18 c:/pspsdk/bin/../lib/gcc/psp/4.3.5/../../../../psp/lib\libm.a(lib_a-s_frexp.o)
 .debug_ranges  0x0000000000002da0       0x18 c:/pspsdk/bin/../lib/gcc/psp/4.3.5/../../../../psp/lib\libc.a(lib_a-callocr.o)
 .debug_ranges  0x0000000000002db8       0x38 c:/pspsdk/bin/../lib/gcc/psp/4.3.5/../../../../psp/lib\libc.a(lib_a-fflush.o)
 .debug_ranges  0x0000000000002df0       0x50 c:/pspsdk/bin/../lib/gcc/psp/4.3.5/../../../../psp/lib\libc.a(lib_a-fread.o)
 .debug_ranges  0x0000000000002e40       0x20 c:/pspsdk/bin/../lib/gcc/psp/4.3.5/../../../../psp/lib\libc.a(lib_a-fvwrite.o)
 .debug_ranges  0x0000000000002e60       0x78 c:/pspsdk/bin/../lib/gcc/psp/4.3.5/../../../../psp/lib\libc.a(lib_a-fwalk.o)
 .debug_ranges  0x0000000000002ed8       0x80 c:/pspsdk/bin/../lib/gcc/psp/4.3.5/../../../../psp/lib\libc.a(lib_a-mallocr.o)
 .debug_ranges  0x0000000000002f58       0x48 c:/pspsdk/bin/../lib/gcc/psp/4.3.5/../../../../psp/lib\libc.a(lib_a-mktm_r.o)
 .debug_ranges  0x0000000000002fa0       0x70 c:/pspsdk/bin/../lib/gcc/psp/4.3.5/../../../../psp/lib\libc.a(lib_a-reallocr.o)
 .debug_ranges  0x0000000000003010       0x40 c:/pspsdk/bin/../lib/gcc/psp/4.3.5/../../../../psp/lib\libc.a(lib_a-strcasecmp.o)
 .debug_ranges  0x0000000000003050       0xe0 c:/pspsdk/bin/../lib/gcc/psp/4.3.5/../../../../psp/lib\libc.a(lib_a-strtod.o)
 .debug_ranges  0x0000000000003130       0xf8 c:/pspsdk/bin/../lib/gcc/psp/4.3.5/../../../../psp/lib\libc.a(lib_a-svfprintf.o)
 .debug_ranges  0x0000000000003228      0x160 c:/pspsdk/bin/../lib/gcc/psp/4.3.5/../../../../psp/lib\libc.a(lib_a-svfscanf.o)
 .debug_ranges  0x0000000000003388       0x48 c:/pspsdk/bin/../lib/gcc/psp/4.3.5/../../../../psp/lib\libc.a(lib_a-vfiprintf.o)
 .debug_ranges  0x00000000000033d0      0x1e8 c:/pspsdk/bin/../lib/gcc/psp/4.3.5/../../../../psp/lib\libc.a(vxprintf.o)
 .debug_ranges  0x00000000000035b8       0x18 c:/pspsdk/bin/../lib/gcc/psp/4.3.5/../../../../psp/lib\libc.a(_sbrk.o)
 .debug_ranges  0x00000000000035d0       0x20 c:/pspsdk/bin/../lib/gcc/psp/4.3.5/../../../../psp/lib\libc.a(lib_a-__call_atexit.o)
 .debug_ranges  0x00000000000035f0       0x78 c:/pspsdk/bin/../lib/gcc/psp/4.3.5/../../../../psp/lib\libc.a(lib_a-fputwc.o)
 .debug_ranges  0x0000000000003668       0x48 c:/pspsdk/bin/../lib/gcc/psp/4.3.5/../../../../psp/lib\libc.a(lib_a-gdtoa-gethex.o)
 .debug_ranges  0x00000000000036b0       0x30 c:/pspsdk/bin/../lib/gcc/psp/4.3.5/../../../../psp/lib\libc.a(lib_a-gdtoa-hexnan.o)
 .debug_ranges  0x00000000000036e0       0x88 c:/pspsdk/bin/../lib/gcc/psp/4.3.5/../../../../psp/lib\libc.a(lib_a-mprec.o)
 .debug_ranges  0x0000000000003768       0x18 c:/pspsdk/bin/../lib/gcc/psp/4.3.5/../../../../psp/lib\libc.a(lib_a-svfiprintf.o)
 .debug_ranges  0x0000000000003780       0xa0 c:/pspsdk/bin/../lib/gcc/psp/4.3.5/../../../../psp/lib\libc.a(lib_a-svfiscanf.o)
 .debug_ranges  0x0000000000003820       0xb0 c:/pspsdk/bin/../lib/gcc/psp/4.3.5/../../../../psp/lib\libc.a(pspcwd.o)
 .debug_ranges  0x00000000000038d0       0x18 c:/pspsdk/bin/../lib/gcc/psp/4.3.5/../../../../psp/lib\libc.a(_fcntl.o)
 .debug_ranges  0x00000000000038e8       0xe0 c:/pspsdk/bin/../lib/gcc/psp/4.3.5/../../../../psp/lib\libc.a(_stat.o)
 .debug_ranges  0x00000000000039c8       0x68 c:/pspsdk/bin/../lib/gcc/psp/4.3.5/../../../../psp/lib\libc.a(lib_a-mktime.o)
 .debug_ranges  0x0000000000003a30      0x108 c:/pspsdk/bin/../lib/gcc/psp/4.3.5\libgcc.a(_udivdi3.o)
 .debug_ranges  0x0000000000003b38      0x110 c:/pspsdk/bin/../lib/gcc/psp/4.3.5\libgcc.a(_umoddi3.o)
 .debug_ranges  0x0000000000003c48       0x20 c:/pspsdk/bin/../lib/gcc/psp/4.3.5\libgcc.a(_addsub_df.o)
 .debug_ranges  0x0000000000003c68       0x80 c:/pspsdk/bin/../lib/gcc/psp/4.3.5\libgcc.a(_mul_df.o)
 .debug_ranges  0x0000000000003ce8       0x50 c:/pspsdk/bin/../lib/gcc/psp/4.3.5\libgcc.a(_div_df.o)
 .debug_ranges  0x0000000000003d38       0x20 c:/pspsdk/bin/../lib/gcc/psp/4.3.5\libgcc.a(_usi_to_df.o)
 .debug_ranges  0x0000000000003d58      0x910 c:/pspsdk/bin/../lib/gcc/psp/4.3.5\libgcc.a(unwind-dw2.o)
 .debug_ranges  0x0000000000004668      0x438 c:/pspsdk/bin/../lib/gcc/psp/4.3.5\libgcc.a(unwind-dw2-fde.o)

.gnu.attributes
                0x0000000000000000      0x2e0
 .gnu.attributes
                0x0000000000000000       0x10 c:/pspsdk/bin/../lib/gcc/psp/4.3.5/../../../../psp/lib\libosl.a(oslib.o)
 .gnu.attributes
                0x0000000000000010       0x10 c:/pspsdk/bin/../lib/gcc/psp/4.3.5/../../../../psp/lib\libosl.a(drawing.o)
 .gnu.attributes
                0x0000000000000020       0x10 c:/pspsdk/bin/../lib/gcc/psp/4.3.5/../../../../psp/lib\libosl.a(image.o)
 .gnu.attributes
                0x0000000000000030       0x10 c:/pspsdk/bin/../lib/gcc/psp/4.3.5/../../../../psp/lib\libosl.a(palette.o)
 .gnu.attributes
                0x0000000000000040       0x10 c:/pspsdk/bin/../lib/gcc/psp/4.3.5/../../../../psp/lib\libosl.a(shape.o)
 .gnu.attributes
                0x0000000000000050       0x10 c:/pspsdk/bin/../lib/gcc/psp/4.3.5/../../../../psp/lib\libosl.a(messagebox.o)
 .gnu.attributes
                0x0000000000000060       0x10 c:/pspsdk/bin/../lib/gcc/psp/4.3.5/../../../../psp/lib\libosl.a(keys.o)
 .gnu.attributes
                0x0000000000000070       0x10 c:/pspsdk/bin/../lib/gcc/psp/4.3.5/../../../../psp/lib\libosl.a(vfpu.o)
 .gnu.attributes
                0x0000000000000080       0x10 c:/pspsdk/bin/../lib/gcc/psp/4.3.5/../../../../psp/lib\libosl.a(text.o)
 .gnu.attributes
                0x0000000000000090       0x10 c:/pspsdk/bin/../lib/gcc/psp/4.3.5/../../../../psp/lib\libosl.a(vram_mgr.o)
 .gnu.attributes
                0x00000000000000a0       0x10 c:/pspsdk/bin/../lib/gcc/psp/4.3.5/../../../../psp/lib\libosl.a(audio.o)
 .gnu.attributes
                0x00000000000000b0       0x10 c:/pspsdk/bin/../lib/gcc/psp/4.3.5/../../../../psp/lib\libosl.a(bgm.o)
 .gnu.attributes
                0x00000000000000c0       0x10 c:/pspsdk/bin/../lib/gcc/psp/4.3.5/../../../../psp/lib\libosl.a(usb.o)
 .gnu.attributes
                0x00000000000000d0       0x10 c:/pspsdk/bin/../lib/gcc/psp/4.3.5/../../../../psp/lib\libosl.a(VirtualFile.o)
 .gnu.attributes
                0x00000000000000e0       0x10 c:/pspsdk/bin/../lib/gcc/psp/4.3.5/../../../../psp/lib\libosl.a(vfsFile.o)
 .gnu.attributes
                0x00000000000000f0       0x10 c:/pspsdk/bin/../lib/gcc/psp/4.3.5/../../../../psp/lib\libosl.a(oslDrawImage.o)
 .gnu.attributes
                0x0000000000000100       0x10 c:/pspsdk/bin/../lib/gcc/psp/4.3.5/../../../../psp/lib\libosl.a(oslDrawImageSimple.o)
 .gnu.attributes
                0x0000000000000110       0x10 c:/pspsdk/bin/../lib/gcc/psp/4.3.5/../../../../psp/lib\libosl.a(oslLockImage.o)
 .gnu.attributes
                0x0000000000000120       0x10 c:/pspsdk/bin/../lib/gcc/psp/4.3.5/../../../../psp/lib\libosl.a(oslSwizzleImage.o)
 .gnu.attributes
                0x0000000000000130       0x10 c:/pspsdk/bin/../lib/gcc/psp/4.3.5/../../../../psp/lib\libosl.a(oslSetDrawBuffer.o)
 .gnu.attributes
                0x0000000000000140       0x10 c:/pspsdk/bin/../lib/gcc/psp/4.3.5/../../../../psp/lib\libosl.a(oslWriteImageFilePNG.o)
 .gnu.attributes
                0x0000000000000150       0x10 c:/pspsdk/bin/../lib/gcc/psp/4.3.5/../../../../psp/lib\libosl.a(oslLoadImageFile.o)
 .gnu.attributes
                0x0000000000000160       0x10 c:/pspsdk/bin/../lib/gcc/psp/4.3.5/../../../../psp/lib\libosl.a(oslHandleLoadNoFailError.o)
 .gnu.attributes
                0x0000000000000170       0x10 c:/pspsdk/bin/../lib/gcc/psp/4.3.5/../../../../psp/lib\libosl.a(oslLoadImageFilePNG.o)
 .gnu.attributes
                0x0000000000000180       0x10 c:/pspsdk/bin/../lib/gcc/psp/4.3.5/../../../../psp/lib\libosl.a(oslLoadImageFileJPG.o)
 .gnu.attributes
                0x0000000000000190       0x10 c:/pspsdk/bin/../lib/gcc/psp/4.3.5/../../../../psp/lib\libosl.a(oslLoadImageFileGIF.o)
 .gnu.attributes
                0x00000000000001a0       0x10 c:/pspsdk/bin/../lib/gcc/psp/4.3.5/../../../../psp/lib\libosl.a(oslConvertImageTo.o)
 .gnu.attributes
                0x00000000000001b0       0x10 c:/pspsdk/bin/../lib/gcc/psp/4.3.5/../../../../psp/lib\libosl.a(oslSetImagePixel.o)
 .gnu.attributes
                0x00000000000001c0       0x10 c:/pspsdk/bin/../lib/gcc/psp/4.3.5/../../../../psp/lib\libosl.a(oslGetImagePixel.o)
 .gnu.attributes
                0x00000000000001d0       0x10 c:/pspsdk/bin/../lib/gcc/psp/4.3.5/../../../../psp/lib\libosl.a(dgif_lib.o)
 .gnu.attributes
                0x00000000000001e0       0x10 c:/pspsdk/bin/../lib/gcc/psp/4.3.5/../../../../psp/lib\libosl.a(gif_err.o)
 .gnu.attributes
                0x00000000000001f0       0x10 c:/pspsdk/bin/../lib/gcc/psp/4.3.5/../../../../psp/lib\libosl.a(gifalloc.o)
 .gnu.attributes
                0x0000000000000200       0x10 c:/pspsdk/bin/../lib/gcc/psp/4.3.5/../../../../psp/lib\libpng.a(png.o)
 .gnu.attributes
                0x0000000000000210       0x10 c:/pspsdk/bin/../lib/gcc/psp/4.3.5/../../../../psp/lib\libpng.a(pngerror.o)
 .gnu.attributes
                0x0000000000000220       0x10 c:/pspsdk/bin/../lib/gcc/psp/4.3.5/../../../../psp/lib\libpng.a(pngmem.o)
 .gnu.attributes
                0x0000000000000230       0x10 c:/pspsdk/bin/../lib/gcc/psp/4.3.5/../../../../psp/lib\libpng.a(pngread.o)
 .gnu.attributes
                0x0000000000000240       0x10 c:/pspsdk/bin/../lib/gcc/psp/4.3.5/../../../../psp/lib\libpng.a(pngrio.o)
 .gnu.attributes
                0x0000000000000250       0x10 c:/pspsdk/bin/../lib/gcc/psp/4.3.5/../../../../psp/lib\libpng.a(pngrtran.o)
 .gnu.attributes
                0x0000000000000260       0x10 c:/pspsdk/bin/../lib/gcc/psp/4.3.5/../../../../psp/lib\libpng.a(pngrutil.o)
 .gnu.attributes
                0x0000000000000270       0x10 c:/pspsdk/bin/../lib/gcc/psp/4.3.5/../../../../psp/lib\libpng.a(pngset.o)
 .gnu.attributes
                0x0000000000000280       0x10 c:/pspsdk/bin/../lib/gcc/psp/4.3.5/../../../../psp/lib\libpng.a(pngtrans.o)
 .gnu.attributes
                0x0000000000000290       0x10 c:/pspsdk/bin/../lib/gcc/psp/4.3.5/../../../../psp/lib\libpng.a(pngwio.o)
 .gnu.attributes
                0x00000000000002a0       0x10 c:/pspsdk/bin/../lib/gcc/psp/4.3.5/../../../../psp/lib\libpng.a(pngwrite.o)
 .gnu.attributes
                0x00000000000002b0       0x10 c:/pspsdk/bin/../lib/gcc/psp/4.3.5/../../../../psp/lib\libpng.a(pngwtran.o)
 .gnu.attributes
                0x00000000000002c0       0x10 c:/pspsdk/bin/../lib/gcc/psp/4.3.5/../../../../psp/lib\libpng.a(pngwutil.o)
 .gnu.attributes
                0x00000000000002d0       0x10 c:/pspsdk/bin/../lib/gcc/psp/4.3.5/../../../../psp/lib\libpng.a(pngget.o)
